MSP430 Assembler PC v21.6.0 Mon Aug 29 17:25:18 2022

Copyright (c) 2003-2018 Texas Instruments Incorporated
C:\Users\chand\AppData\Local\Temp\{AB94F83C-4D24-4C8E-BFAA-F9C03CA5D725} PAGE    1

       1            ;******************************************************************************
       2            ;* MSP430 G3 C/C++ Codegen                                              PC v21.6.0.LTS *
       3            ;* Date/Time created: Mon Aug 29 17:25:18 2022                                *
       4            ;******************************************************************************
       5                    .compiler_opts --abi=eabi --diag_wrap=off --hll_source=on --mem_model:code=small --mem_model:d
       6            
       7            $C$DW$CU        .dwtag  DW_TAG_compile_unit
       8                    .dwattr $C$DW$CU, DW_AT_name("../Lab03_P3.c")
       9                    .dwattr $C$DW$CU, DW_AT_producer("TI MSP430 G3 C/C++ Codegen PC v21.6.0.LTS Copyright (c) 2003
      10                    .dwattr $C$DW$CU, DW_AT_TI_version(0x01)
      11                    .dwattr $C$DW$CU, DW_AT_comp_dir("C:\Users\chand\workspace_v12\Project02\Debug")
      12            $C$DW$1 .dwtag  DW_TAG_variable
      13                    .dwattr $C$DW$1, DW_AT_name("WDTCTL")
      14                    .dwattr $C$DW$1, DW_AT_TI_symbol_name("WDTCTL")
      15                    .dwattr $C$DW$1, DW_AT_type(*$C$DW$T$62)
      16                    .dwattr $C$DW$1, DW_AT_declaration
      17                    .dwattr $C$DW$1, DW_AT_external
      18                    .dwattr $C$DW$1, DW_AT_decl_file("C:\ti\ccs1200\ccs\ccs_base\msp430\include\msp430f5529.h")
      19                    .dwattr $C$DW$1, DW_AT_decl_line(0x1232)
      20                    .dwattr $C$DW$1, DW_AT_decl_column(0x01)
      21            
      22 000000               .data
      23                    .align  2
      24                    .elfsym max$1,SYM_SIZE(2)
      25 000000       max$1:
      26 000000 0005          .bits           0x5,16
      27                                    ; max$1 @ 0
      28            
      29 000000               .sect   ".const:$P$T0$2"
      30                    .align  2
      31                    .elfsym $P$T0$2,SYM_SIZE(10)
      32 000000       $P$T0$2:
      33 000000 FFEC          .bits           0xffec,16
      34                                    ; $P$T0$2[0] @ 0
      35 000002 0005          .bits           0x5,16
      36                                    ; $P$T0$2[1] @ 16
      37 000004 0000          .bits           0,16
      38                                    ; $P$T0$2[2] @ 32
      39 000006 0003          .bits           0x3,16
      40                                    ; $P$T0$2[3] @ 48
      41 000008 FFCB          .bits           0xffcb,16
      42                                    ; $P$T0$2[4] @ 64
      43            
      44            $C$DW$2 .dwtag  DW_TAG_variable
      45                    .dwattr $C$DW$2, DW_AT_name("$P$T0$2")
      46                    .dwattr $C$DW$2, DW_AT_TI_symbol_name("$P$T0$2")
      47                    .dwattr $C$DW$2, DW_AT_type(*$C$DW$T$45)
      48                    .dwattr $C$DW$2, DW_AT_location[DW_OP_addr $P$T0$2]
      49                    .dwattr $C$DW$2, DW_AT_decl_file("../Lab03_P3.c")
      50                    .dwattr $C$DW$2, DW_AT_decl_line(0x11)
      51                    .dwattr $C$DW$2, DW_AT_decl_column(0x09)
      52            
      53 000000               .sect   ".const:$P$T1$3"
      54                    .align  2
      55                    .elfsym $P$T1$3,SYM_SIZE(10)
MSP430 Assembler PC v21.6.0 Mon Aug 29 17:25:18 2022

Copyright (c) 2003-2018 Texas Instruments Incorporated
C:\Users\chand\AppData\Local\Temp\{AB94F83C-4D24-4C8E-BFAA-F9C03CA5D725} PAGE    2

      56 000000       $P$T1$3:
      57 000000 FFE0          .bits           0xffe0,16
      58                                    ; $P$T1$3[0] @ 0
      59 000002 0005          .bits           0x5,16
      60                                    ; $P$T1$3[1] @ 16
      61 000004 0002          .bits           0x2,16
      62                                    ; $P$T1$3[2] @ 32
      63 000006 FFEA          .bits           0xffea,16
      64                                    ; $P$T1$3[3] @ 48
      65 000008 0007          .bits           0x7,16
      66                                    ; $P$T1$3[4] @ 64
      67            
      68            $C$DW$3 .dwtag  DW_TAG_variable
      69                    .dwattr $C$DW$3, DW_AT_name("$P$T1$3")
      70                    .dwattr $C$DW$3, DW_AT_TI_symbol_name("$P$T1$3")
      71                    .dwattr $C$DW$3, DW_AT_type(*$C$DW$T$45)
      72                    .dwattr $C$DW$3, DW_AT_location[DW_OP_addr $P$T1$3]
      73                    .dwattr $C$DW$3, DW_AT_decl_file("../Lab03_P3.c")
      74                    .dwattr $C$DW$3, DW_AT_decl_line(0x12)
      75                    .dwattr $C$DW$3, DW_AT_decl_column(0x09)
      76            
      77            
      78            $C$DW$4 .dwtag  DW_TAG_subprogram
      79                    .dwattr $C$DW$4, DW_AT_name("printf")
      80                    .dwattr $C$DW$4, DW_AT_TI_symbol_name("printf")
      81                    .dwattr $C$DW$4, DW_AT_type(*$C$DW$T$10)
      82                    .dwattr $C$DW$4, DW_AT_declaration
      83                    .dwattr $C$DW$4, DW_AT_external
      84                    .dwattr $C$DW$4, DW_AT_decl_file("C:/ti/ccs1200/ccs/tools/compiler/ti-cgt-msp430_21.6.0.LTS/in
      85                    .dwattr $C$DW$4, DW_AT_decl_line(0x100)
      86                    .dwattr $C$DW$4, DW_AT_decl_column(0x19)
      87            $C$DW$5 .dwtag  DW_TAG_formal_parameter
      88                    .dwattr $C$DW$5, DW_AT_type(*$C$DW$T$39)
      89            
      90            $C$DW$6 .dwtag  DW_TAG_unspecified_parameters
      91            
      92                    .dwendtag $C$DW$4
      93            
      94            ;       C:\ti\ccs1200\ccs\tools\compiler\ti-cgt-msp430_21.6.0.LTS\bin\acpia430.exe -@C:\\Users\\chand\
      95 000000               .sect   ".text:main"
      96                    .clink
      97                    .global main
      98            
      99            $C$DW$7 .dwtag  DW_TAG_subprogram
     100                    .dwattr $C$DW$7, DW_AT_name("main")
     101                    .dwattr $C$DW$7, DW_AT_low_pc(main)
     102                    .dwattr $C$DW$7, DW_AT_high_pc(0x00)
     103                    .dwattr $C$DW$7, DW_AT_TI_symbol_name("main")
     104                    .dwattr $C$DW$7, DW_AT_external
     105                    .dwattr $C$DW$7, DW_AT_type(*$C$DW$T$10)
     106                    .dwattr $C$DW$7, DW_AT_TI_begin_file("../Lab03_P3.c")
     107                    .dwattr $C$DW$7, DW_AT_TI_begin_line(0x0e)
     108                    .dwattr $C$DW$7, DW_AT_TI_begin_column(0x05)
     109                    .dwattr $C$DW$7, DW_AT_decl_file("../Lab03_P3.c")
     110                    .dwattr $C$DW$7, DW_AT_decl_line(0x0e)
MSP430 Assembler PC v21.6.0 Mon Aug 29 17:25:18 2022

Copyright (c) 2003-2018 Texas Instruments Incorporated
C:\Users\chand\AppData\Local\Temp\{AB94F83C-4D24-4C8E-BFAA-F9C03CA5D725} PAGE    3

     111                    .dwattr $C$DW$7, DW_AT_decl_column(0x05)
     112                    .dwattr $C$DW$7, DW_AT_TI_max_frame_size(0x3a)
     113                    .dwpsn  file "../Lab03_P3.c",line 14,column 16,is_stmt,address main,isa 0
     114            
     115                    .dwfde $C$DW$CIE, main
     116            $C$DW$8 .dwtag  DW_TAG_variable
     117                    .dwattr $C$DW$8, DW_AT_name("max")
     118                    .dwattr $C$DW$8, DW_AT_TI_symbol_name("max$1")
     119                    .dwattr $C$DW$8, DW_AT_type(*$C$DW$T$11)
     120                    .dwattr $C$DW$8, DW_AT_location[DW_OP_addr max$1]
     121            
     122            
     123            ;*****************************************************************************
     124            ;* FUNCTION NAME: main                                                       *
     125            ;*                                                                           *
     126            ;*   Regs Modified     : SP,SR,r9,r10,r11,r12,r13,r14,r15                    *
     127            ;*   Regs Used         : SP,SR,r9,r10,r11,r12,r13,r14,r15                    *
     128            ;*   Local Frame Size  : 10 Args + 42 Auto + 4 Save = 56 byte                *
     129            ;*****************************************************************************
     130 000000       main:
     131            ;* --------------------------------------------------------------------------*
     132                    .dwcfi  cfa_offset, 2
     133                    .dwcfi  save_reg_to_mem, 16, -2
     134 000000 120A          PUSH.W    r10                   ; [] 
     135                    .dwcfi  cfa_offset, 4
     136                    .dwcfi  save_reg_to_mem, 10, -4
     137 000002 1209          PUSH.W    r9                    ; [] 
     138                    .dwcfi  cfa_offset, 6
     139                    .dwcfi  save_reg_to_mem, 9, -6
     140 000004 8031          SUB.W     #52,SP                ; [] 
         000006 0034 
     141                    .dwcfi  cfa_offset, 58
     142            $C$DW$9 .dwtag  DW_TAG_variable
     143                    .dwattr $C$DW$9, DW_AT_name("z")
     144                    .dwattr $C$DW$9, DW_AT_TI_symbol_name("z")
     145                    .dwattr $C$DW$9, DW_AT_type(*$C$DW$T$124)
     146                    .dwattr $C$DW$9, DW_AT_location[DW_OP_breg1 10]
     147            
     148            $C$DW$10        .dwtag  DW_TAG_variable
     149                    .dwattr $C$DW$10, DW_AT_name("x")
     150                    .dwattr $C$DW$10, DW_AT_TI_symbol_name("x")
     151                    .dwattr $C$DW$10, DW_AT_type(*$C$DW$T$43)
     152                    .dwattr $C$DW$10, DW_AT_location[DW_OP_breg1 30]
     153            
     154            $C$DW$11        .dwtag  DW_TAG_variable
     155                    .dwattr $C$DW$11, DW_AT_name("y")
     156                    .dwattr $C$DW$11, DW_AT_TI_symbol_name("y")
     157                    .dwattr $C$DW$11, DW_AT_type(*$C$DW$T$43)
     158                    .dwattr $C$DW$11, DW_AT_location[DW_OP_breg1 40]
     159            
     160            $C$DW$12        .dwtag  DW_TAG_variable
     161                    .dwattr $C$DW$12, DW_AT_name("i")
     162                    .dwattr $C$DW$12, DW_AT_TI_symbol_name("i")
     163                    .dwattr $C$DW$12, DW_AT_type(*$C$DW$T$11)
     164                    .dwattr $C$DW$12, DW_AT_location[DW_OP_breg1 50]
MSP430 Assembler PC v21.6.0 Mon Aug 29 17:25:18 2022

Copyright (c) 2003-2018 Texas Instruments Incorporated
C:\Users\chand\AppData\Local\Temp\{AB94F83C-4D24-4C8E-BFAA-F9C03CA5D725} PAGE    4

     165            
     166                    .dwpsn  file "../Lab03_P3.c",line 15,column 5,is_stmt,isa 0
     167 000008 40B2          MOV.W     #23168,&WDTCTL+0      ; [] |15| 
         00000a 5A80 
         00000c 0000!
     168                    .dwpsn  file "../Lab03_P3.c",line 17,column 9,is_stmt,isa 0
     169 00000e 410C          MOV.W     SP,r12                ; [] |17| 
     170 000010 503C          ADD.W     #30,r12               ; [] |17| 
         000012 001E 
     171 000014 403D          MOV.W     #$P$T0$2+0,r13        ; [] |17| 
         000016 0000!
     172 000018 403E          MOV.W     #10,r14               ; [] |17| 
         00001a 000A 
     173            $C$DW$13        .dwtag  DW_TAG_TI_branch
     174                    .dwattr $C$DW$13, DW_AT_low_pc(0x00)
     175                    .dwattr $C$DW$13, DW_AT_name("memcpy")
     176                    .dwattr $C$DW$13, DW_AT_TI_call
     177            
     178 00001c 12B0          CALL      #memcpy               ; [] |17| 
         00001e 0000!
     179                                                      ; [] |17| 
     180                    .dwpsn  file "../Lab03_P3.c",line 18,column 9,is_stmt,isa 0
     181 000020 410C          MOV.W     SP,r12                ; [] |18| 
     182 000022 503C          ADD.W     #40,r12               ; [] |18| 
         000024 0028 
     183 000026 403D          MOV.W     #$P$T1$3+0,r13        ; [] |18| 
         000028 0000!
     184 00002a 403E          MOV.W     #10,r14               ; [] |18| 
         00002c 000A 
     185            $C$DW$14        .dwtag  DW_TAG_TI_branch
     186                    .dwattr $C$DW$14, DW_AT_low_pc(0x00)
     187                    .dwattr $C$DW$14, DW_AT_name("memcpy")
     188                    .dwattr $C$DW$14, DW_AT_TI_call
     189            
     190 00002e 12B0          CALL      #memcpy               ; [] |18| 
         000030 0000!
     191                                                      ; [] |18| 
     192                    .dwpsn  file "../Lab03_P3.c",line 20,column 20,is_stmt,isa 0
     193 000032 4381          MOV.W     #0,50(SP)             ; [] |20| 
         000034 0032 
     194                    .dwpsn  file "../Lab03_P3.c",line 24,column 11,is_stmt,isa 0
     195 000036 9291          CMP.W     &max$1+0,50(SP)       ; [] |24| 
         000038 0000!
         00003a 0032 
     196 00003c 2C33          JHS       $C$L2                 ; [] |24| 
     197                                                      ; [] |24| 
     198            ;* --------------------------------------------------------------------------*
     199            ;*   BEGIN LOOP $C$L1
     200            ;*
     201            ;*   Loop source line                : 24
     202            ;*   Loop closing brace source line  : 27
     203            ;*   Known Minimum Trip Count        : 1
     204            ;*   Known Maximum Trip Count        : 4294967295
     205            ;*   Known Max Trip Count Factor     : 1
     206            ;* --------------------------------------------------------------------------*
MSP430 Assembler PC v21.6.0 Mon Aug 29 17:25:18 2022

Copyright (c) 2003-2018 Texas Instruments Incorporated
C:\Users\chand\AppData\Local\Temp\{AB94F83C-4D24-4C8E-BFAA-F9C03CA5D725} PAGE    5

     207 00003e       $C$L1:    
     208                    .dwpsn  file "../Lab03_P3.c",line 25,column 9,is_stmt,isa 0
     209 00003e 411F          MOV.W     50(SP),r15            ; [] |25| 
         000040 0032 
     210 000042 5F0F          RLA.W     r15                   ; [] |25| 
     211 000044 410E          MOV.W     SP,r14                ; [] |25| 
     212 000046 503E          ADD.W     #30,r14               ; [] |25| 
         000048 001E 
     213 00004a 5F0E          ADD.W     r15,r14               ; [] |25| 
     214 00004c 4E2C          MOV.W     @r14,r12              ; [] |25| 
     215            $C$DW$15        .dwtag  DW_TAG_TI_branch
     216                    .dwattr $C$DW$15, DW_AT_low_pc(0x00)
     217                    .dwattr $C$DW$15, DW_AT_name("__mspabi_fltif")
     218                    .dwattr $C$DW$15, DW_AT_TI_call
     219            
     220 00004e 12B0          CALL      #__mspabi_fltif       ; [] |25| 
         000050 0000!
     221                                                      ; [] |25| 
     222 000052 4C09          MOV.W     r12,r9                ; [] |25| 
     223 000054 4D0A          MOV.W     r13,r10               ; [] |25| 
     224 000056 411F          MOV.W     50(SP),r15            ; [] |25| 
         000058 0032 
     225 00005a 5F0F          RLA.W     r15                   ; [] |25| 
     226 00005c 410E          MOV.W     SP,r14                ; [] |25| 
     227 00005e 503E          ADD.W     #40,r14               ; [] |25| 
         000060 0028 
     228 000062 5F0E          ADD.W     r15,r14               ; [] |25| 
     229 000064 4E2C          MOV.W     @r14,r12              ; [] |25| 
     230            $C$DW$16        .dwtag  DW_TAG_TI_branch
     231                    .dwattr $C$DW$16, DW_AT_low_pc(0x00)
     232                    .dwattr $C$DW$16, DW_AT_name("__mspabi_fltif")
     233                    .dwattr $C$DW$16, DW_AT_TI_call
     234            
     235 000066 12B0          CALL      #__mspabi_fltif       ; [] |25| 
         000068 0000!
     236                                                      ; [] |25| 
     237 00006a 4C0E          MOV.W     r12,r14               ; [] |25| 
     238 00006c 4D0F          MOV.W     r13,r15               ; [] |25| 
     239 00006e 490C          MOV.W     r9,r12                ; [] |25| 
     240 000070 4A0D          MOV.W     r10,r13               ; [] |25| 
     241            $C$DW$17        .dwtag  DW_TAG_TI_branch
     242                    .dwattr $C$DW$17, DW_AT_low_pc(0x00)
     243                    .dwattr $C$DW$17, DW_AT_name("__mspabi_addf")
     244                    .dwattr $C$DW$17, DW_AT_TI_call
     245            
     246 000072 12B0          CALL      #__mspabi_addf        ; [] |25| 
         000074 0000!
     247                                                      ; [] |25| 
     248 000076 430E          MOV.W     #0,r14                ; [] |25| 
     249 000078 403F          MOV.W     #16384,r15            ; [] |25| 
         00007a 4000 
     250            $C$DW$18        .dwtag  DW_TAG_TI_branch
     251                    .dwattr $C$DW$18, DW_AT_low_pc(0x00)
     252                    .dwattr $C$DW$18, DW_AT_name("__mspabi_divf")
     253                    .dwattr $C$DW$18, DW_AT_TI_call
MSP430 Assembler PC v21.6.0 Mon Aug 29 17:25:18 2022

Copyright (c) 2003-2018 Texas Instruments Incorporated
C:\Users\chand\AppData\Local\Temp\{AB94F83C-4D24-4C8E-BFAA-F9C03CA5D725} PAGE    6

     254            
     255 00007c 12B0          CALL      #__mspabi_divf        ; [] |25| 
         00007e 0000!
     256                                                      ; [] |25| 
     257 000080 411F          MOV.W     50(SP),r15            ; [] |25| 
         000082 0032 
     258 000084 5F0F          RLA.W     r15                   ; [] |25| 
     259 000086 5F0F          RLA.W     r15                   ; [] |25| 
     260 000088 410E          MOV.W     SP,r14                ; [] |25| 
     261 00008a 503E          ADD.W     #10,r14               ; [] |25| 
         00008c 000A 
     262 00008e 5F0E          ADD.W     r15,r14               ; [] |25| 
     263 000090 4C8E          MOV.W     r12,0(r14)            ; [] |25| 
         000092 0000 
     264 000094 4D8E          MOV.W     r13,2(r14)            ; [] |25| 
         000096 0002 
     265                    .dwpsn  file "../Lab03_P3.c",line 26,column 9,is_stmt,isa 0
     266 000098 5391          ADD.W     #1,50(SP)             ; [] |26| 
         00009a 0032 
     267                    .dwpsn  file "../Lab03_P3.c",line 24,column 11,is_stmt,isa 0
     268 00009c 9291          CMP.W     &max$1+0,50(SP)       ; [] |24| 
         00009e 0000!
         0000a0 0032 
     269 0000a2 2BCD          JLO       $C$L1                 ; [] |24| 
     270                                                      ; [] |24| 
     271            ;* --------------------------------------------------------------------------*
     272 0000a4       $C$L2:    
     273                    .dwpsn  file "../Lab03_P3.c",line 29,column 5,is_stmt,isa 0
     274 0000a4 4381          MOV.W     #0,50(SP)             ; [] |29| 
         0000a6 0032 
     275                    .dwpsn  file "../Lab03_P3.c",line 30,column 5,is_stmt,isa 0
     276 0000a8 40B1          MOV.W     #$C$SL1+0,0(SP)       ; [] |30| 
         0000aa 0000!
         0000ac 0000 
     277            $C$DW$19        .dwtag  DW_TAG_TI_branch
     278                    .dwattr $C$DW$19, DW_AT_low_pc(0x00)
     279                    .dwattr $C$DW$19, DW_AT_name("printf")
     280                    .dwattr $C$DW$19, DW_AT_TI_call
     281            
     282 0000ae 12B0          CALL      #printf               ; [] |30| 
         0000b0 0000!
     283                                                      ; [] |30| 
     284                    .dwpsn  file "../Lab03_P3.c",line 31,column 11,is_stmt,isa 0
     285 0000b2 9291          CMP.W     &max$1+0,50(SP)       ; [] |31| 
         0000b4 0000!
         0000b6 0032 
     286 0000b8 2C1F          JHS       $C$L5                 ; [] |31| 
     287                                                      ; [] |31| 
     288            ;* --------------------------------------------------------------------------*
     289            ;*   BEGIN LOOP $C$L3
     290            ;*
     291            ;*   Loop source line                : 31
     292            ;*   Loop closing brace source line  : 36
     293            ;*   Known Minimum Trip Count        : 1
     294            ;*   Known Maximum Trip Count        : 4294967295
MSP430 Assembler PC v21.6.0 Mon Aug 29 17:25:18 2022

Copyright (c) 2003-2018 Texas Instruments Incorporated
C:\Users\chand\AppData\Local\Temp\{AB94F83C-4D24-4C8E-BFAA-F9C03CA5D725} PAGE    7

     295            ;*   Known Max Trip Count Factor     : 1
     296            ;* --------------------------------------------------------------------------*
     297 0000ba       $C$L3:    
     298                    .dwpsn  file "../Lab03_P3.c",line 32,column 9,is_stmt,isa 0
     299 0000ba 40B1          MOV.W     #$C$SL2+0,0(SP)       ; [] |32| 
         0000bc 0000!
         0000be 0000 
     300 0000c0 411F          MOV.W     50(SP),r15            ; [] |32| 
         0000c2 0032 
     301 0000c4 5F0F          RLA.W     r15                   ; [] |32| 
     302 0000c6 410E          MOV.W     SP,r14                ; [] |32| 
     303 0000c8 503E          ADD.W     #30,r14               ; [] |32| 
         0000ca 001E 
     304 0000cc 5F0E          ADD.W     r15,r14               ; [] |32| 
     305 0000ce 4EA1          MOV.W     @r14,2(SP)            ; [] |32| 
         0000d0 0002 
     306            $C$DW$20        .dwtag  DW_TAG_TI_branch
     307                    .dwattr $C$DW$20, DW_AT_low_pc(0x00)
     308                    .dwattr $C$DW$20, DW_AT_name("printf")
     309                    .dwattr $C$DW$20, DW_AT_TI_call
     310            
     311 0000d2 12B0          CALL      #printf               ; [] |32| 
         0000d4 0000!
     312                                                      ; [] |32| 
     313                    .dwpsn  file "../Lab03_P3.c",line 33,column 9,is_stmt,isa 0
     314 0000d6 421F          MOV.W     &max$1+0,r15          ; [] |33| 
         0000d8 0000!
     315 0000da 831F          SUB.W     #1,r15                ; [] |33| 
     316 0000dc 9F81          CMP.W     r15,50(SP)            ; [] |33| 
         0000de 0032 
     317 0000e0 2C05          JHS       $C$L4                 ; [] |33| 
     318                                                      ; [] |33| 
     319            ;* --------------------------------------------------------------------------*
     320                    .dwpsn  file "../Lab03_P3.c",line 34,column 13,is_stmt,isa 0
     321 0000e2 40B1          MOV.W     #$C$SL3+0,0(SP)       ; [] |34| 
         0000e4 0000!
         0000e6 0000 
     322            $C$DW$21        .dwtag  DW_TAG_TI_branch
     323                    .dwattr $C$DW$21, DW_AT_low_pc(0x00)
     324                    .dwattr $C$DW$21, DW_AT_name("printf")
     325                    .dwattr $C$DW$21, DW_AT_TI_call
     326            
     327 0000e8 12B0          CALL      #printf               ; [] |34| 
         0000ea 0000!
     328                                                      ; [] |34| 
     329            ;* --------------------------------------------------------------------------*
     330 0000ec       $C$L4:    
     331                    .dwpsn  file "../Lab03_P3.c",line 35,column 9,is_stmt,isa 0
     332 0000ec 5391          ADD.W     #1,50(SP)             ; [] |35| 
         0000ee 0032 
     333                    .dwpsn  file "../Lab03_P3.c",line 31,column 11,is_stmt,isa 0
     334 0000f0 9291          CMP.W     &max$1+0,50(SP)       ; [] |31| 
         0000f2 0000!
         0000f4 0032 
     335 0000f6 2BE1          JLO       $C$L3                 ; [] |31| 
MSP430 Assembler PC v21.6.0 Mon Aug 29 17:25:18 2022

Copyright (c) 2003-2018 Texas Instruments Incorporated
C:\Users\chand\AppData\Local\Temp\{AB94F83C-4D24-4C8E-BFAA-F9C03CA5D725} PAGE    8

     336                                                      ; [] |31| 
     337            ;* --------------------------------------------------------------------------*
     338 0000f8       $C$L5:    
     339                    .dwpsn  file "../Lab03_P3.c",line 38,column 5,is_stmt,isa 0
     340 0000f8 40B1          MOV.W     #$C$SL4+0,0(SP)       ; [] |38| 
         0000fa 0000!
         0000fc 0000 
     341            $C$DW$22        .dwtag  DW_TAG_TI_branch
     342                    .dwattr $C$DW$22, DW_AT_low_pc(0x00)
     343                    .dwattr $C$DW$22, DW_AT_name("printf")
     344                    .dwattr $C$DW$22, DW_AT_TI_call
     345            
     346 0000fe 12B0          CALL      #printf               ; [] |38| 
         000100 0000!
     347                                                      ; [] |38| 
     348                    .dwpsn  file "../Lab03_P3.c",line 39,column 5,is_stmt,isa 0
     349 000102 4381          MOV.W     #0,50(SP)             ; [] |39| 
         000104 0032 
     350                    .dwpsn  file "../Lab03_P3.c",line 40,column 11,is_stmt,isa 0
     351 000106 9291          CMP.W     &max$1+0,50(SP)       ; [] |40| 
         000108 0000!
         00010a 0032 
     352 00010c 2C1F          JHS       $C$L8                 ; [] |40| 
     353                                                      ; [] |40| 
     354            ;* --------------------------------------------------------------------------*
     355            ;*   BEGIN LOOP $C$L6
     356            ;*
     357            ;*   Loop source line                : 40
     358            ;*   Loop closing brace source line  : 45
     359            ;*   Known Minimum Trip Count        : 1
     360            ;*   Known Maximum Trip Count        : 4294967295
     361            ;*   Known Max Trip Count Factor     : 1
     362            ;* --------------------------------------------------------------------------*
     363 00010e       $C$L6:    
     364                    .dwpsn  file "../Lab03_P3.c",line 41,column 9,is_stmt,isa 0
     365 00010e 40B1          MOV.W     #$C$SL2+0,0(SP)       ; [] |41| 
         000110 0000!
         000112 0000 
     366 000114 411F          MOV.W     50(SP),r15            ; [] |41| 
         000116 0032 
     367 000118 5F0F          RLA.W     r15                   ; [] |41| 
     368 00011a 410E          MOV.W     SP,r14                ; [] |41| 
     369 00011c 503E          ADD.W     #40,r14               ; [] |41| 
         00011e 0028 
     370 000120 5F0E          ADD.W     r15,r14               ; [] |41| 
     371 000122 4EA1          MOV.W     @r14,2(SP)            ; [] |41| 
         000124 0002 
     372            $C$DW$23        .dwtag  DW_TAG_TI_branch
     373                    .dwattr $C$DW$23, DW_AT_low_pc(0x00)
     374                    .dwattr $C$DW$23, DW_AT_name("printf")
     375                    .dwattr $C$DW$23, DW_AT_TI_call
     376            
     377 000126 12B0          CALL      #printf               ; [] |41| 
         000128 0000!
     378                                                      ; [] |41| 
MSP430 Assembler PC v21.6.0 Mon Aug 29 17:25:18 2022

Copyright (c) 2003-2018 Texas Instruments Incorporated
C:\Users\chand\AppData\Local\Temp\{AB94F83C-4D24-4C8E-BFAA-F9C03CA5D725} PAGE    9

     379                    .dwpsn  file "../Lab03_P3.c",line 42,column 9,is_stmt,isa 0
     380 00012a 421F          MOV.W     &max$1+0,r15          ; [] |42| 
         00012c 0000!
     381 00012e 831F          SUB.W     #1,r15                ; [] |42| 
     382 000130 9F81          CMP.W     r15,50(SP)            ; [] |42| 
         000132 0032 
     383 000134 2C05          JHS       $C$L7                 ; [] |42| 
     384                                                      ; [] |42| 
     385            ;* --------------------------------------------------------------------------*
     386                    .dwpsn  file "../Lab03_P3.c",line 43,column 13,is_stmt,isa 0
     387 000136 40B1          MOV.W     #$C$SL3+0,0(SP)       ; [] |43| 
         000138 0000!
         00013a 0000 
     388            $C$DW$24        .dwtag  DW_TAG_TI_branch
     389                    .dwattr $C$DW$24, DW_AT_low_pc(0x00)
     390                    .dwattr $C$DW$24, DW_AT_name("printf")
     391                    .dwattr $C$DW$24, DW_AT_TI_call
     392            
     393 00013c 12B0          CALL      #printf               ; [] |43| 
         00013e 0000!
     394                                                      ; [] |43| 
     395            ;* --------------------------------------------------------------------------*
     396 000140       $C$L7:    
     397                    .dwpsn  file "../Lab03_P3.c",line 44,column 9,is_stmt,isa 0
     398 000140 5391          ADD.W     #1,50(SP)             ; [] |44| 
         000142 0032 
     399                    .dwpsn  file "../Lab03_P3.c",line 40,column 11,is_stmt,isa 0
     400 000144 9291          CMP.W     &max$1+0,50(SP)       ; [] |40| 
         000146 0000!
         000148 0032 
     401 00014a 2BE1          JLO       $C$L6                 ; [] |40| 
     402                                                      ; [] |40| 
     403            ;* --------------------------------------------------------------------------*
     404 00014c       $C$L8:    
     405                    .dwpsn  file "../Lab03_P3.c",line 47,column 5,is_stmt,isa 0
     406 00014c 40B1          MOV.W     #$C$SL5+0,0(SP)       ; [] |47| 
         00014e 0000!
         000150 0000 
     407            $C$DW$25        .dwtag  DW_TAG_TI_branch
     408                    .dwattr $C$DW$25, DW_AT_low_pc(0x00)
     409                    .dwattr $C$DW$25, DW_AT_name("printf")
     410                    .dwattr $C$DW$25, DW_AT_TI_call
     411            
     412 000152 12B0          CALL      #printf               ; [] |47| 
         000154 0000!
     413                                                      ; [] |47| 
     414                    .dwpsn  file "../Lab03_P3.c",line 48,column 5,is_stmt,isa 0
     415 000156 4381          MOV.W     #0,50(SP)             ; [] |48| 
         000158 0032 
     416                    .dwpsn  file "../Lab03_P3.c",line 49,column 11,is_stmt,isa 0
     417 00015a 9291          CMP.W     &max$1+0,50(SP)       ; [] |49| 
         00015c 0000!
         00015e 0032 
     418 000160 2C2B          JHS       $C$L11                ; [] |49| 
     419                                                      ; [] |49| 
MSP430 Assembler PC v21.6.0 Mon Aug 29 17:25:18 2022

Copyright (c) 2003-2018 Texas Instruments Incorporated
C:\Users\chand\AppData\Local\Temp\{AB94F83C-4D24-4C8E-BFAA-F9C03CA5D725} PAGE   10

     420            ;* --------------------------------------------------------------------------*
     421            ;*   BEGIN LOOP $C$L9
     422            ;*
     423            ;*   Loop source line                : 49
     424            ;*   Loop closing brace source line  : 54
     425            ;*   Known Minimum Trip Count        : 1
     426            ;*   Known Maximum Trip Count        : 4294967295
     427            ;*   Known Max Trip Count Factor     : 1
     428            ;* --------------------------------------------------------------------------*
     429 000162       $C$L9:    
     430                    .dwpsn  file "../Lab03_P3.c",line 50,column 9,is_stmt,isa 0
     431 000162 411F          MOV.W     50(SP),r15            ; [] |50| 
         000164 0032 
     432 000166 5F0F          RLA.W     r15                   ; [] |50| 
     433 000168 5F0F          RLA.W     r15                   ; [] |50| 
     434 00016a 410E          MOV.W     SP,r14                ; [] |50| 
     435 00016c 503E          ADD.W     #10,r14               ; [] |50| 
         00016e 000A 
     436 000170 5F0E          ADD.W     r15,r14               ; [] |50| 
     437 000172 4E2C          MOV.W     @r14,r12              ; [] |50| 
     438 000174 4E1D          MOV.W     2(r14),r13            ; [] |50| 
         000176 0002 
     439            $C$DW$26        .dwtag  DW_TAG_TI_branch
     440                    .dwattr $C$DW$26, DW_AT_low_pc(0x00)
     441                    .dwattr $C$DW$26, DW_AT_name("__mspabi_cvtfd")
     442                    .dwattr $C$DW$26, DW_AT_TI_call
     443            
     444 000178 12B0          CALL      #__mspabi_cvtfd       ; [] |50| 
         00017a 0000!
     445                                                      ; [] |50| 
     446 00017c 40B1          MOV.W     #$C$SL6+0,0(SP)       ; [] |50| 
         00017e 0000!
         000180 0000 
     447 000182 4C81          MOV.W     r12,2(SP)             ; [] |50| 
         000184 0002 
     448 000186 4D81          MOV.W     r13,4(SP)             ; [] |50| 
         000188 0004 
     449 00018a 4E81          MOV.W     r14,6(SP)             ; [] |50| 
         00018c 0006 
     450 00018e 4F81          MOV.W     r15,8(SP)             ; [] |50| 
         000190 0008 
     451            $C$DW$27        .dwtag  DW_TAG_TI_branch
     452                    .dwattr $C$DW$27, DW_AT_low_pc(0x00)
     453                    .dwattr $C$DW$27, DW_AT_name("printf")
     454                    .dwattr $C$DW$27, DW_AT_TI_call
     455            
     456 000192 12B0          CALL      #printf               ; [] |50| 
         000194 0000!
     457                                                      ; [] |50| 
     458                    .dwpsn  file "../Lab03_P3.c",line 51,column 9,is_stmt,isa 0
     459 000196 421F          MOV.W     &max$1+0,r15          ; [] |51| 
         000198 0000!
     460 00019a 831F          SUB.W     #1,r15                ; [] |51| 
     461 00019c 9F81          CMP.W     r15,50(SP)            ; [] |51| 
         00019e 0032 
MSP430 Assembler PC v21.6.0 Mon Aug 29 17:25:18 2022

Copyright (c) 2003-2018 Texas Instruments Incorporated
C:\Users\chand\AppData\Local\Temp\{AB94F83C-4D24-4C8E-BFAA-F9C03CA5D725} PAGE   11

     462 0001a0 2C05          JHS       $C$L10                ; [] |51| 
     463                                                      ; [] |51| 
     464            ;* --------------------------------------------------------------------------*
     465                    .dwpsn  file "../Lab03_P3.c",line 52,column 13,is_stmt,isa 0
     466 0001a2 40B1          MOV.W     #$C$SL3+0,0(SP)       ; [] |52| 
         0001a4 0000!
         0001a6 0000 
     467            $C$DW$28        .dwtag  DW_TAG_TI_branch
     468                    .dwattr $C$DW$28, DW_AT_low_pc(0x00)
     469                    .dwattr $C$DW$28, DW_AT_name("printf")
     470                    .dwattr $C$DW$28, DW_AT_TI_call
     471            
     472 0001a8 12B0          CALL      #printf               ; [] |52| 
         0001aa 0000!
     473                                                      ; [] |52| 
     474            ;* --------------------------------------------------------------------------*
     475 0001ac       $C$L10:    
     476                    .dwpsn  file "../Lab03_P3.c",line 53,column 9,is_stmt,isa 0
     477 0001ac 5391          ADD.W     #1,50(SP)             ; [] |53| 
         0001ae 0032 
     478                    .dwpsn  file "../Lab03_P3.c",line 49,column 11,is_stmt,isa 0
     479 0001b0 9291          CMP.W     &max$1+0,50(SP)       ; [] |49| 
         0001b2 0000!
         0001b4 0032 
     480 0001b6 2BD5          JLO       $C$L9                 ; [] |49| 
     481                                                      ; [] |49| 
     482            ;* --------------------------------------------------------------------------*
     483 0001b8       $C$L11:    
     484                    .dwpsn  file "../Lab03_P3.c",line 55,column 5,is_stmt,isa 0
     485 0001b8 40B1          MOV.W     #$C$SL7+0,0(SP)       ; [] |55| 
         0001ba 0000!
         0001bc 0000 
     486            $C$DW$29        .dwtag  DW_TAG_TI_branch
     487                    .dwattr $C$DW$29, DW_AT_low_pc(0x00)
     488                    .dwattr $C$DW$29, DW_AT_name("printf")
     489                    .dwattr $C$DW$29, DW_AT_TI_call
     490            
     491 0001be 12B0          CALL      #printf               ; [] |55| 
         0001c0 0000!
     492                                                      ; [] |55| 
     493                    .dwpsn  file "../Lab03_P3.c",line 56,column 5,is_stmt,isa 0
     494 0001c2 430C          MOV.W     #0,r12                ; [] |56| 
     495                    .dwpsn  file "../Lab03_P3.c",line 57,column 1,is_stmt,isa 0
     496 0001c4 5031          ADD.W     #52,SP                ; [] 
         0001c6 0034 
     497                    .dwcfi  cfa_offset, 6
     498            $C$DW$30        .dwtag  DW_TAG_TI_branch
     499                    .dwattr $C$DW$30, DW_AT_low_pc(0x00)
     500                    .dwattr $C$DW$30, DW_AT_TI_return
     501            
     502 0001c8 4030          BR        #__mspabi_func_epilog_2 ; [] 
         0001ca 0000!
     503                    ; [] 
     504                    .dwattr $C$DW$7, DW_AT_TI_end_file("../Lab03_P3.c")
     505                    .dwattr $C$DW$7, DW_AT_TI_end_line(0x39)
MSP430 Assembler PC v21.6.0 Mon Aug 29 17:25:18 2022

Copyright (c) 2003-2018 Texas Instruments Incorporated
C:\Users\chand\AppData\Local\Temp\{AB94F83C-4D24-4C8E-BFAA-F9C03CA5D725} PAGE   12

     506                    .dwattr $C$DW$7, DW_AT_TI_end_column(0x01)
     507                    .dwendentry
     508                    .dwendtag $C$DW$7
     509            
     510            ;******************************************************************************
     511            ;* STRINGS                                                                    *
     512            ;******************************************************************************
     513 000000               .sect   ".const:.string"
     514                    .align  2
     515 000000 0049  $C$SL1: .string "Input Array x: [",0
         000001 006E 
         000002 0070 
         000003 0075 
         000004 0074 
         000005 0020 
         000006 0041 
         000007 0072 
         000008 0072 
         000009 0061 
         00000a 0079 
         00000b 0020 
         00000c 0078 
         00000d 003A 
         00000e 0020 
         00000f 005B 
         000010 0000 
     516                    .align  2
     517 000012 0025  $C$SL2: .string "%i",0
         000013 0069 
         000014 0000 
     518                    .align  2
     519 000016 0020  $C$SL3: .string " ",0
         000017 0000 
     520                    .align  2
     521 000018 005D  $C$SL4: .string "]",10,"Input Array y: [",0
         000019 000A 
         00001a 0049 
         00001b 006E 
         00001c 0070 
         00001d 0075 
         00001e 0074 
         00001f 0020 
         000020 0041 
         000021 0072 
         000022 0072 
         000023 0061 
         000024 0079 
         000025 0020 
         000026 0079 
         000027 003A 
         000028 0020 
         000029 005B 
         00002a 0000 
     522                    .align  2
     523 00002c 005D  $C$SL5: .string "]",10,"Output Array z: [",0
MSP430 Assembler PC v21.6.0 Mon Aug 29 17:25:18 2022

Copyright (c) 2003-2018 Texas Instruments Incorporated
C:\Users\chand\AppData\Local\Temp\{AB94F83C-4D24-4C8E-BFAA-F9C03CA5D725} PAGE   13

         00002d 000A 
         00002e 004F 
         00002f 0075 
         000030 0074 
         000031 0070 
         000032 0075 
         000033 0074 
         000034 0020 
         000035 0041 
         000036 0072 
         000037 0072 
         000038 0061 
         000039 0079 
         00003a 0020 
         00003b 007A 
         00003c 003A 
         00003d 0020 
         00003e 005B 
         00003f 0000 
     524                    .align  2
     525 000040 0025  $C$SL6: .string "%.2f",0
         000041 002E 
         000042 0032 
         000043 0066 
         000044 0000 
     526                    .align  2
     527 000046 005D  $C$SL7: .string "]",0
         000047 0000 
     528            ;*****************************************************************************
     529            ;* UNDEFINED EXTERNAL REFERENCES                                             *
     530            ;*****************************************************************************
     531                    .global WDTCTL
     532                    .global printf
     533                    .global __mspabi_cvtfd
     534                    .global memcpy
     535                    .global __mspabi_divf
     536                    .global __mspabi_fltif
     537                    .global __mspabi_addf
     538                    .global __mspabi_func_epilog_2
     539            
     540            ;******************************************************************************
     541            ;* BUILD ATTRIBUTES                                                           *
     542            ;******************************************************************************
     543                    .battr "TI", Tag_File, 1, Tag_LPM_INFO(1)
     544                    .battr "TI", Tag_File, 1, Tag_PORTS_INIT_INFO("012345678901ABCDEFGHIJ0000000000001111000000000
     545                    .battr "TI", Tag_File, 1, Tag_LEA_INFO(1)
     546                    .battr "TI", Tag_File, 1, Tag_HW_MPY32_INFO(2)
     547                    .battr "TI", Tag_File, 1, Tag_HW_MPY_ISR_INFO(1)
     548                    .battr "TI", Tag_File, 1, Tag_HW_MPY_INLINE_INFO(1)
     549                    .battr "mspabi", Tag_File, 1, Tag_enum_size(3)
     550            
     551            ;******************************************************************************
     552            ;* TYPE INFORMATION                                                           *
     553            ;******************************************************************************
     554            
MSP430 Assembler PC v21.6.0 Mon Aug 29 17:25:18 2022

Copyright (c) 2003-2018 Texas Instruments Incorporated
C:\Users\chand\AppData\Local\Temp\{AB94F83C-4D24-4C8E-BFAA-F9C03CA5D725} PAGE   14

     555            $C$DW$T$21      .dwtag  DW_TAG_structure_type
     556                    .dwattr $C$DW$T$21, DW_AT_byte_size(0x10)
     557            $C$DW$31        .dwtag  DW_TAG_member
     558                    .dwattr $C$DW$31, DW_AT_type(*$C$DW$T$14)
     559                    .dwattr $C$DW$31, DW_AT_name("__max_align1")
     560                    .dwattr $C$DW$31, DW_AT_TI_symbol_name("__max_align1")
     561                    .dwattr $C$DW$31, DW_AT_data_member_location[DW_OP_plus_uconst 0x0]
     562                    .dwattr $C$DW$31, DW_AT_accessibility(DW_ACCESS_public)
     563                    .dwattr $C$DW$31, DW_AT_decl_file("C:/ti/ccs1200/ccs/tools/compiler/ti-cgt-msp430_21.6.0.LTS/i
     564                    .dwattr $C$DW$31, DW_AT_decl_line(0x7b)
     565                    .dwattr $C$DW$31, DW_AT_decl_column(0x0c)
     566            
     567            $C$DW$32        .dwtag  DW_TAG_member
     568                    .dwattr $C$DW$32, DW_AT_type(*$C$DW$T$18)
     569                    .dwattr $C$DW$32, DW_AT_name("__max_align2")
     570                    .dwattr $C$DW$32, DW_AT_TI_symbol_name("__max_align2")
     571                    .dwattr $C$DW$32, DW_AT_data_member_location[DW_OP_plus_uconst 0x8]
     572                    .dwattr $C$DW$32, DW_AT_accessibility(DW_ACCESS_public)
     573                    .dwattr $C$DW$32, DW_AT_decl_file("C:/ti/ccs1200/ccs/tools/compiler/ti-cgt-msp430_21.6.0.LTS/i
     574                    .dwattr $C$DW$32, DW_AT_decl_line(0x7c)
     575                    .dwattr $C$DW$32, DW_AT_decl_column(0x0e)
     576            
     577                    .dwattr $C$DW$T$21, DW_AT_decl_file("C:/ti/ccs1200/ccs/tools/compiler/ti-cgt-msp430_21.6.0.LTS
     578                    .dwattr $C$DW$T$21, DW_AT_decl_line(0x7a)
     579                    .dwattr $C$DW$T$21, DW_AT_decl_column(0x10)
     580                    .dwendtag $C$DW$T$21
     581            
     582            $C$DW$T$24      .dwtag  DW_TAG_typedef
     583                    .dwattr $C$DW$T$24, DW_AT_name("__max_align_t")
     584                    .dwattr $C$DW$T$24, DW_AT_type(*$C$DW$T$21)
     585                    .dwattr $C$DW$T$24, DW_AT_language(DW_LANG_C)
     586                    .dwattr $C$DW$T$24, DW_AT_decl_file("C:/ti/ccs1200/ccs/tools/compiler/ti-cgt-msp430_21.6.0.LTS
     587                    .dwattr $C$DW$T$24, DW_AT_decl_line(0x7d)
     588                    .dwattr $C$DW$T$24, DW_AT_decl_column(0x03)
     589            
     590            $C$DW$T$2       .dwtag  DW_TAG_unspecified_type
     591                    .dwattr $C$DW$T$2, DW_AT_name("void")
     592            
     593            
     594            $C$DW$T$25      .dwtag  DW_TAG_subroutine_type
     595                    .dwattr $C$DW$T$25, DW_AT_language(DW_LANG_C)
     596                    .dwendtag $C$DW$T$25
     597            
     598            $C$DW$T$26      .dwtag  DW_TAG_pointer_type
     599                    .dwattr $C$DW$T$26, DW_AT_type(*$C$DW$T$25)
     600                    .dwattr $C$DW$T$26, DW_AT_address_class(0x10)
     601            
     602            $C$DW$T$27      .dwtag  DW_TAG_typedef
     603                    .dwattr $C$DW$T$27, DW_AT_name("__SFR_FARPTR")
     604                    .dwattr $C$DW$T$27, DW_AT_type(*$C$DW$T$26)
     605                    .dwattr $C$DW$T$27, DW_AT_language(DW_LANG_C)
     606                    .dwattr $C$DW$T$27, DW_AT_decl_file("C:\ti\ccs1200\ccs\ccs_base\msp430\include\msp430f5529.h")
     607                    .dwattr $C$DW$T$27, DW_AT_decl_line(0x4a)
     608                    .dwattr $C$DW$T$27, DW_AT_decl_column(0x11)
     609            
MSP430 Assembler PC v21.6.0 Mon Aug 29 17:25:18 2022

Copyright (c) 2003-2018 Texas Instruments Incorporated
C:\Users\chand\AppData\Local\Temp\{AB94F83C-4D24-4C8E-BFAA-F9C03CA5D725} PAGE   15

     610            $C$DW$T$4       .dwtag  DW_TAG_base_type
     611                    .dwattr $C$DW$T$4, DW_AT_encoding(DW_ATE_boolean)
     612                    .dwattr $C$DW$T$4, DW_AT_name("bool")
     613                    .dwattr $C$DW$T$4, DW_AT_byte_size(0x01)
     614            
     615            $C$DW$T$5       .dwtag  DW_TAG_base_type
     616                    .dwattr $C$DW$T$5, DW_AT_encoding(DW_ATE_signed_char)
     617                    .dwattr $C$DW$T$5, DW_AT_name("signed char")
     618                    .dwattr $C$DW$T$5, DW_AT_byte_size(0x01)
     619            
     620            $C$DW$T$28      .dwtag  DW_TAG_typedef
     621                    .dwattr $C$DW$T$28, DW_AT_name("__int8_t")
     622                    .dwattr $C$DW$T$28, DW_AT_type(*$C$DW$T$5)
     623                    .dwattr $C$DW$T$28, DW_AT_language(DW_LANG_C)
     624                    .dwattr $C$DW$T$28, DW_AT_decl_file("C:/ti/ccs1200/ccs/tools/compiler/ti-cgt-msp430_21.6.0.LTS
     625                    .dwattr $C$DW$T$28, DW_AT_decl_line(0x36)
     626                    .dwattr $C$DW$T$28, DW_AT_decl_column(0x16)
     627            
     628            $C$DW$T$29      .dwtag  DW_TAG_typedef
     629                    .dwattr $C$DW$T$29, DW_AT_name("__int_least8_t")
     630                    .dwattr $C$DW$T$29, DW_AT_type(*$C$DW$T$28)
     631                    .dwattr $C$DW$T$29, DW_AT_language(DW_LANG_C)
     632                    .dwattr $C$DW$T$29, DW_AT_decl_file("C:/ti/ccs1200/ccs/tools/compiler/ti-cgt-msp430_21.6.0.LTS
     633                    .dwattr $C$DW$T$29, DW_AT_decl_line(0x5a)
     634                    .dwattr $C$DW$T$29, DW_AT_decl_column(0x12)
     635            
     636            $C$DW$T$6       .dwtag  DW_TAG_base_type
     637                    .dwattr $C$DW$T$6, DW_AT_encoding(DW_ATE_unsigned_char)
     638                    .dwattr $C$DW$T$6, DW_AT_name("unsigned char")
     639                    .dwattr $C$DW$T$6, DW_AT_byte_size(0x01)
     640            
     641            $C$DW$T$22      .dwtag  DW_TAG_pointer_type
     642                    .dwattr $C$DW$T$22, DW_AT_type(*$C$DW$T$6)
     643                    .dwattr $C$DW$T$22, DW_AT_address_class(0x10)
     644            
     645            $C$DW$T$30      .dwtag  DW_TAG_typedef
     646                    .dwattr $C$DW$T$30, DW_AT_name("__uint8_t")
     647                    .dwattr $C$DW$T$30, DW_AT_type(*$C$DW$T$6)
     648                    .dwattr $C$DW$T$30, DW_AT_language(DW_LANG_C)
     649                    .dwattr $C$DW$T$30, DW_AT_decl_file("C:/ti/ccs1200/ccs/tools/compiler/ti-cgt-msp430_21.6.0.LTS
     650                    .dwattr $C$DW$T$30, DW_AT_decl_line(0x37)
     651                    .dwattr $C$DW$T$30, DW_AT_decl_column(0x18)
     652            
     653            $C$DW$T$31      .dwtag  DW_TAG_typedef
     654                    .dwattr $C$DW$T$31, DW_AT_name("__sa_family_t")
     655                    .dwattr $C$DW$T$31, DW_AT_type(*$C$DW$T$30)
     656                    .dwattr $C$DW$T$31, DW_AT_language(DW_LANG_C)
     657                    .dwattr $C$DW$T$31, DW_AT_decl_file("C:/ti/ccs1200/ccs/tools/compiler/ti-cgt-msp430_21.6.0.LTS
     658                    .dwattr $C$DW$T$31, DW_AT_decl_line(0x47)
     659                    .dwattr $C$DW$T$31, DW_AT_decl_column(0x13)
     660            
     661            $C$DW$T$32      .dwtag  DW_TAG_typedef
     662                    .dwattr $C$DW$T$32, DW_AT_name("__uint_least8_t")
     663                    .dwattr $C$DW$T$32, DW_AT_type(*$C$DW$T$30)
     664                    .dwattr $C$DW$T$32, DW_AT_language(DW_LANG_C)
MSP430 Assembler PC v21.6.0 Mon Aug 29 17:25:18 2022

Copyright (c) 2003-2018 Texas Instruments Incorporated
C:\Users\chand\AppData\Local\Temp\{AB94F83C-4D24-4C8E-BFAA-F9C03CA5D725} PAGE   16

     665                    .dwattr $C$DW$T$32, DW_AT_decl_file("C:/ti/ccs1200/ccs/tools/compiler/ti-cgt-msp430_21.6.0.LTS
     666                    .dwattr $C$DW$T$32, DW_AT_decl_line(0x74)
     667                    .dwattr $C$DW$T$32, DW_AT_decl_column(0x13)
     668            
     669            $C$DW$T$7       .dwtag  DW_TAG_base_type
     670                    .dwattr $C$DW$T$7, DW_AT_encoding(DW_ATE_signed_char)
     671                    .dwattr $C$DW$T$7, DW_AT_name("wchar_t")
     672                    .dwattr $C$DW$T$7, DW_AT_byte_size(0x02)
     673            
     674            $C$DW$T$8       .dwtag  DW_TAG_base_type
     675                    .dwattr $C$DW$T$8, DW_AT_encoding(DW_ATE_signed)
     676                    .dwattr $C$DW$T$8, DW_AT_name("short")
     677                    .dwattr $C$DW$T$8, DW_AT_byte_size(0x02)
     678            
     679            $C$DW$T$9       .dwtag  DW_TAG_base_type
     680                    .dwattr $C$DW$T$9, DW_AT_encoding(DW_ATE_unsigned)
     681                    .dwattr $C$DW$T$9, DW_AT_name("unsigned short")
     682                    .dwattr $C$DW$T$9, DW_AT_byte_size(0x02)
     683            
     684            $C$DW$T$10      .dwtag  DW_TAG_base_type
     685                    .dwattr $C$DW$T$10, DW_AT_encoding(DW_ATE_signed)
     686                    .dwattr $C$DW$T$10, DW_AT_name("int")
     687                    .dwattr $C$DW$T$10, DW_AT_byte_size(0x02)
     688            
     689            $C$DW$T$33      .dwtag  DW_TAG_typedef
     690                    .dwattr $C$DW$T$33, DW_AT_name("_Mbstatet")
     691                    .dwattr $C$DW$T$33, DW_AT_type(*$C$DW$T$10)
     692                    .dwattr $C$DW$T$33, DW_AT_language(DW_LANG_C)
     693                    .dwattr $C$DW$T$33, DW_AT_decl_file("C:/ti/ccs1200/ccs/tools/compiler/ti-cgt-msp430_21.6.0.LTS
     694                    .dwattr $C$DW$T$33, DW_AT_decl_line(0x8f)
     695                    .dwattr $C$DW$T$33, DW_AT_decl_column(0x0d)
     696            
     697            $C$DW$T$34      .dwtag  DW_TAG_typedef
     698                    .dwattr $C$DW$T$34, DW_AT_name("__mbstate_t")
     699                    .dwattr $C$DW$T$34, DW_AT_type(*$C$DW$T$33)
     700                    .dwattr $C$DW$T$34, DW_AT_language(DW_LANG_C)
     701                    .dwattr $C$DW$T$34, DW_AT_decl_file("C:/ti/ccs1200/ccs/tools/compiler/ti-cgt-msp430_21.6.0.LTS
     702                    .dwattr $C$DW$T$34, DW_AT_decl_line(0x92)
     703                    .dwattr $C$DW$T$34, DW_AT_decl_column(0x13)
     704            
     705            $C$DW$T$35      .dwtag  DW_TAG_typedef
     706                    .dwattr $C$DW$T$35, DW_AT_name("__accmode_t")
     707                    .dwattr $C$DW$T$35, DW_AT_type(*$C$DW$T$10)
     708                    .dwattr $C$DW$T$35, DW_AT_language(DW_LANG_C)
     709                    .dwattr $C$DW$T$35, DW_AT_decl_file("C:/ti/ccs1200/ccs/tools/compiler/ti-cgt-msp430_21.6.0.LTS
     710                    .dwattr $C$DW$T$35, DW_AT_decl_line(0x3b)
     711                    .dwattr $C$DW$T$35, DW_AT_decl_column(0x0e)
     712            
     713            
     714            $C$DW$T$43      .dwtag  DW_TAG_array_type
     715                    .dwattr $C$DW$T$43, DW_AT_type(*$C$DW$T$10)
     716                    .dwattr $C$DW$T$43, DW_AT_language(DW_LANG_C)
     717                    .dwattr $C$DW$T$43, DW_AT_byte_size(0x0a)
     718            $C$DW$33        .dwtag  DW_TAG_subrange_type
     719                    .dwattr $C$DW$33, DW_AT_upper_bound(0x04)
MSP430 Assembler PC v21.6.0 Mon Aug 29 17:25:18 2022

Copyright (c) 2003-2018 Texas Instruments Incorporated
C:\Users\chand\AppData\Local\Temp\{AB94F83C-4D24-4C8E-BFAA-F9C03CA5D725} PAGE   17

     720            
     721                    .dwendtag $C$DW$T$43
     722            
     723            $C$DW$T$44      .dwtag  DW_TAG_const_type
     724                    .dwattr $C$DW$T$44, DW_AT_type(*$C$DW$T$10)
     725            
     726            
     727            $C$DW$T$45      .dwtag  DW_TAG_array_type
     728                    .dwattr $C$DW$T$45, DW_AT_type(*$C$DW$T$44)
     729                    .dwattr $C$DW$T$45, DW_AT_language(DW_LANG_C)
     730                    .dwattr $C$DW$T$45, DW_AT_byte_size(0x0a)
     731            $C$DW$34        .dwtag  DW_TAG_subrange_type
     732                    .dwattr $C$DW$34, DW_AT_upper_bound(0x04)
     733            
     734                    .dwendtag $C$DW$T$45
     735            
     736            $C$DW$T$47      .dwtag  DW_TAG_typedef
     737                    .dwattr $C$DW$T$47, DW_AT_name("__cpulevel_t")
     738                    .dwattr $C$DW$T$47, DW_AT_type(*$C$DW$T$10)
     739                    .dwattr $C$DW$T$47, DW_AT_language(DW_LANG_C)
     740                    .dwattr $C$DW$T$47, DW_AT_decl_file("C:/ti/ccs1200/ccs/tools/compiler/ti-cgt-msp430_21.6.0.LTS
     741                    .dwattr $C$DW$T$47, DW_AT_decl_line(0x50)
     742                    .dwattr $C$DW$T$47, DW_AT_decl_column(0x0e)
     743            
     744            $C$DW$T$48      .dwtag  DW_TAG_typedef
     745                    .dwattr $C$DW$T$48, DW_AT_name("__cpusetid_t")
     746                    .dwattr $C$DW$T$48, DW_AT_type(*$C$DW$T$10)
     747                    .dwattr $C$DW$T$48, DW_AT_language(DW_LANG_C)
     748                    .dwattr $C$DW$T$48, DW_AT_decl_file("C:/ti/ccs1200/ccs/tools/compiler/ti-cgt-msp430_21.6.0.LTS
     749                    .dwattr $C$DW$T$48, DW_AT_decl_line(0x51)
     750                    .dwattr $C$DW$T$48, DW_AT_decl_column(0x0e)
     751            
     752            $C$DW$T$49      .dwtag  DW_TAG_typedef
     753                    .dwattr $C$DW$T$49, DW_AT_name("__cpuwhich_t")
     754                    .dwattr $C$DW$T$49, DW_AT_type(*$C$DW$T$10)
     755                    .dwattr $C$DW$T$49, DW_AT_language(DW_LANG_C)
     756                    .dwattr $C$DW$T$49, DW_AT_decl_file("C:/ti/ccs1200/ccs/tools/compiler/ti-cgt-msp430_21.6.0.LTS
     757                    .dwattr $C$DW$T$49, DW_AT_decl_line(0x4f)
     758                    .dwattr $C$DW$T$49, DW_AT_decl_column(0x0e)
     759            
     760            $C$DW$T$50      .dwtag  DW_TAG_typedef
     761                    .dwattr $C$DW$T$50, DW_AT_name("__ct_rune_t")
     762                    .dwattr $C$DW$T$50, DW_AT_type(*$C$DW$T$10)
     763                    .dwattr $C$DW$T$50, DW_AT_language(DW_LANG_C)
     764                    .dwattr $C$DW$T$50, DW_AT_decl_file("C:/ti/ccs1200/ccs/tools/compiler/ti-cgt-msp430_21.6.0.LTS
     765                    .dwattr $C$DW$T$50, DW_AT_decl_line(0x69)
     766                    .dwattr $C$DW$T$50, DW_AT_decl_column(0x0e)
     767            
     768            $C$DW$T$51      .dwtag  DW_TAG_typedef
     769                    .dwattr $C$DW$T$51, DW_AT_name("__rune_t")
     770                    .dwattr $C$DW$T$51, DW_AT_type(*$C$DW$T$50)
     771                    .dwattr $C$DW$T$51, DW_AT_language(DW_LANG_C)
     772                    .dwattr $C$DW$T$51, DW_AT_decl_file("C:/ti/ccs1200/ccs/tools/compiler/ti-cgt-msp430_21.6.0.LTS
     773                    .dwattr $C$DW$T$51, DW_AT_decl_line(0x6c)
     774                    .dwattr $C$DW$T$51, DW_AT_decl_column(0x15)
MSP430 Assembler PC v21.6.0 Mon Aug 29 17:25:18 2022

Copyright (c) 2003-2018 Texas Instruments Incorporated
C:\Users\chand\AppData\Local\Temp\{AB94F83C-4D24-4C8E-BFAA-F9C03CA5D725} PAGE   18

     775            
     776            $C$DW$T$52      .dwtag  DW_TAG_typedef
     777                    .dwattr $C$DW$T$52, DW_AT_name("__wint_t")
     778                    .dwattr $C$DW$T$52, DW_AT_type(*$C$DW$T$50)
     779                    .dwattr $C$DW$T$52, DW_AT_language(DW_LANG_C)
     780                    .dwattr $C$DW$T$52, DW_AT_decl_file("C:/ti/ccs1200/ccs/tools/compiler/ti-cgt-msp430_21.6.0.LTS
     781                    .dwattr $C$DW$T$52, DW_AT_decl_line(0x6d)
     782                    .dwattr $C$DW$T$52, DW_AT_decl_column(0x15)
     783            
     784            $C$DW$T$53      .dwtag  DW_TAG_typedef
     785                    .dwattr $C$DW$T$53, DW_AT_name("__int16_t")
     786                    .dwattr $C$DW$T$53, DW_AT_type(*$C$DW$T$10)
     787                    .dwattr $C$DW$T$53, DW_AT_language(DW_LANG_C)
     788                    .dwattr $C$DW$T$53, DW_AT_decl_file("C:/ti/ccs1200/ccs/tools/compiler/ti-cgt-msp430_21.6.0.LTS
     789                    .dwattr $C$DW$T$53, DW_AT_decl_line(0x38)
     790                    .dwattr $C$DW$T$53, DW_AT_decl_column(0x0f)
     791            
     792            $C$DW$T$54      .dwtag  DW_TAG_typedef
     793                    .dwattr $C$DW$T$54, DW_AT_name("__int_fast16_t")
     794                    .dwattr $C$DW$T$54, DW_AT_type(*$C$DW$T$53)
     795                    .dwattr $C$DW$T$54, DW_AT_language(DW_LANG_C)
     796                    .dwattr $C$DW$T$54, DW_AT_decl_file("C:/ti/ccs1200/ccs/tools/compiler/ti-cgt-msp430_21.6.0.LTS
     797                    .dwattr $C$DW$T$54, DW_AT_decl_line(0x57)
     798                    .dwattr $C$DW$T$54, DW_AT_decl_column(0x13)
     799            
     800            $C$DW$T$55      .dwtag  DW_TAG_typedef
     801                    .dwattr $C$DW$T$55, DW_AT_name("__int_fast8_t")
     802                    .dwattr $C$DW$T$55, DW_AT_type(*$C$DW$T$53)
     803                    .dwattr $C$DW$T$55, DW_AT_language(DW_LANG_C)
     804                    .dwattr $C$DW$T$55, DW_AT_decl_file("C:/ti/ccs1200/ccs/tools/compiler/ti-cgt-msp430_21.6.0.LTS
     805                    .dwattr $C$DW$T$55, DW_AT_decl_line(0x56)
     806                    .dwattr $C$DW$T$55, DW_AT_decl_column(0x13)
     807            
     808            $C$DW$T$56      .dwtag  DW_TAG_typedef
     809                    .dwattr $C$DW$T$56, DW_AT_name("__int_least16_t")
     810                    .dwattr $C$DW$T$56, DW_AT_type(*$C$DW$T$53)
     811                    .dwattr $C$DW$T$56, DW_AT_language(DW_LANG_C)
     812                    .dwattr $C$DW$T$56, DW_AT_decl_file("C:/ti/ccs1200/ccs/tools/compiler/ti-cgt-msp430_21.6.0.LTS
     813                    .dwattr $C$DW$T$56, DW_AT_decl_line(0x5b)
     814                    .dwattr $C$DW$T$56, DW_AT_decl_column(0x13)
     815            
     816            $C$DW$T$57      .dwtag  DW_TAG_typedef
     817                    .dwattr $C$DW$T$57, DW_AT_name("__intptr_t")
     818                    .dwattr $C$DW$T$57, DW_AT_type(*$C$DW$T$53)
     819                    .dwattr $C$DW$T$57, DW_AT_language(DW_LANG_C)
     820                    .dwattr $C$DW$T$57, DW_AT_decl_file("C:/ti/ccs1200/ccs/tools/compiler/ti-cgt-msp430_21.6.0.LTS
     821                    .dwattr $C$DW$T$57, DW_AT_decl_line(0x53)
     822                    .dwattr $C$DW$T$57, DW_AT_decl_column(0x19)
     823            
     824            $C$DW$T$58      .dwtag  DW_TAG_typedef
     825                    .dwattr $C$DW$T$58, DW_AT_name("__register_t")
     826                    .dwattr $C$DW$T$58, DW_AT_type(*$C$DW$T$53)
     827                    .dwattr $C$DW$T$58, DW_AT_language(DW_LANG_C)
     828                    .dwattr $C$DW$T$58, DW_AT_decl_file("C:/ti/ccs1200/ccs/tools/compiler/ti-cgt-msp430_21.6.0.LTS
     829                    .dwattr $C$DW$T$58, DW_AT_decl_line(0x5f)
MSP430 Assembler PC v21.6.0 Mon Aug 29 17:25:18 2022

Copyright (c) 2003-2018 Texas Instruments Incorporated
C:\Users\chand\AppData\Local\Temp\{AB94F83C-4D24-4C8E-BFAA-F9C03CA5D725} PAGE   19

     830                    .dwattr $C$DW$T$58, DW_AT_decl_column(0x13)
     831            
     832            $C$DW$T$59      .dwtag  DW_TAG_typedef
     833                    .dwattr $C$DW$T$59, DW_AT_name("__nl_item")
     834                    .dwattr $C$DW$T$59, DW_AT_type(*$C$DW$T$10)
     835                    .dwattr $C$DW$T$59, DW_AT_language(DW_LANG_C)
     836                    .dwattr $C$DW$T$59, DW_AT_decl_file("C:/ti/ccs1200/ccs/tools/compiler/ti-cgt-msp430_21.6.0.LTS
     837                    .dwattr $C$DW$T$59, DW_AT_decl_line(0x3c)
     838                    .dwattr $C$DW$T$59, DW_AT_decl_column(0x0e)
     839            
     840            $C$DW$T$60      .dwtag  DW_TAG_typedef
     841                    .dwattr $C$DW$T$60, DW_AT_name("__ptrdiff_t")
     842                    .dwattr $C$DW$T$60, DW_AT_type(*$C$DW$T$10)
     843                    .dwattr $C$DW$T$60, DW_AT_language(DW_LANG_C)
     844                    .dwattr $C$DW$T$60, DW_AT_decl_file("C:/ti/ccs1200/ccs/tools/compiler/ti-cgt-msp430_21.6.0.LTS
     845                    .dwattr $C$DW$T$60, DW_AT_decl_line(0x5e)
     846                    .dwattr $C$DW$T$60, DW_AT_decl_column(0x1c)
     847            
     848            $C$DW$T$11      .dwtag  DW_TAG_base_type
     849                    .dwattr $C$DW$T$11, DW_AT_encoding(DW_ATE_unsigned)
     850                    .dwattr $C$DW$T$11, DW_AT_name("unsigned int")
     851                    .dwattr $C$DW$T$11, DW_AT_byte_size(0x02)
     852            
     853            $C$DW$T$61      .dwtag  DW_TAG_typedef
     854                    .dwattr $C$DW$T$61, DW_AT_name("___wchar_t")
     855                    .dwattr $C$DW$T$61, DW_AT_type(*$C$DW$T$11)
     856                    .dwattr $C$DW$T$61, DW_AT_language(DW_LANG_C)
     857                    .dwattr $C$DW$T$61, DW_AT_decl_file("C:/ti/ccs1200/ccs/tools/compiler/ti-cgt-msp430_21.6.0.LTS
     858                    .dwattr $C$DW$T$61, DW_AT_decl_line(0x7d)
     859                    .dwattr $C$DW$T$61, DW_AT_decl_column(0x1a)
     860            
     861            $C$DW$T$62      .dwtag  DW_TAG_volatile_type
     862                    .dwattr $C$DW$T$62, DW_AT_type(*$C$DW$T$11)
     863            
     864            $C$DW$T$63      .dwtag  DW_TAG_typedef
     865                    .dwattr $C$DW$T$63, DW_AT_name("__size_t")
     866                    .dwattr $C$DW$T$63, DW_AT_type(*$C$DW$T$11)
     867                    .dwattr $C$DW$T$63, DW_AT_language(DW_LANG_C)
     868                    .dwattr $C$DW$T$63, DW_AT_decl_file("C:/ti/ccs1200/ccs/tools/compiler/ti-cgt-msp430_21.6.0.LTS
     869                    .dwattr $C$DW$T$63, DW_AT_decl_line(0x61)
     870                    .dwattr $C$DW$T$63, DW_AT_decl_column(0x19)
     871            
     872            $C$DW$T$64      .dwtag  DW_TAG_typedef
     873                    .dwattr $C$DW$T$64, DW_AT_name("__uint16_t")
     874                    .dwattr $C$DW$T$64, DW_AT_type(*$C$DW$T$11)
     875                    .dwattr $C$DW$T$64, DW_AT_language(DW_LANG_C)
     876                    .dwattr $C$DW$T$64, DW_AT_decl_file("C:/ti/ccs1200/ccs/tools/compiler/ti-cgt-msp430_21.6.0.LTS
     877                    .dwattr $C$DW$T$64, DW_AT_decl_line(0x39)
     878                    .dwattr $C$DW$T$64, DW_AT_decl_column(0x17)
     879            
     880            $C$DW$T$65      .dwtag  DW_TAG_typedef
     881                    .dwattr $C$DW$T$65, DW_AT_name("__mode_t")
     882                    .dwattr $C$DW$T$65, DW_AT_type(*$C$DW$T$64)
     883                    .dwattr $C$DW$T$65, DW_AT_language(DW_LANG_C)
     884                    .dwattr $C$DW$T$65, DW_AT_decl_file("C:/ti/ccs1200/ccs/tools/compiler/ti-cgt-msp430_21.6.0.LTS
MSP430 Assembler PC v21.6.0 Mon Aug 29 17:25:18 2022

Copyright (c) 2003-2018 Texas Instruments Incorporated
C:\Users\chand\AppData\Local\Temp\{AB94F83C-4D24-4C8E-BFAA-F9C03CA5D725} PAGE   20

     885                    .dwattr $C$DW$T$65, DW_AT_decl_line(0x3a)
     886                    .dwattr $C$DW$T$65, DW_AT_decl_column(0x14)
     887            
     888            $C$DW$T$66      .dwtag  DW_TAG_typedef
     889                    .dwattr $C$DW$T$66, DW_AT_name("__u_register_t")
     890                    .dwattr $C$DW$T$66, DW_AT_type(*$C$DW$T$64)
     891                    .dwattr $C$DW$T$66, DW_AT_language(DW_LANG_C)
     892                    .dwattr $C$DW$T$66, DW_AT_decl_file("C:/ti/ccs1200/ccs/tools/compiler/ti-cgt-msp430_21.6.0.LTS
     893                    .dwattr $C$DW$T$66, DW_AT_decl_line(0x78)
     894                    .dwattr $C$DW$T$66, DW_AT_decl_column(0x14)
     895            
     896            $C$DW$T$67      .dwtag  DW_TAG_typedef
     897                    .dwattr $C$DW$T$67, DW_AT_name("__uint_fast16_t")
     898                    .dwattr $C$DW$T$67, DW_AT_type(*$C$DW$T$64)
     899                    .dwattr $C$DW$T$67, DW_AT_language(DW_LANG_C)
     900                    .dwattr $C$DW$T$67, DW_AT_decl_file("C:/ti/ccs1200/ccs/tools/compiler/ti-cgt-msp430_21.6.0.LTS
     901                    .dwattr $C$DW$T$67, DW_AT_decl_line(0x71)
     902                    .dwattr $C$DW$T$67, DW_AT_decl_column(0x14)
     903            
     904            $C$DW$T$68      .dwtag  DW_TAG_typedef
     905                    .dwattr $C$DW$T$68, DW_AT_name("__uint_fast8_t")
     906                    .dwattr $C$DW$T$68, DW_AT_type(*$C$DW$T$64)
     907                    .dwattr $C$DW$T$68, DW_AT_language(DW_LANG_C)
     908                    .dwattr $C$DW$T$68, DW_AT_decl_file("C:/ti/ccs1200/ccs/tools/compiler/ti-cgt-msp430_21.6.0.LTS
     909                    .dwattr $C$DW$T$68, DW_AT_decl_line(0x70)
     910                    .dwattr $C$DW$T$68, DW_AT_decl_column(0x14)
     911            
     912            $C$DW$T$69      .dwtag  DW_TAG_typedef
     913                    .dwattr $C$DW$T$69, DW_AT_name("__uint_least16_t")
     914                    .dwattr $C$DW$T$69, DW_AT_type(*$C$DW$T$64)
     915                    .dwattr $C$DW$T$69, DW_AT_language(DW_LANG_C)
     916                    .dwattr $C$DW$T$69, DW_AT_decl_file("C:/ti/ccs1200/ccs/tools/compiler/ti-cgt-msp430_21.6.0.LTS
     917                    .dwattr $C$DW$T$69, DW_AT_decl_line(0x75)
     918                    .dwattr $C$DW$T$69, DW_AT_decl_column(0x14)
     919            
     920            $C$DW$T$70      .dwtag  DW_TAG_typedef
     921                    .dwattr $C$DW$T$70, DW_AT_name("__char16_t")
     922                    .dwattr $C$DW$T$70, DW_AT_type(*$C$DW$T$69)
     923                    .dwattr $C$DW$T$70, DW_AT_language(DW_LANG_C)
     924                    .dwattr $C$DW$T$70, DW_AT_decl_file("C:/ti/ccs1200/ccs/tools/compiler/ti-cgt-msp430_21.6.0.LTS
     925                    .dwattr $C$DW$T$70, DW_AT_decl_line(0x71)
     926                    .dwattr $C$DW$T$70, DW_AT_decl_column(0x1a)
     927            
     928            $C$DW$T$71      .dwtag  DW_TAG_typedef
     929                    .dwattr $C$DW$T$71, DW_AT_name("__uintptr_t")
     930                    .dwattr $C$DW$T$71, DW_AT_type(*$C$DW$T$64)
     931                    .dwattr $C$DW$T$71, DW_AT_language(DW_LANG_C)
     932                    .dwattr $C$DW$T$71, DW_AT_decl_file("C:/ti/ccs1200/ccs/tools/compiler/ti-cgt-msp430_21.6.0.LTS
     933                    .dwattr $C$DW$T$71, DW_AT_decl_line(0x6d)
     934                    .dwattr $C$DW$T$71, DW_AT_decl_column(0x14)
     935            
     936            $C$DW$T$72      .dwtag  DW_TAG_typedef
     937                    .dwattr $C$DW$T$72, DW_AT_name("__useconds_t")
     938                    .dwattr $C$DW$T$72, DW_AT_type(*$C$DW$T$11)
     939                    .dwattr $C$DW$T$72, DW_AT_language(DW_LANG_C)
MSP430 Assembler PC v21.6.0 Mon Aug 29 17:25:18 2022

Copyright (c) 2003-2018 Texas Instruments Incorporated
C:\Users\chand\AppData\Local\Temp\{AB94F83C-4D24-4C8E-BFAA-F9C03CA5D725} PAGE   21

     940                    .dwattr $C$DW$T$72, DW_AT_decl_file("C:/ti/ccs1200/ccs/tools/compiler/ti-cgt-msp430_21.6.0.LTS
     941                    .dwattr $C$DW$T$72, DW_AT_decl_line(0x4e)
     942                    .dwattr $C$DW$T$72, DW_AT_decl_column(0x16)
     943            
     944            $C$DW$T$73      .dwtag  DW_TAG_typedef
     945                    .dwattr $C$DW$T$73, DW_AT_name("size_t")
     946                    .dwattr $C$DW$T$73, DW_AT_type(*$C$DW$T$11)
     947                    .dwattr $C$DW$T$73, DW_AT_language(DW_LANG_C)
     948                    .dwattr $C$DW$T$73, DW_AT_decl_file("C:/ti/ccs1200/ccs/tools/compiler/ti-cgt-msp430_21.6.0.LTS
     949                    .dwattr $C$DW$T$73, DW_AT_decl_line(0x4d)
     950                    .dwattr $C$DW$T$73, DW_AT_decl_column(0x19)
     951            
     952            $C$DW$T$12      .dwtag  DW_TAG_base_type
     953                    .dwattr $C$DW$T$12, DW_AT_encoding(DW_ATE_signed)
     954                    .dwattr $C$DW$T$12, DW_AT_name("long")
     955                    .dwattr $C$DW$T$12, DW_AT_byte_size(0x04)
     956            
     957            $C$DW$T$74      .dwtag  DW_TAG_typedef
     958                    .dwattr $C$DW$T$74, DW_AT_name("__int32_t")
     959                    .dwattr $C$DW$T$74, DW_AT_type(*$C$DW$T$12)
     960                    .dwattr $C$DW$T$74, DW_AT_language(DW_LANG_C)
     961                    .dwattr $C$DW$T$74, DW_AT_decl_file("C:/ti/ccs1200/ccs/tools/compiler/ti-cgt-msp430_21.6.0.LTS
     962                    .dwattr $C$DW$T$74, DW_AT_decl_line(0x3a)
     963                    .dwattr $C$DW$T$74, DW_AT_decl_column(0x10)
     964            
     965            $C$DW$T$75      .dwtag  DW_TAG_typedef
     966                    .dwattr $C$DW$T$75, DW_AT_name("__blksize_t")
     967                    .dwattr $C$DW$T$75, DW_AT_type(*$C$DW$T$74)
     968                    .dwattr $C$DW$T$75, DW_AT_language(DW_LANG_C)
     969                    .dwattr $C$DW$T$75, DW_AT_decl_file("C:/ti/ccs1200/ccs/tools/compiler/ti-cgt-msp430_21.6.0.LTS
     970                    .dwattr $C$DW$T$75, DW_AT_decl_line(0x2f)
     971                    .dwattr $C$DW$T$75, DW_AT_decl_column(0x13)
     972            
     973            $C$DW$T$76      .dwtag  DW_TAG_typedef
     974                    .dwattr $C$DW$T$76, DW_AT_name("__clockid_t")
     975                    .dwattr $C$DW$T$76, DW_AT_type(*$C$DW$T$74)
     976                    .dwattr $C$DW$T$76, DW_AT_language(DW_LANG_C)
     977                    .dwattr $C$DW$T$76, DW_AT_decl_file("C:/ti/ccs1200/ccs/tools/compiler/ti-cgt-msp430_21.6.0.LTS
     978                    .dwattr $C$DW$T$76, DW_AT_decl_line(0x31)
     979                    .dwattr $C$DW$T$76, DW_AT_decl_column(0x13)
     980            
     981            $C$DW$T$77      .dwtag  DW_TAG_typedef
     982                    .dwattr $C$DW$T$77, DW_AT_name("__critical_t")
     983                    .dwattr $C$DW$T$77, DW_AT_type(*$C$DW$T$74)
     984                    .dwattr $C$DW$T$77, DW_AT_language(DW_LANG_C)
     985                    .dwattr $C$DW$T$77, DW_AT_decl_file("C:/ti/ccs1200/ccs/tools/compiler/ti-cgt-msp430_21.6.0.LTS
     986                    .dwattr $C$DW$T$77, DW_AT_decl_line(0x4b)
     987                    .dwattr $C$DW$T$77, DW_AT_decl_column(0x13)
     988            
     989            $C$DW$T$78      .dwtag  DW_TAG_typedef
     990                    .dwattr $C$DW$T$78, DW_AT_name("__int_fast32_t")
     991                    .dwattr $C$DW$T$78, DW_AT_type(*$C$DW$T$74)
     992                    .dwattr $C$DW$T$78, DW_AT_language(DW_LANG_C)
     993                    .dwattr $C$DW$T$78, DW_AT_decl_file("C:/ti/ccs1200/ccs/tools/compiler/ti-cgt-msp430_21.6.0.LTS
     994                    .dwattr $C$DW$T$78, DW_AT_decl_line(0x58)
MSP430 Assembler PC v21.6.0 Mon Aug 29 17:25:18 2022

Copyright (c) 2003-2018 Texas Instruments Incorporated
C:\Users\chand\AppData\Local\Temp\{AB94F83C-4D24-4C8E-BFAA-F9C03CA5D725} PAGE   22

     995                    .dwattr $C$DW$T$78, DW_AT_decl_column(0x13)
     996            
     997            $C$DW$T$79      .dwtag  DW_TAG_typedef
     998                    .dwattr $C$DW$T$79, DW_AT_name("__int_least32_t")
     999                    .dwattr $C$DW$T$79, DW_AT_type(*$C$DW$T$74)
    1000                    .dwattr $C$DW$T$79, DW_AT_language(DW_LANG_C)
    1001                    .dwattr $C$DW$T$79, DW_AT_decl_file("C:/ti/ccs1200/ccs/tools/compiler/ti-cgt-msp430_21.6.0.LTS
    1002                    .dwattr $C$DW$T$79, DW_AT_decl_line(0x5c)
    1003                    .dwattr $C$DW$T$79, DW_AT_decl_column(0x13)
    1004            
    1005            $C$DW$T$80      .dwtag  DW_TAG_typedef
    1006                    .dwattr $C$DW$T$80, DW_AT_name("__intfptr_t")
    1007                    .dwattr $C$DW$T$80, DW_AT_type(*$C$DW$T$74)
    1008                    .dwattr $C$DW$T$80, DW_AT_language(DW_LANG_C)
    1009                    .dwattr $C$DW$T$80, DW_AT_decl_file("C:/ti/ccs1200/ccs/tools/compiler/ti-cgt-msp430_21.6.0.LTS
    1010                    .dwattr $C$DW$T$80, DW_AT_decl_line(0x4e)
    1011                    .dwattr $C$DW$T$80, DW_AT_decl_column(0x13)
    1012            
    1013            $C$DW$T$81      .dwtag  DW_TAG_typedef
    1014                    .dwattr $C$DW$T$81, DW_AT_name("__lwpid_t")
    1015                    .dwattr $C$DW$T$81, DW_AT_type(*$C$DW$T$74)
    1016                    .dwattr $C$DW$T$81, DW_AT_language(DW_LANG_C)
    1017                    .dwattr $C$DW$T$81, DW_AT_decl_file("C:/ti/ccs1200/ccs/tools/compiler/ti-cgt-msp430_21.6.0.LTS
    1018                    .dwattr $C$DW$T$81, DW_AT_decl_line(0x39)
    1019                    .dwattr $C$DW$T$81, DW_AT_decl_column(0x13)
    1020            
    1021            $C$DW$T$82      .dwtag  DW_TAG_typedef
    1022                    .dwattr $C$DW$T$82, DW_AT_name("__pid_t")
    1023                    .dwattr $C$DW$T$82, DW_AT_type(*$C$DW$T$74)
    1024                    .dwattr $C$DW$T$82, DW_AT_language(DW_LANG_C)
    1025                    .dwattr $C$DW$T$82, DW_AT_decl_file("C:/ti/ccs1200/ccs/tools/compiler/ti-cgt-msp430_21.6.0.LTS
    1026                    .dwattr $C$DW$T$82, DW_AT_decl_line(0x40)
    1027                    .dwattr $C$DW$T$82, DW_AT_decl_column(0x13)
    1028            
    1029            $C$DW$T$83      .dwtag  DW_TAG_typedef
    1030                    .dwattr $C$DW$T$83, DW_AT_name("__segsz_t")
    1031                    .dwattr $C$DW$T$83, DW_AT_type(*$C$DW$T$74)
    1032                    .dwattr $C$DW$T$83, DW_AT_language(DW_LANG_C)
    1033                    .dwattr $C$DW$T$83, DW_AT_decl_file("C:/ti/ccs1200/ccs/tools/compiler/ti-cgt-msp430_21.6.0.LTS
    1034                    .dwattr $C$DW$T$83, DW_AT_decl_line(0x60)
    1035                    .dwattr $C$DW$T$83, DW_AT_decl_column(0x13)
    1036            
    1037            $C$DW$T$84      .dwtag  DW_TAG_typedef
    1038                    .dwattr $C$DW$T$84, DW_AT_name("__ssize_t")
    1039                    .dwattr $C$DW$T$84, DW_AT_type(*$C$DW$T$74)
    1040                    .dwattr $C$DW$T$84, DW_AT_language(DW_LANG_C)
    1041                    .dwattr $C$DW$T$84, DW_AT_decl_file("C:/ti/ccs1200/ccs/tools/compiler/ti-cgt-msp430_21.6.0.LTS
    1042                    .dwattr $C$DW$T$84, DW_AT_decl_line(0x62)
    1043                    .dwattr $C$DW$T$84, DW_AT_decl_column(0x13)
    1044            
    1045            $C$DW$T$85      .dwtag  DW_TAG_typedef
    1046                    .dwattr $C$DW$T$85, DW_AT_name("__key_t")
    1047                    .dwattr $C$DW$T$85, DW_AT_type(*$C$DW$T$12)
    1048                    .dwattr $C$DW$T$85, DW_AT_language(DW_LANG_C)
    1049                    .dwattr $C$DW$T$85, DW_AT_decl_file("C:/ti/ccs1200/ccs/tools/compiler/ti-cgt-msp430_21.6.0.LTS
MSP430 Assembler PC v21.6.0 Mon Aug 29 17:25:18 2022

Copyright (c) 2003-2018 Texas Instruments Incorporated
C:\Users\chand\AppData\Local\Temp\{AB94F83C-4D24-4C8E-BFAA-F9C03CA5D725} PAGE   23

    1050                    .dwattr $C$DW$T$85, DW_AT_decl_line(0x38)
    1051                    .dwattr $C$DW$T$85, DW_AT_decl_column(0x0f)
    1052            
    1053            $C$DW$T$86      .dwtag  DW_TAG_typedef
    1054                    .dwattr $C$DW$T$86, DW_AT_name("__suseconds_t")
    1055                    .dwattr $C$DW$T$86, DW_AT_type(*$C$DW$T$12)
    1056                    .dwattr $C$DW$T$86, DW_AT_language(DW_LANG_C)
    1057                    .dwattr $C$DW$T$86, DW_AT_decl_file("C:/ti/ccs1200/ccs/tools/compiler/ti-cgt-msp430_21.6.0.LTS
    1058                    .dwattr $C$DW$T$86, DW_AT_decl_line(0x4a)
    1059                    .dwattr $C$DW$T$86, DW_AT_decl_column(0x0f)
    1060            
    1061            $C$DW$T$87      .dwtag  DW_TAG_typedef
    1062                    .dwattr $C$DW$T$87, DW_AT_name("_off_t")
    1063                    .dwattr $C$DW$T$87, DW_AT_type(*$C$DW$T$12)
    1064                    .dwattr $C$DW$T$87, DW_AT_language(DW_LANG_C)
    1065                    .dwattr $C$DW$T$87, DW_AT_decl_file("C:/ti/ccs1200/ccs/tools/compiler/ti-cgt-msp430_21.6.0.LTS
    1066                    .dwattr $C$DW$T$87, DW_AT_decl_line(0x8d)
    1067                    .dwattr $C$DW$T$87, DW_AT_decl_column(0x12)
    1068            
    1069            $C$DW$T$88      .dwtag  DW_TAG_typedef
    1070                    .dwattr $C$DW$T$88, DW_AT_name("__off_t")
    1071                    .dwattr $C$DW$T$88, DW_AT_type(*$C$DW$T$87)
    1072                    .dwattr $C$DW$T$88, DW_AT_language(DW_LANG_C)
    1073                    .dwattr $C$DW$T$88, DW_AT_decl_file("C:/ti/ccs1200/ccs/tools/compiler/ti-cgt-msp430_21.6.0.LTS
    1074                    .dwattr $C$DW$T$88, DW_AT_decl_line(0x3e)
    1075                    .dwattr $C$DW$T$88, DW_AT_decl_column(0x18)
    1076            
    1077            $C$DW$T$89      .dwtag  DW_TAG_typedef
    1078                    .dwattr $C$DW$T$89, DW_AT_name("fpos_t")
    1079                    .dwattr $C$DW$T$89, DW_AT_type(*$C$DW$T$12)
    1080                    .dwattr $C$DW$T$89, DW_AT_language(DW_LANG_C)
    1081                    .dwattr $C$DW$T$89, DW_AT_decl_file("C:/ti/ccs1200/ccs/tools/compiler/ti-cgt-msp430_21.6.0.LTS
    1082                    .dwattr $C$DW$T$89, DW_AT_decl_line(0x6b)
    1083                    .dwattr $C$DW$T$89, DW_AT_decl_column(0x0e)
    1084            
    1085            $C$DW$T$90      .dwtag  DW_TAG_typedef
    1086                    .dwattr $C$DW$T$90, DW_AT_name("off_t")
    1087                    .dwattr $C$DW$T$90, DW_AT_type(*$C$DW$T$12)
    1088                    .dwattr $C$DW$T$90, DW_AT_language(DW_LANG_C)
    1089                    .dwattr $C$DW$T$90, DW_AT_decl_file("C:/ti/ccs1200/ccs/tools/compiler/ti-cgt-msp430_21.6.0.LTS
    1090                    .dwattr $C$DW$T$90, DW_AT_decl_line(0x74)
    1091                    .dwattr $C$DW$T$90, DW_AT_decl_column(0x0e)
    1092            
    1093            $C$DW$T$13      .dwtag  DW_TAG_base_type
    1094                    .dwattr $C$DW$T$13, DW_AT_encoding(DW_ATE_unsigned)
    1095                    .dwattr $C$DW$T$13, DW_AT_name("unsigned long")
    1096                    .dwattr $C$DW$T$13, DW_AT_byte_size(0x04)
    1097            
    1098            $C$DW$T$91      .dwtag  DW_TAG_typedef
    1099                    .dwattr $C$DW$T$91, DW_AT_name("__uint32_t")
    1100                    .dwattr $C$DW$T$91, DW_AT_type(*$C$DW$T$13)
    1101                    .dwattr $C$DW$T$91, DW_AT_language(DW_LANG_C)
    1102                    .dwattr $C$DW$T$91, DW_AT_decl_file("C:/ti/ccs1200/ccs/tools/compiler/ti-cgt-msp430_21.6.0.LTS
    1103                    .dwattr $C$DW$T$91, DW_AT_decl_line(0x3b)
    1104                    .dwattr $C$DW$T$91, DW_AT_decl_column(0x18)
MSP430 Assembler PC v21.6.0 Mon Aug 29 17:25:18 2022

Copyright (c) 2003-2018 Texas Instruments Incorporated
C:\Users\chand\AppData\Local\Temp\{AB94F83C-4D24-4C8E-BFAA-F9C03CA5D725} PAGE   24

    1105            
    1106            $C$DW$T$92      .dwtag  DW_TAG_typedef
    1107                    .dwattr $C$DW$T$92, DW_AT_name("__clock_t")
    1108                    .dwattr $C$DW$T$92, DW_AT_type(*$C$DW$T$91)
    1109                    .dwattr $C$DW$T$92, DW_AT_language(DW_LANG_C)
    1110                    .dwattr $C$DW$T$92, DW_AT_decl_file("C:/ti/ccs1200/ccs/tools/compiler/ti-cgt-msp430_21.6.0.LTS
    1111                    .dwattr $C$DW$T$92, DW_AT_decl_line(0x4a)
    1112                    .dwattr $C$DW$T$92, DW_AT_decl_column(0x14)
    1113            
    1114            $C$DW$T$93      .dwtag  DW_TAG_typedef
    1115                    .dwattr $C$DW$T$93, DW_AT_name("__fflags_t")
    1116                    .dwattr $C$DW$T$93, DW_AT_type(*$C$DW$T$91)
    1117                    .dwattr $C$DW$T$93, DW_AT_language(DW_LANG_C)
    1118                    .dwattr $C$DW$T$93, DW_AT_decl_file("C:/ti/ccs1200/ccs/tools/compiler/ti-cgt-msp430_21.6.0.LTS
    1119                    .dwattr $C$DW$T$93, DW_AT_decl_line(0x32)
    1120                    .dwattr $C$DW$T$93, DW_AT_decl_column(0x14)
    1121            
    1122            $C$DW$T$94      .dwtag  DW_TAG_typedef
    1123                    .dwattr $C$DW$T$94, DW_AT_name("__fixpt_t")
    1124                    .dwattr $C$DW$T$94, DW_AT_type(*$C$DW$T$91)
    1125                    .dwattr $C$DW$T$94, DW_AT_language(DW_LANG_C)
    1126                    .dwattr $C$DW$T$94, DW_AT_decl_file("C:/ti/ccs1200/ccs/tools/compiler/ti-cgt-msp430_21.6.0.LTS
    1127                    .dwattr $C$DW$T$94, DW_AT_decl_line(0x81)
    1128                    .dwattr $C$DW$T$94, DW_AT_decl_column(0x14)
    1129            
    1130            $C$DW$T$95      .dwtag  DW_TAG_typedef
    1131                    .dwattr $C$DW$T$95, DW_AT_name("__gid_t")
    1132                    .dwattr $C$DW$T$95, DW_AT_type(*$C$DW$T$91)
    1133                    .dwattr $C$DW$T$95, DW_AT_language(DW_LANG_C)
    1134                    .dwattr $C$DW$T$95, DW_AT_decl_file("C:/ti/ccs1200/ccs/tools/compiler/ti-cgt-msp430_21.6.0.LTS
    1135                    .dwattr $C$DW$T$95, DW_AT_decl_line(0x35)
    1136                    .dwattr $C$DW$T$95, DW_AT_decl_column(0x14)
    1137            
    1138            $C$DW$T$96      .dwtag  DW_TAG_typedef
    1139                    .dwattr $C$DW$T$96, DW_AT_name("__socklen_t")
    1140                    .dwattr $C$DW$T$96, DW_AT_type(*$C$DW$T$91)
    1141                    .dwattr $C$DW$T$96, DW_AT_language(DW_LANG_C)
    1142                    .dwattr $C$DW$T$96, DW_AT_decl_file("C:/ti/ccs1200/ccs/tools/compiler/ti-cgt-msp430_21.6.0.LTS
    1143                    .dwattr $C$DW$T$96, DW_AT_decl_line(0x49)
    1144                    .dwattr $C$DW$T$96, DW_AT_decl_column(0x14)
    1145            
    1146            $C$DW$T$97      .dwtag  DW_TAG_typedef
    1147                    .dwattr $C$DW$T$97, DW_AT_name("__time_t")
    1148                    .dwattr $C$DW$T$97, DW_AT_type(*$C$DW$T$91)
    1149                    .dwattr $C$DW$T$97, DW_AT_language(DW_LANG_C)
    1150                    .dwattr $C$DW$T$97, DW_AT_decl_file("C:/ti/ccs1200/ccs/tools/compiler/ti-cgt-msp430_21.6.0.LTS
    1151                    .dwattr $C$DW$T$97, DW_AT_decl_line(0x66)
    1152                    .dwattr $C$DW$T$97, DW_AT_decl_column(0x19)
    1153            
    1154            $C$DW$T$98      .dwtag  DW_TAG_typedef
    1155                    .dwattr $C$DW$T$98, DW_AT_name("__uid_t")
    1156                    .dwattr $C$DW$T$98, DW_AT_type(*$C$DW$T$91)
    1157                    .dwattr $C$DW$T$98, DW_AT_language(DW_LANG_C)
    1158                    .dwattr $C$DW$T$98, DW_AT_decl_file("C:/ti/ccs1200/ccs/tools/compiler/ti-cgt-msp430_21.6.0.LTS
    1159                    .dwattr $C$DW$T$98, DW_AT_decl_line(0x4d)
MSP430 Assembler PC v21.6.0 Mon Aug 29 17:25:18 2022

Copyright (c) 2003-2018 Texas Instruments Incorporated
C:\Users\chand\AppData\Local\Temp\{AB94F83C-4D24-4C8E-BFAA-F9C03CA5D725} PAGE   25

    1160                    .dwattr $C$DW$T$98, DW_AT_decl_column(0x14)
    1161            
    1162            $C$DW$T$99      .dwtag  DW_TAG_typedef
    1163                    .dwattr $C$DW$T$99, DW_AT_name("__uint_fast32_t")
    1164                    .dwattr $C$DW$T$99, DW_AT_type(*$C$DW$T$91)
    1165                    .dwattr $C$DW$T$99, DW_AT_language(DW_LANG_C)
    1166                    .dwattr $C$DW$T$99, DW_AT_decl_file("C:/ti/ccs1200/ccs/tools/compiler/ti-cgt-msp430_21.6.0.LTS
    1167                    .dwattr $C$DW$T$99, DW_AT_decl_line(0x72)
    1168                    .dwattr $C$DW$T$99, DW_AT_decl_column(0x14)
    1169            
    1170            $C$DW$T$100     .dwtag  DW_TAG_typedef
    1171                    .dwattr $C$DW$T$100, DW_AT_name("__uint_least32_t")
    1172                    .dwattr $C$DW$T$100, DW_AT_type(*$C$DW$T$91)
    1173                    .dwattr $C$DW$T$100, DW_AT_language(DW_LANG_C)
    1174                    .dwattr $C$DW$T$100, DW_AT_decl_file("C:/ti/ccs1200/ccs/tools/compiler/ti-cgt-msp430_21.6.0.LT
    1175                    .dwattr $C$DW$T$100, DW_AT_decl_line(0x76)
    1176                    .dwattr $C$DW$T$100, DW_AT_decl_column(0x14)
    1177            
    1178            $C$DW$T$101     .dwtag  DW_TAG_typedef
    1179                    .dwattr $C$DW$T$101, DW_AT_name("__char32_t")
    1180                    .dwattr $C$DW$T$101, DW_AT_type(*$C$DW$T$100)
    1181                    .dwattr $C$DW$T$101, DW_AT_language(DW_LANG_C)
    1182                    .dwattr $C$DW$T$101, DW_AT_decl_file("C:/ti/ccs1200/ccs/tools/compiler/ti-cgt-msp430_21.6.0.LT
    1183                    .dwattr $C$DW$T$101, DW_AT_decl_line(0x72)
    1184                    .dwattr $C$DW$T$101, DW_AT_decl_column(0x1a)
    1185            
    1186            $C$DW$T$102     .dwtag  DW_TAG_typedef
    1187                    .dwattr $C$DW$T$102, DW_AT_name("__uintfptr_t")
    1188                    .dwattr $C$DW$T$102, DW_AT_type(*$C$DW$T$91)
    1189                    .dwattr $C$DW$T$102, DW_AT_language(DW_LANG_C)
    1190                    .dwattr $C$DW$T$102, DW_AT_decl_file("C:/ti/ccs1200/ccs/tools/compiler/ti-cgt-msp430_21.6.0.LT
    1191                    .dwattr $C$DW$T$102, DW_AT_decl_line(0x68)
    1192                    .dwattr $C$DW$T$102, DW_AT_decl_column(0x14)
    1193            
    1194            $C$DW$T$103     .dwtag  DW_TAG_typedef
    1195                    .dwattr $C$DW$T$103, DW_AT_name("__vm_offset_t")
    1196                    .dwattr $C$DW$T$103, DW_AT_type(*$C$DW$T$91)
    1197                    .dwattr $C$DW$T$103, DW_AT_language(DW_LANG_C)
    1198                    .dwattr $C$DW$T$103, DW_AT_decl_file("C:/ti/ccs1200/ccs/tools/compiler/ti-cgt-msp430_21.6.0.LT
    1199                    .dwattr $C$DW$T$103, DW_AT_decl_line(0x79)
    1200                    .dwattr $C$DW$T$103, DW_AT_decl_column(0x14)
    1201            
    1202            $C$DW$T$104     .dwtag  DW_TAG_typedef
    1203                    .dwattr $C$DW$T$104, DW_AT_name("__vm_paddr_t")
    1204                    .dwattr $C$DW$T$104, DW_AT_type(*$C$DW$T$91)
    1205                    .dwattr $C$DW$T$104, DW_AT_language(DW_LANG_C)
    1206                    .dwattr $C$DW$T$104, DW_AT_decl_file("C:/ti/ccs1200/ccs/tools/compiler/ti-cgt-msp430_21.6.0.LT
    1207                    .dwattr $C$DW$T$104, DW_AT_decl_line(0x7a)
    1208                    .dwattr $C$DW$T$104, DW_AT_decl_column(0x14)
    1209            
    1210            $C$DW$T$105     .dwtag  DW_TAG_typedef
    1211                    .dwattr $C$DW$T$105, DW_AT_name("__vm_size_t")
    1212                    .dwattr $C$DW$T$105, DW_AT_type(*$C$DW$T$91)
    1213                    .dwattr $C$DW$T$105, DW_AT_language(DW_LANG_C)
    1214                    .dwattr $C$DW$T$105, DW_AT_decl_file("C:/ti/ccs1200/ccs/tools/compiler/ti-cgt-msp430_21.6.0.LT
MSP430 Assembler PC v21.6.0 Mon Aug 29 17:25:18 2022

Copyright (c) 2003-2018 Texas Instruments Incorporated
C:\Users\chand\AppData\Local\Temp\{AB94F83C-4D24-4C8E-BFAA-F9C03CA5D725} PAGE   26

    1215                    .dwattr $C$DW$T$105, DW_AT_decl_line(0x7b)
    1216                    .dwattr $C$DW$T$105, DW_AT_decl_column(0x14)
    1217            
    1218            $C$DW$T$14      .dwtag  DW_TAG_base_type
    1219                    .dwattr $C$DW$T$14, DW_AT_encoding(DW_ATE_signed)
    1220                    .dwattr $C$DW$T$14, DW_AT_name("long long")
    1221                    .dwattr $C$DW$T$14, DW_AT_byte_size(0x08)
    1222            
    1223            $C$DW$T$106     .dwtag  DW_TAG_typedef
    1224                    .dwattr $C$DW$T$106, DW_AT_name("__int64_t")
    1225                    .dwattr $C$DW$T$106, DW_AT_type(*$C$DW$T$14)
    1226                    .dwattr $C$DW$T$106, DW_AT_language(DW_LANG_C)
    1227                    .dwattr $C$DW$T$106, DW_AT_decl_file("C:/ti/ccs1200/ccs/tools/compiler/ti-cgt-msp430_21.6.0.LT
    1228                    .dwattr $C$DW$T$106, DW_AT_decl_line(0x40)
    1229                    .dwattr $C$DW$T$106, DW_AT_decl_column(0x14)
    1230            
    1231            $C$DW$T$107     .dwtag  DW_TAG_typedef
    1232                    .dwattr $C$DW$T$107, DW_AT_name("__blkcnt_t")
    1233                    .dwattr $C$DW$T$107, DW_AT_type(*$C$DW$T$106)
    1234                    .dwattr $C$DW$T$107, DW_AT_language(DW_LANG_C)
    1235                    .dwattr $C$DW$T$107, DW_AT_decl_file("C:/ti/ccs1200/ccs/tools/compiler/ti-cgt-msp430_21.6.0.LT
    1236                    .dwattr $C$DW$T$107, DW_AT_decl_line(0x30)
    1237                    .dwattr $C$DW$T$107, DW_AT_decl_column(0x13)
    1238            
    1239            $C$DW$T$108     .dwtag  DW_TAG_typedef
    1240                    .dwattr $C$DW$T$108, DW_AT_name("__id_t")
    1241                    .dwattr $C$DW$T$108, DW_AT_type(*$C$DW$T$106)
    1242                    .dwattr $C$DW$T$108, DW_AT_language(DW_LANG_C)
    1243                    .dwattr $C$DW$T$108, DW_AT_decl_file("C:/ti/ccs1200/ccs/tools/compiler/ti-cgt-msp430_21.6.0.LT
    1244                    .dwattr $C$DW$T$108, DW_AT_decl_line(0x36)
    1245                    .dwattr $C$DW$T$108, DW_AT_decl_column(0x13)
    1246            
    1247            $C$DW$T$109     .dwtag  DW_TAG_typedef
    1248                    .dwattr $C$DW$T$109, DW_AT_name("__int_fast64_t")
    1249                    .dwattr $C$DW$T$109, DW_AT_type(*$C$DW$T$106)
    1250                    .dwattr $C$DW$T$109, DW_AT_language(DW_LANG_C)
    1251                    .dwattr $C$DW$T$109, DW_AT_decl_file("C:/ti/ccs1200/ccs/tools/compiler/ti-cgt-msp430_21.6.0.LT
    1252                    .dwattr $C$DW$T$109, DW_AT_decl_line(0x59)
    1253                    .dwattr $C$DW$T$109, DW_AT_decl_column(0x13)
    1254            
    1255            $C$DW$T$110     .dwtag  DW_TAG_typedef
    1256                    .dwattr $C$DW$T$110, DW_AT_name("__int_least64_t")
    1257                    .dwattr $C$DW$T$110, DW_AT_type(*$C$DW$T$106)
    1258                    .dwattr $C$DW$T$110, DW_AT_language(DW_LANG_C)
    1259                    .dwattr $C$DW$T$110, DW_AT_decl_file("C:/ti/ccs1200/ccs/tools/compiler/ti-cgt-msp430_21.6.0.LT
    1260                    .dwattr $C$DW$T$110, DW_AT_decl_line(0x5d)
    1261                    .dwattr $C$DW$T$110, DW_AT_decl_column(0x13)
    1262            
    1263            $C$DW$T$111     .dwtag  DW_TAG_typedef
    1264                    .dwattr $C$DW$T$111, DW_AT_name("__intmax_t")
    1265                    .dwattr $C$DW$T$111, DW_AT_type(*$C$DW$T$106)
    1266                    .dwattr $C$DW$T$111, DW_AT_language(DW_LANG_C)
    1267                    .dwattr $C$DW$T$111, DW_AT_decl_file("C:/ti/ccs1200/ccs/tools/compiler/ti-cgt-msp430_21.6.0.LT
    1268                    .dwattr $C$DW$T$111, DW_AT_decl_line(0x4f)
    1269                    .dwattr $C$DW$T$111, DW_AT_decl_column(0x13)
MSP430 Assembler PC v21.6.0 Mon Aug 29 17:25:18 2022

Copyright (c) 2003-2018 Texas Instruments Incorporated
C:\Users\chand\AppData\Local\Temp\{AB94F83C-4D24-4C8E-BFAA-F9C03CA5D725} PAGE   27

    1270            
    1271            $C$DW$T$112     .dwtag  DW_TAG_typedef
    1272                    .dwattr $C$DW$T$112, DW_AT_name("__off64_t")
    1273                    .dwattr $C$DW$T$112, DW_AT_type(*$C$DW$T$106)
    1274                    .dwattr $C$DW$T$112, DW_AT_language(DW_LANG_C)
    1275                    .dwattr $C$DW$T$112, DW_AT_decl_file("C:/ti/ccs1200/ccs/tools/compiler/ti-cgt-msp430_21.6.0.LT
    1276                    .dwattr $C$DW$T$112, DW_AT_decl_line(0x3f)
    1277                    .dwattr $C$DW$T$112, DW_AT_decl_column(0x13)
    1278            
    1279            $C$DW$T$113     .dwtag  DW_TAG_typedef
    1280                    .dwattr $C$DW$T$113, DW_AT_name("__rlim_t")
    1281                    .dwattr $C$DW$T$113, DW_AT_type(*$C$DW$T$106)
    1282                    .dwattr $C$DW$T$113, DW_AT_language(DW_LANG_C)
    1283                    .dwattr $C$DW$T$113, DW_AT_decl_file("C:/ti/ccs1200/ccs/tools/compiler/ti-cgt-msp430_21.6.0.LT
    1284                    .dwattr $C$DW$T$113, DW_AT_decl_line(0x41)
    1285                    .dwattr $C$DW$T$113, DW_AT_decl_column(0x13)
    1286            
    1287            $C$DW$T$15      .dwtag  DW_TAG_base_type
    1288                    .dwattr $C$DW$T$15, DW_AT_encoding(DW_ATE_unsigned)
    1289                    .dwattr $C$DW$T$15, DW_AT_name("unsigned long long")
    1290                    .dwattr $C$DW$T$15, DW_AT_byte_size(0x08)
    1291            
    1292            $C$DW$T$114     .dwtag  DW_TAG_typedef
    1293                    .dwattr $C$DW$T$114, DW_AT_name("__uint64_t")
    1294                    .dwattr $C$DW$T$114, DW_AT_type(*$C$DW$T$15)
    1295                    .dwattr $C$DW$T$114, DW_AT_language(DW_LANG_C)
    1296                    .dwattr $C$DW$T$114, DW_AT_decl_file("C:/ti/ccs1200/ccs/tools/compiler/ti-cgt-msp430_21.6.0.LT
    1297                    .dwattr $C$DW$T$114, DW_AT_decl_line(0x45)
    1298                    .dwattr $C$DW$T$114, DW_AT_decl_column(0x1c)
    1299            
    1300            $C$DW$T$115     .dwtag  DW_TAG_typedef
    1301                    .dwattr $C$DW$T$115, DW_AT_name("__dev_t")
    1302                    .dwattr $C$DW$T$115, DW_AT_type(*$C$DW$T$114)
    1303                    .dwattr $C$DW$T$115, DW_AT_language(DW_LANG_C)
    1304                    .dwattr $C$DW$T$115, DW_AT_decl_file("C:/ti/ccs1200/ccs/tools/compiler/ti-cgt-msp430_21.6.0.LT
    1305                    .dwattr $C$DW$T$115, DW_AT_decl_line(0x7f)
    1306                    .dwattr $C$DW$T$115, DW_AT_decl_column(0x14)
    1307            
    1308            $C$DW$T$116     .dwtag  DW_TAG_typedef
    1309                    .dwattr $C$DW$T$116, DW_AT_name("__fsblkcnt_t")
    1310                    .dwattr $C$DW$T$116, DW_AT_type(*$C$DW$T$114)
    1311                    .dwattr $C$DW$T$116, DW_AT_language(DW_LANG_C)
    1312                    .dwattr $C$DW$T$116, DW_AT_decl_file("C:/ti/ccs1200/ccs/tools/compiler/ti-cgt-msp430_21.6.0.LT
    1313                    .dwattr $C$DW$T$116, DW_AT_decl_line(0x33)
    1314                    .dwattr $C$DW$T$116, DW_AT_decl_column(0x14)
    1315            
    1316            $C$DW$T$117     .dwtag  DW_TAG_typedef
    1317                    .dwattr $C$DW$T$117, DW_AT_name("__fsfilcnt_t")
    1318                    .dwattr $C$DW$T$117, DW_AT_type(*$C$DW$T$114)
    1319                    .dwattr $C$DW$T$117, DW_AT_language(DW_LANG_C)
    1320                    .dwattr $C$DW$T$117, DW_AT_decl_file("C:/ti/ccs1200/ccs/tools/compiler/ti-cgt-msp430_21.6.0.LT
    1321                    .dwattr $C$DW$T$117, DW_AT_decl_line(0x34)
    1322                    .dwattr $C$DW$T$117, DW_AT_decl_column(0x14)
    1323            
    1324            $C$DW$T$118     .dwtag  DW_TAG_typedef
MSP430 Assembler PC v21.6.0 Mon Aug 29 17:25:18 2022

Copyright (c) 2003-2018 Texas Instruments Incorporated
C:\Users\chand\AppData\Local\Temp\{AB94F83C-4D24-4C8E-BFAA-F9C03CA5D725} PAGE   28

    1325                    .dwattr $C$DW$T$118, DW_AT_name("__ino_t")
    1326                    .dwattr $C$DW$T$118, DW_AT_type(*$C$DW$T$114)
    1327                    .dwattr $C$DW$T$118, DW_AT_language(DW_LANG_C)
    1328                    .dwattr $C$DW$T$118, DW_AT_decl_file("C:/ti/ccs1200/ccs/tools/compiler/ti-cgt-msp430_21.6.0.LT
    1329                    .dwattr $C$DW$T$118, DW_AT_decl_line(0x37)
    1330                    .dwattr $C$DW$T$118, DW_AT_decl_column(0x14)
    1331            
    1332            $C$DW$T$119     .dwtag  DW_TAG_typedef
    1333                    .dwattr $C$DW$T$119, DW_AT_name("__nlink_t")
    1334                    .dwattr $C$DW$T$119, DW_AT_type(*$C$DW$T$114)
    1335                    .dwattr $C$DW$T$119, DW_AT_language(DW_LANG_C)
    1336                    .dwattr $C$DW$T$119, DW_AT_decl_file("C:/ti/ccs1200/ccs/tools/compiler/ti-cgt-msp430_21.6.0.LT
    1337                    .dwattr $C$DW$T$119, DW_AT_decl_line(0x3d)
    1338                    .dwattr $C$DW$T$119, DW_AT_decl_column(0x14)
    1339            
    1340            $C$DW$T$120     .dwtag  DW_TAG_typedef
    1341                    .dwattr $C$DW$T$120, DW_AT_name("__uint_fast64_t")
    1342                    .dwattr $C$DW$T$120, DW_AT_type(*$C$DW$T$114)
    1343                    .dwattr $C$DW$T$120, DW_AT_language(DW_LANG_C)
    1344                    .dwattr $C$DW$T$120, DW_AT_decl_file("C:/ti/ccs1200/ccs/tools/compiler/ti-cgt-msp430_21.6.0.LT
    1345                    .dwattr $C$DW$T$120, DW_AT_decl_line(0x73)
    1346                    .dwattr $C$DW$T$120, DW_AT_decl_column(0x14)
    1347            
    1348            $C$DW$T$121     .dwtag  DW_TAG_typedef
    1349                    .dwattr $C$DW$T$121, DW_AT_name("__uint_least64_t")
    1350                    .dwattr $C$DW$T$121, DW_AT_type(*$C$DW$T$114)
    1351                    .dwattr $C$DW$T$121, DW_AT_language(DW_LANG_C)
    1352                    .dwattr $C$DW$T$121, DW_AT_decl_file("C:/ti/ccs1200/ccs/tools/compiler/ti-cgt-msp430_21.6.0.LT
    1353                    .dwattr $C$DW$T$121, DW_AT_decl_line(0x77)
    1354                    .dwattr $C$DW$T$121, DW_AT_decl_column(0x14)
    1355            
    1356            $C$DW$T$122     .dwtag  DW_TAG_typedef
    1357                    .dwattr $C$DW$T$122, DW_AT_name("__uintmax_t")
    1358                    .dwattr $C$DW$T$122, DW_AT_type(*$C$DW$T$114)
    1359                    .dwattr $C$DW$T$122, DW_AT_language(DW_LANG_C)
    1360                    .dwattr $C$DW$T$122, DW_AT_decl_file("C:/ti/ccs1200/ccs/tools/compiler/ti-cgt-msp430_21.6.0.LT
    1361                    .dwattr $C$DW$T$122, DW_AT_decl_line(0x69)
    1362                    .dwattr $C$DW$T$122, DW_AT_decl_column(0x14)
    1363            
    1364            $C$DW$T$123     .dwtag  DW_TAG_typedef
    1365                    .dwattr $C$DW$T$123, DW_AT_name("__rman_res_t")
    1366                    .dwattr $C$DW$T$123, DW_AT_type(*$C$DW$T$122)
    1367                    .dwattr $C$DW$T$123, DW_AT_language(DW_LANG_C)
    1368                    .dwattr $C$DW$T$123, DW_AT_decl_file("C:/ti/ccs1200/ccs/tools/compiler/ti-cgt-msp430_21.6.0.LT
    1369                    .dwattr $C$DW$T$123, DW_AT_decl_line(0x9a)
    1370                    .dwattr $C$DW$T$123, DW_AT_decl_column(0x19)
    1371            
    1372            $C$DW$T$16      .dwtag  DW_TAG_base_type
    1373                    .dwattr $C$DW$T$16, DW_AT_encoding(DW_ATE_float)
    1374                    .dwattr $C$DW$T$16, DW_AT_name("float")
    1375                    .dwattr $C$DW$T$16, DW_AT_byte_size(0x04)
    1376            
    1377            
    1378            $C$DW$T$124     .dwtag  DW_TAG_array_type
    1379                    .dwattr $C$DW$T$124, DW_AT_type(*$C$DW$T$16)
MSP430 Assembler PC v21.6.0 Mon Aug 29 17:25:18 2022

Copyright (c) 2003-2018 Texas Instruments Incorporated
C:\Users\chand\AppData\Local\Temp\{AB94F83C-4D24-4C8E-BFAA-F9C03CA5D725} PAGE   29

    1380                    .dwattr $C$DW$T$124, DW_AT_language(DW_LANG_C)
    1381                    .dwattr $C$DW$T$124, DW_AT_byte_size(0x14)
    1382            $C$DW$35        .dwtag  DW_TAG_subrange_type
    1383                    .dwattr $C$DW$35, DW_AT_upper_bound(0x04)
    1384            
    1385                    .dwendtag $C$DW$T$124
    1386            
    1387            $C$DW$T$126     .dwtag  DW_TAG_typedef
    1388                    .dwattr $C$DW$T$126, DW_AT_name("__float_t")
    1389                    .dwattr $C$DW$T$126, DW_AT_type(*$C$DW$T$16)
    1390                    .dwattr $C$DW$T$126, DW_AT_language(DW_LANG_C)
    1391                    .dwattr $C$DW$T$126, DW_AT_decl_file("C:/ti/ccs1200/ccs/tools/compiler/ti-cgt-msp430_21.6.0.LT
    1392                    .dwattr $C$DW$T$126, DW_AT_decl_line(0x4d)
    1393                    .dwattr $C$DW$T$126, DW_AT_decl_column(0x10)
    1394            
    1395            $C$DW$T$17      .dwtag  DW_TAG_base_type
    1396                    .dwattr $C$DW$T$17, DW_AT_encoding(DW_ATE_float)
    1397                    .dwattr $C$DW$T$17, DW_AT_name("double")
    1398                    .dwattr $C$DW$T$17, DW_AT_byte_size(0x08)
    1399            
    1400            $C$DW$T$127     .dwtag  DW_TAG_typedef
    1401                    .dwattr $C$DW$T$127, DW_AT_name("__double_t")
    1402                    .dwattr $C$DW$T$127, DW_AT_type(*$C$DW$T$17)
    1403                    .dwattr $C$DW$T$127, DW_AT_language(DW_LANG_C)
    1404                    .dwattr $C$DW$T$127, DW_AT_decl_file("C:/ti/ccs1200/ccs/tools/compiler/ti-cgt-msp430_21.6.0.LT
    1405                    .dwattr $C$DW$T$127, DW_AT_decl_line(0x4c)
    1406                    .dwattr $C$DW$T$127, DW_AT_decl_column(0x11)
    1407            
    1408            $C$DW$T$18      .dwtag  DW_TAG_base_type
    1409                    .dwattr $C$DW$T$18, DW_AT_encoding(DW_ATE_float)
    1410                    .dwattr $C$DW$T$18, DW_AT_name("long double")
    1411                    .dwattr $C$DW$T$18, DW_AT_byte_size(0x08)
    1412            
    1413            $C$DW$T$37      .dwtag  DW_TAG_const_type
    1414                    .dwattr $C$DW$T$37, DW_AT_type(*$C$DW$T$6)
    1415            
    1416            $C$DW$T$38      .dwtag  DW_TAG_pointer_type
    1417                    .dwattr $C$DW$T$38, DW_AT_type(*$C$DW$T$37)
    1418                    .dwattr $C$DW$T$38, DW_AT_address_class(0x10)
    1419            
    1420            $C$DW$T$39      .dwtag  DW_TAG_restrict_type
    1421                    .dwattr $C$DW$T$39, DW_AT_type(*$C$DW$T$38)
    1422            
    1423            $C$DW$T$128     .dwtag  DW_TAG_pointer_type
    1424                    .dwattr $C$DW$T$128, DW_AT_type(*$C$DW$T$6)
    1425                    .dwattr $C$DW$T$128, DW_AT_address_class(0x10)
    1426            
    1427            $C$DW$T$129     .dwtag  DW_TAG_typedef
    1428                    .dwattr $C$DW$T$129, DW_AT_name("__va_list")
    1429                    .dwattr $C$DW$T$129, DW_AT_type(*$C$DW$T$128)
    1430                    .dwattr $C$DW$T$129, DW_AT_language(DW_LANG_C)
    1431                    .dwattr $C$DW$T$129, DW_AT_decl_file("C:/ti/ccs1200/ccs/tools/compiler/ti-cgt-msp430_21.6.0.LT
    1432                    .dwattr $C$DW$T$129, DW_AT_decl_line(0x92)
    1433                    .dwattr $C$DW$T$129, DW_AT_decl_column(0x0f)
    1434            
MSP430 Assembler PC v21.6.0 Mon Aug 29 17:25:18 2022

Copyright (c) 2003-2018 Texas Instruments Incorporated
C:\Users\chand\AppData\Local\Temp\{AB94F83C-4D24-4C8E-BFAA-F9C03CA5D725} PAGE   30

    1435            $C$DW$T$130     .dwtag  DW_TAG_typedef
    1436                    .dwattr $C$DW$T$130, DW_AT_name("va_list")
    1437                    .dwattr $C$DW$T$130, DW_AT_type(*$C$DW$T$129)
    1438                    .dwattr $C$DW$T$130, DW_AT_language(DW_LANG_C)
    1439                    .dwattr $C$DW$T$130, DW_AT_decl_file("C:/ti/ccs1200/ccs/tools/compiler/ti-cgt-msp430_21.6.0.LT
    1440                    .dwattr $C$DW$T$130, DW_AT_decl_line(0x33)
    1441                    .dwattr $C$DW$T$130, DW_AT_decl_column(0x13)
    1442            
    1443            
    1444            $C$DW$T$19      .dwtag  DW_TAG_structure_type
    1445                    .dwattr $C$DW$T$19, DW_AT_name("__mq")
    1446                    .dwattr $C$DW$T$19, DW_AT_declaration
    1447                    .dwattr $C$DW$T$19, DW_AT_decl_file("C:/ti/ccs1200/ccs/tools/compiler/ti-cgt-msp430_21.6.0.LTS
    1448                    .dwattr $C$DW$T$19, DW_AT_decl_line(0x4c)
    1449                    .dwattr $C$DW$T$19, DW_AT_decl_column(0x10)
    1450                    .dwendtag $C$DW$T$19
    1451            
    1452            $C$DW$T$131     .dwtag  DW_TAG_pointer_type
    1453                    .dwattr $C$DW$T$131, DW_AT_type(*$C$DW$T$19)
    1454                    .dwattr $C$DW$T$131, DW_AT_address_class(0x10)
    1455            
    1456            $C$DW$T$132     .dwtag  DW_TAG_typedef
    1457                    .dwattr $C$DW$T$132, DW_AT_name("__mqd_t")
    1458                    .dwattr $C$DW$T$132, DW_AT_type(*$C$DW$T$131)
    1459                    .dwattr $C$DW$T$132, DW_AT_language(DW_LANG_C)
    1460                    .dwattr $C$DW$T$132, DW_AT_decl_file("C:/ti/ccs1200/ccs/tools/compiler/ti-cgt-msp430_21.6.0.LT
    1461                    .dwattr $C$DW$T$132, DW_AT_decl_line(0x4c)
    1462                    .dwattr $C$DW$T$132, DW_AT_decl_column(0x16)
    1463            
    1464            
    1465            $C$DW$T$23      .dwtag  DW_TAG_structure_type
    1466                    .dwattr $C$DW$T$23, DW_AT_name("__sFILE")
    1467                    .dwattr $C$DW$T$23, DW_AT_byte_size(0x0c)
    1468            $C$DW$36        .dwtag  DW_TAG_member
    1469                    .dwattr $C$DW$36, DW_AT_type(*$C$DW$T$10)
    1470                    .dwattr $C$DW$36, DW_AT_name("fd")
    1471                    .dwattr $C$DW$36, DW_AT_TI_symbol_name("fd")
    1472                    .dwattr $C$DW$36, DW_AT_data_member_location[DW_OP_plus_uconst 0x0]
    1473                    .dwattr $C$DW$36, DW_AT_accessibility(DW_ACCESS_public)
    1474                    .dwattr $C$DW$36, DW_AT_decl_file("C:/ti/ccs1200/ccs/tools/compiler/ti-cgt-msp430_21.6.0.LTS/i
    1475                    .dwattr $C$DW$36, DW_AT_decl_line(0x52)
    1476                    .dwattr $C$DW$36, DW_AT_decl_column(0x0b)
    1477            
    1478            $C$DW$37        .dwtag  DW_TAG_member
    1479                    .dwattr $C$DW$37, DW_AT_type(*$C$DW$T$22)
    1480                    .dwattr $C$DW$37, DW_AT_name("buf")
    1481                    .dwattr $C$DW$37, DW_AT_TI_symbol_name("buf")
    1482                    .dwattr $C$DW$37, DW_AT_data_member_location[DW_OP_plus_uconst 0x2]
    1483                    .dwattr $C$DW$37, DW_AT_accessibility(DW_ACCESS_public)
    1484                    .dwattr $C$DW$37, DW_AT_decl_file("C:/ti/ccs1200/ccs/tools/compiler/ti-cgt-msp430_21.6.0.LTS/i
    1485                    .dwattr $C$DW$37, DW_AT_decl_line(0x53)
    1486                    .dwattr $C$DW$37, DW_AT_decl_column(0x16)
    1487            
    1488            $C$DW$38        .dwtag  DW_TAG_member
    1489                    .dwattr $C$DW$38, DW_AT_type(*$C$DW$T$22)
MSP430 Assembler PC v21.6.0 Mon Aug 29 17:25:18 2022

Copyright (c) 2003-2018 Texas Instruments Incorporated
C:\Users\chand\AppData\Local\Temp\{AB94F83C-4D24-4C8E-BFAA-F9C03CA5D725} PAGE   31

    1490                    .dwattr $C$DW$38, DW_AT_name("pos")
    1491                    .dwattr $C$DW$38, DW_AT_TI_symbol_name("pos")
    1492                    .dwattr $C$DW$38, DW_AT_data_member_location[DW_OP_plus_uconst 0x4]
    1493                    .dwattr $C$DW$38, DW_AT_accessibility(DW_ACCESS_public)
    1494                    .dwattr $C$DW$38, DW_AT_decl_file("C:/ti/ccs1200/ccs/tools/compiler/ti-cgt-msp430_21.6.0.LTS/i
    1495                    .dwattr $C$DW$38, DW_AT_decl_line(0x54)
    1496                    .dwattr $C$DW$38, DW_AT_decl_column(0x16)
    1497            
    1498            $C$DW$39        .dwtag  DW_TAG_member
    1499                    .dwattr $C$DW$39, DW_AT_type(*$C$DW$T$22)
    1500                    .dwattr $C$DW$39, DW_AT_name("bufend")
    1501                    .dwattr $C$DW$39, DW_AT_TI_symbol_name("bufend")
    1502                    .dwattr $C$DW$39, DW_AT_data_member_location[DW_OP_plus_uconst 0x6]
    1503                    .dwattr $C$DW$39, DW_AT_accessibility(DW_ACCESS_public)
    1504                    .dwattr $C$DW$39, DW_AT_decl_file("C:/ti/ccs1200/ccs/tools/compiler/ti-cgt-msp430_21.6.0.LTS/i
    1505                    .dwattr $C$DW$39, DW_AT_decl_line(0x55)
    1506                    .dwattr $C$DW$39, DW_AT_decl_column(0x16)
    1507            
    1508            $C$DW$40        .dwtag  DW_TAG_member
    1509                    .dwattr $C$DW$40, DW_AT_type(*$C$DW$T$22)
    1510                    .dwattr $C$DW$40, DW_AT_name("buff_stop")
    1511                    .dwattr $C$DW$40, DW_AT_TI_symbol_name("buff_stop")
    1512                    .dwattr $C$DW$40, DW_AT_data_member_location[DW_OP_plus_uconst 0x8]
    1513                    .dwattr $C$DW$40, DW_AT_accessibility(DW_ACCESS_public)
    1514                    .dwattr $C$DW$40, DW_AT_decl_file("C:/ti/ccs1200/ccs/tools/compiler/ti-cgt-msp430_21.6.0.LTS/i
    1515                    .dwattr $C$DW$40, DW_AT_decl_line(0x56)
    1516                    .dwattr $C$DW$40, DW_AT_decl_column(0x16)
    1517            
    1518            $C$DW$41        .dwtag  DW_TAG_member
    1519                    .dwattr $C$DW$41, DW_AT_type(*$C$DW$T$11)
    1520                    .dwattr $C$DW$41, DW_AT_name("flags")
    1521                    .dwattr $C$DW$41, DW_AT_TI_symbol_name("flags")
    1522                    .dwattr $C$DW$41, DW_AT_data_member_location[DW_OP_plus_uconst 0xa]
    1523                    .dwattr $C$DW$41, DW_AT_accessibility(DW_ACCESS_public)
    1524                    .dwattr $C$DW$41, DW_AT_decl_file("C:/ti/ccs1200/ccs/tools/compiler/ti-cgt-msp430_21.6.0.LTS/i
    1525                    .dwattr $C$DW$41, DW_AT_decl_line(0x57)
    1526                    .dwattr $C$DW$41, DW_AT_decl_column(0x16)
    1527            
    1528                    .dwattr $C$DW$T$23, DW_AT_decl_file("C:/ti/ccs1200/ccs/tools/compiler/ti-cgt-msp430_21.6.0.LTS
    1529                    .dwattr $C$DW$T$23, DW_AT_decl_line(0x51)
    1530                    .dwattr $C$DW$T$23, DW_AT_decl_column(0x08)
    1531                    .dwendtag $C$DW$T$23
    1532            
    1533            $C$DW$T$133     .dwtag  DW_TAG_typedef
    1534                    .dwattr $C$DW$T$133, DW_AT_name("FILE")
    1535                    .dwattr $C$DW$T$133, DW_AT_type(*$C$DW$T$23)
    1536                    .dwattr $C$DW$T$133, DW_AT_language(DW_LANG_C)
    1537                    .dwattr $C$DW$T$133, DW_AT_decl_file("C:/ti/ccs1200/ccs/tools/compiler/ti-cgt-msp430_21.6.0.LT
    1538                    .dwattr $C$DW$T$133, DW_AT_decl_line(0x5c)
    1539                    .dwattr $C$DW$T$133, DW_AT_decl_column(0x18)
    1540            
    1541            
    1542            $C$DW$T$20      .dwtag  DW_TAG_structure_type
    1543                    .dwattr $C$DW$T$20, DW_AT_name("__timer")
    1544                    .dwattr $C$DW$T$20, DW_AT_declaration
MSP430 Assembler PC v21.6.0 Mon Aug 29 17:25:18 2022

Copyright (c) 2003-2018 Texas Instruments Incorporated
C:\Users\chand\AppData\Local\Temp\{AB94F83C-4D24-4C8E-BFAA-F9C03CA5D725} PAGE   32

    1545                    .dwattr $C$DW$T$20, DW_AT_decl_file("C:/ti/ccs1200/ccs/tools/compiler/ti-cgt-msp430_21.6.0.LTS
    1546                    .dwattr $C$DW$T$20, DW_AT_decl_line(0x4b)
    1547                    .dwattr $C$DW$T$20, DW_AT_decl_column(0x10)
    1548                    .dwendtag $C$DW$T$20
    1549            
    1550            $C$DW$T$134     .dwtag  DW_TAG_pointer_type
    1551                    .dwattr $C$DW$T$134, DW_AT_type(*$C$DW$T$20)
    1552                    .dwattr $C$DW$T$134, DW_AT_address_class(0x10)
    1553            
    1554            $C$DW$T$135     .dwtag  DW_TAG_typedef
    1555                    .dwattr $C$DW$T$135, DW_AT_name("__timer_t")
    1556                    .dwattr $C$DW$T$135, DW_AT_type(*$C$DW$T$134)
    1557                    .dwattr $C$DW$T$135, DW_AT_language(DW_LANG_C)
    1558                    .dwattr $C$DW$T$135, DW_AT_decl_file("C:/ti/ccs1200/ccs/tools/compiler/ti-cgt-msp430_21.6.0.LT
    1559                    .dwattr $C$DW$T$135, DW_AT_decl_line(0x4b)
    1560                    .dwattr $C$DW$T$135, DW_AT_decl_column(0x19)
    1561            
    1562                    .dwattr $C$DW$CU, DW_AT_language(DW_LANG_C)
    1563            
    1564            ;***************************************************************
    1565            ;* DWARF CIE ENTRIES                                           *
    1566            ;***************************************************************
    1567            
    1568            $C$DW$CIE       .dwcie 16
    1569                    .dwcfi  cfa_register, 1
    1570                    .dwcfi  cfa_offset, 0
    1571                    .dwcfi  same_value, 0
    1572                    .dwcfi  same_value, 1
    1573                    .dwcfi  same_value, 3
    1574                    .dwcfi  same_value, 4
    1575                    .dwcfi  same_value, 5
    1576                    .dwcfi  same_value, 6
    1577                    .dwcfi  same_value, 7
    1578                    .dwcfi  same_value, 8
    1579                    .dwcfi  same_value, 9
    1580                    .dwcfi  same_value, 10
    1581                    .dwendentry
    1582            
    1583            ;***************************************************************
    1584            ;* DWARF REGISTER MAP                                          *
    1585            ;***************************************************************
    1586            
    1587            $C$DW$42        .dwtag  DW_TAG_TI_assign_register
    1588                    .dwattr $C$DW$42, DW_AT_name("PC")
    1589                    .dwattr $C$DW$42, DW_AT_location[DW_OP_reg0]
    1590            
    1591            $C$DW$43        .dwtag  DW_TAG_TI_assign_register
    1592                    .dwattr $C$DW$43, DW_AT_name("SP")
    1593                    .dwattr $C$DW$43, DW_AT_location[DW_OP_reg1]
    1594            
    1595            $C$DW$44        .dwtag  DW_TAG_TI_assign_register
    1596                    .dwattr $C$DW$44, DW_AT_name("SR")
    1597                    .dwattr $C$DW$44, DW_AT_location[DW_OP_reg2]
    1598            
    1599            $C$DW$45        .dwtag  DW_TAG_TI_assign_register
MSP430 Assembler PC v21.6.0 Mon Aug 29 17:25:18 2022

Copyright (c) 2003-2018 Texas Instruments Incorporated
C:\Users\chand\AppData\Local\Temp\{AB94F83C-4D24-4C8E-BFAA-F9C03CA5D725} PAGE   33

    1600                    .dwattr $C$DW$45, DW_AT_name("CG")
    1601                    .dwattr $C$DW$45, DW_AT_location[DW_OP_reg3]
    1602            
    1603            $C$DW$46        .dwtag  DW_TAG_TI_assign_register
    1604                    .dwattr $C$DW$46, DW_AT_name("r4")
    1605                    .dwattr $C$DW$46, DW_AT_location[DW_OP_reg4]
    1606            
    1607            $C$DW$47        .dwtag  DW_TAG_TI_assign_register
    1608                    .dwattr $C$DW$47, DW_AT_name("r5")
    1609                    .dwattr $C$DW$47, DW_AT_location[DW_OP_reg5]
    1610            
    1611            $C$DW$48        .dwtag  DW_TAG_TI_assign_register
    1612                    .dwattr $C$DW$48, DW_AT_name("r6")
    1613                    .dwattr $C$DW$48, DW_AT_location[DW_OP_reg6]
    1614            
    1615            $C$DW$49        .dwtag  DW_TAG_TI_assign_register
    1616                    .dwattr $C$DW$49, DW_AT_name("r7")
    1617                    .dwattr $C$DW$49, DW_AT_location[DW_OP_reg7]
    1618            
    1619            $C$DW$50        .dwtag  DW_TAG_TI_assign_register
    1620                    .dwattr $C$DW$50, DW_AT_name("r8")
    1621                    .dwattr $C$DW$50, DW_AT_location[DW_OP_reg8]
    1622            
    1623            $C$DW$51        .dwtag  DW_TAG_TI_assign_register
    1624                    .dwattr $C$DW$51, DW_AT_name("r9")
    1625                    .dwattr $C$DW$51, DW_AT_location[DW_OP_reg9]
    1626            
    1627            $C$DW$52        .dwtag  DW_TAG_TI_assign_register
    1628                    .dwattr $C$DW$52, DW_AT_name("r10")
    1629                    .dwattr $C$DW$52, DW_AT_location[DW_OP_reg10]
    1630            
    1631            $C$DW$53        .dwtag  DW_TAG_TI_assign_register
    1632                    .dwattr $C$DW$53, DW_AT_name("r11")
    1633                    .dwattr $C$DW$53, DW_AT_location[DW_OP_reg11]
    1634            
    1635            $C$DW$54        .dwtag  DW_TAG_TI_assign_register
    1636                    .dwattr $C$DW$54, DW_AT_name("r12")
    1637                    .dwattr $C$DW$54, DW_AT_location[DW_OP_reg12]
    1638            
    1639            $C$DW$55        .dwtag  DW_TAG_TI_assign_register
    1640                    .dwattr $C$DW$55, DW_AT_name("r13")
    1641                    .dwattr $C$DW$55, DW_AT_location[DW_OP_reg13]
    1642            
    1643            $C$DW$56        .dwtag  DW_TAG_TI_assign_register
    1644                    .dwattr $C$DW$56, DW_AT_name("r14")
    1645                    .dwattr $C$DW$56, DW_AT_location[DW_OP_reg14]
    1646            
    1647            $C$DW$57        .dwtag  DW_TAG_TI_assign_register
    1648                    .dwattr $C$DW$57, DW_AT_name("r15")
    1649                    .dwattr $C$DW$57, DW_AT_location[DW_OP_reg15]
    1650            
    1651            $C$DW$58        .dwtag  DW_TAG_TI_assign_register
    1652                    .dwattr $C$DW$58, DW_AT_name("CIE_RETA")
    1653                    .dwattr $C$DW$58, DW_AT_location[DW_OP_reg16]
    1654            
MSP430 Assembler PC v21.6.0 Mon Aug 29 17:25:18 2022

Copyright (c) 2003-2018 Texas Instruments Incorporated
C:\Users\chand\AppData\Local\Temp\{AB94F83C-4D24-4C8E-BFAA-F9C03CA5D725} PAGE   34

    1655                    .dwendtag $C$DW$CU
    1656            

No Assembly Errors, No Assembly Warnings
