MSP430 Assembler PC v21.6.0 Thu Jan 26 18:00:54 2023

Copyright (c) 2003-2018 Texas Instruments Incorporated
C:\Users\chand\AppData\Local\Temp\{9F0D8E1E-DAF1-435E-80F4-6992212077E6} PAGE    1

       1            ;******************************************************************************
       2            ;* MSP430 G3 C/C++ Codegen                                              PC v21.6.0.LTS *
       3            ;* Date/Time created: Thu Jan 26 18:00:54 2023                                *
       4            ;******************************************************************************
       5                    .compiler_opts --abi=eabi --diag_wrap=off --hll_source=on --mem_model:code=small --mem_model:d
       6            
       7            $C$DW$CU        .dwtag  DW_TAG_compile_unit
       8                    .dwattr $C$DW$CU, DW_AT_name("../Lab01_P2.c")
       9                    .dwattr $C$DW$CU, DW_AT_producer("TI MSP430 G3 C/C++ Codegen PC v21.6.0.LTS Copyright (c) 2003
      10                    .dwattr $C$DW$CU, DW_AT_TI_version(0x01)
      11                    .dwattr $C$DW$CU, DW_AT_comp_dir("C:\Users\chand\workspace_v12\Project02_2023\Debug")
      12            $C$DW$1 .dwtag  DW_TAG_variable
      13                    .dwattr $C$DW$1, DW_AT_name("WDTCTL")
      14                    .dwattr $C$DW$1, DW_AT_TI_symbol_name("WDTCTL")
      15                    .dwattr $C$DW$1, DW_AT_type(*$C$DW$T$70)
      16                    .dwattr $C$DW$1, DW_AT_declaration
      17                    .dwattr $C$DW$1, DW_AT_external
      18                    .dwattr $C$DW$1, DW_AT_decl_file("C:\ti\ccs1200\ccs\ccs_base\msp430\include\msp430f5529.h")
      19                    .dwattr $C$DW$1, DW_AT_decl_line(0x1232)
      20                    .dwattr $C$DW$1, DW_AT_decl_column(0x01)
      21            
      22            $C$DW$2 .dwtag  DW_TAG_variable
      23                    .dwattr $C$DW$2, DW_AT_name("_ftable")
      24                    .dwattr $C$DW$2, DW_AT_TI_symbol_name("_ftable")
      25                    .dwattr $C$DW$2, DW_AT_type(*$C$DW$T$139)
      26                    .dwattr $C$DW$2, DW_AT_declaration
      27                    .dwattr $C$DW$2, DW_AT_external
      28                    .dwattr $C$DW$2, DW_AT_decl_file("C:/ti/ccs1200/ccs/tools/compiler/ti-cgt-msp430_21.6.0.LTS/in
      29                    .dwattr $C$DW$2, DW_AT_decl_line(0xd9)
      30                    .dwattr $C$DW$2, DW_AT_decl_column(0x1a)
      31            
      32            
      33            $C$DW$3 .dwtag  DW_TAG_subprogram
      34                    .dwattr $C$DW$3, DW_AT_name("memset")
      35                    .dwattr $C$DW$3, DW_AT_TI_symbol_name("memset")
      36                    .dwattr $C$DW$3, DW_AT_type(*$C$DW$T$3)
      37                    .dwattr $C$DW$3, DW_AT_declaration
      38                    .dwattr $C$DW$3, DW_AT_external
      39                    .dwendtag $C$DW$3
      40            
      41            
      42            $C$DW$4 .dwtag  DW_TAG_subprogram
      43                    .dwattr $C$DW$4, DW_AT_name("printf")
      44                    .dwattr $C$DW$4, DW_AT_TI_symbol_name("printf")
      45                    .dwattr $C$DW$4, DW_AT_type(*$C$DW$T$10)
      46                    .dwattr $C$DW$4, DW_AT_declaration
      47                    .dwattr $C$DW$4, DW_AT_external
      48                    .dwattr $C$DW$4, DW_AT_decl_file("C:/ti/ccs1200/ccs/tools/compiler/ti-cgt-msp430_21.6.0.LTS/in
      49                    .dwattr $C$DW$4, DW_AT_decl_line(0x100)
      50                    .dwattr $C$DW$4, DW_AT_decl_column(0x19)
      51            $C$DW$5 .dwtag  DW_TAG_formal_parameter
      52                    .dwattr $C$DW$5, DW_AT_type(*$C$DW$T$45)
      53            
      54            $C$DW$6 .dwtag  DW_TAG_unspecified_parameters
      55            
MSP430 Assembler PC v21.6.0 Thu Jan 26 18:00:54 2023

Copyright (c) 2003-2018 Texas Instruments Incorporated
C:\Users\chand\AppData\Local\Temp\{9F0D8E1E-DAF1-435E-80F4-6992212077E6} PAGE    2

      56                    .dwendtag $C$DW$4
      57            
      58            
      59            $C$DW$7 .dwtag  DW_TAG_subprogram
      60                    .dwattr $C$DW$7, DW_AT_name("fflush")
      61                    .dwattr $C$DW$7, DW_AT_TI_symbol_name("fflush")
      62                    .dwattr $C$DW$7, DW_AT_type(*$C$DW$T$10)
      63                    .dwattr $C$DW$7, DW_AT_declaration
      64                    .dwattr $C$DW$7, DW_AT_external
      65                    .dwattr $C$DW$7, DW_AT_decl_file("C:/ti/ccs1200/ccs/tools/compiler/ti-cgt-msp430_21.6.0.LTS/in
      66                    .dwattr $C$DW$7, DW_AT_decl_line(0xf5)
      67                    .dwattr $C$DW$7, DW_AT_decl_column(0x1d)
      68            $C$DW$8 .dwtag  DW_TAG_formal_parameter
      69                    .dwattr $C$DW$8, DW_AT_type(*$C$DW$T$39)
      70            
      71                    .dwendtag $C$DW$7
      72            
      73            ;       C:\ti\ccs1200\ccs\tools\compiler\ti-cgt-msp430_21.6.0.LTS\bin\acpia430.exe -@C:\\Users\\chand\
      74 000000               .sect   ".text:get_prime_factors"
      75                    .clink
      76                    .global get_prime_factors
      77            
      78            $C$DW$9 .dwtag  DW_TAG_subprogram
      79                    .dwattr $C$DW$9, DW_AT_name("get_prime_factors")
      80                    .dwattr $C$DW$9, DW_AT_low_pc(get_prime_factors)
      81                    .dwattr $C$DW$9, DW_AT_high_pc(0x00)
      82                    .dwattr $C$DW$9, DW_AT_TI_symbol_name("get_prime_factors")
      83                    .dwattr $C$DW$9, DW_AT_external
      84                    .dwattr $C$DW$9, DW_AT_type(*$C$DW$T$10)
      85                    .dwattr $C$DW$9, DW_AT_TI_begin_file("../Lab01_P2.c")
      86                    .dwattr $C$DW$9, DW_AT_TI_begin_line(0x19)
      87                    .dwattr $C$DW$9, DW_AT_TI_begin_column(0x05)
      88                    .dwattr $C$DW$9, DW_AT_decl_file("../Lab01_P2.c")
      89                    .dwattr $C$DW$9, DW_AT_decl_line(0x19)
      90                    .dwattr $C$DW$9, DW_AT_decl_column(0x05)
      91                    .dwattr $C$DW$9, DW_AT_TI_max_frame_size(0x0c)
      92                    .dwpsn  file "../Lab01_P2.c",line 26,column 1,is_stmt,address get_prime_factors,isa 0
      93            
      94                    .dwfde $C$DW$CIE, get_prime_factors
      95            $C$DW$10        .dwtag  DW_TAG_formal_parameter
      96                    .dwattr $C$DW$10, DW_AT_name("factors")
      97                    .dwattr $C$DW$10, DW_AT_TI_symbol_name("factors")
      98                    .dwattr $C$DW$10, DW_AT_type(*$C$DW$T$48)
      99                    .dwattr $C$DW$10, DW_AT_location[DW_OP_reg12]
     100            
     101            $C$DW$11        .dwtag  DW_TAG_formal_parameter
     102                    .dwattr $C$DW$11, DW_AT_name("value")
     103                    .dwattr $C$DW$11, DW_AT_TI_symbol_name("value")
     104                    .dwattr $C$DW$11, DW_AT_type(*$C$DW$T$10)
     105                    .dwattr $C$DW$11, DW_AT_location[DW_OP_reg13]
     106            
     107            
     108            ;*****************************************************************************
     109            ;* FUNCTION NAME: get_prime_factors                                          *
     110            ;*                                                                           *
MSP430 Assembler PC v21.6.0 Thu Jan 26 18:00:54 2023

Copyright (c) 2003-2018 Texas Instruments Incorporated
C:\Users\chand\AppData\Local\Temp\{9F0D8E1E-DAF1-435E-80F4-6992212077E6} PAGE    3

     111            ;*   Regs Modified     : SP,SR,r11,r12,r13,r14,r15                           *
     112            ;*   Regs Used         : SP,SR,r11,r12,r13,r14,r15                           *
     113            ;*   Local Frame Size  : 0 Args + 10 Auto + 0 Save = 10 byte                 *
     114            ;*****************************************************************************
     115 000000       get_prime_factors:
     116            ;* --------------------------------------------------------------------------*
     117                    .dwcfi  cfa_offset, 2
     118                    .dwcfi  save_reg_to_mem, 16, -2
     119 000000 8031          SUB.W     #10,SP                ; [] 
         000002 000A 
     120                    .dwcfi  cfa_offset, 12
     121            $C$DW$12        .dwtag  DW_TAG_variable
     122                    .dwattr $C$DW$12, DW_AT_name("factors")
     123                    .dwattr $C$DW$12, DW_AT_TI_symbol_name("factors")
     124                    .dwattr $C$DW$12, DW_AT_type(*$C$DW$T$48)
     125                    .dwattr $C$DW$12, DW_AT_location[DW_OP_breg1 0]
     126            
     127            $C$DW$13        .dwtag  DW_TAG_variable
     128                    .dwattr $C$DW$13, DW_AT_name("value")
     129                    .dwattr $C$DW$13, DW_AT_TI_symbol_name("value")
     130                    .dwattr $C$DW$13, DW_AT_type(*$C$DW$T$10)
     131                    .dwattr $C$DW$13, DW_AT_location[DW_OP_breg1 2]
     132            
     133            $C$DW$14        .dwtag  DW_TAG_variable
     134                    .dwattr $C$DW$14, DW_AT_name("output_factor_num")
     135                    .dwattr $C$DW$14, DW_AT_TI_symbol_name("output_factor_num")
     136                    .dwattr $C$DW$14, DW_AT_type(*$C$DW$T$10)
     137                    .dwattr $C$DW$14, DW_AT_location[DW_OP_breg1 4]
     138            
     139            $C$DW$15        .dwtag  DW_TAG_variable
     140                    .dwattr $C$DW$15, DW_AT_name("factor")
     141                    .dwattr $C$DW$15, DW_AT_TI_symbol_name("factor")
     142                    .dwattr $C$DW$15, DW_AT_type(*$C$DW$T$10)
     143                    .dwattr $C$DW$15, DW_AT_location[DW_OP_breg1 6]
     144            
     145            $C$DW$16        .dwtag  DW_TAG_variable
     146                    .dwattr $C$DW$16, DW_AT_name("factor_found")
     147                    .dwattr $C$DW$16, DW_AT_TI_symbol_name("factor_found")
     148                    .dwattr $C$DW$16, DW_AT_type(*$C$DW$T$6)
     149                    .dwattr $C$DW$16, DW_AT_location[DW_OP_breg1 8]
     150            
     151 000004 4D81          MOV.W     r13,2(SP)             ; [] |26| 
         000006 0002 
     152 000008 4C81          MOV.W     r12,0(SP)             ; [] |26| 
         00000a 0000 
     153                    .dwpsn  file "../Lab01_P2.c",line 27,column 27,is_stmt,isa 0
     154 00000c 4381          MOV.W     #0,4(SP)              ; [] |27| 
         00000e 0004 
     155                    .dwpsn  file "../Lab01_P2.c",line 31,column 5,is_stmt,isa 0
     156 000010 9381          TST.W     2(SP)                 ; [] |31| 
         000012 0002 
     157 000014 3402          JGE       $C$L1                 ; [] |31| 
     158                                                      ; [] |31| 
     159            ;* --------------------------------------------------------------------------*
     160                    .dwpsn  file "../Lab01_P2.c",line 32,column 9,is_stmt,isa 0
MSP430 Assembler PC v21.6.0 Thu Jan 26 18:00:54 2023

Copyright (c) 2003-2018 Texas Instruments Incorporated
C:\Users\chand\AppData\Local\Temp\{9F0D8E1E-DAF1-435E-80F4-6992212077E6} PAGE    4

     161 000016 433C          MOV.W     #-1,r12               ; [] |32| 
     162 000018 3C30          JMP       $C$L7                 ; [] |32| 
     163                                                      ; [] |32| 
     164            ;* --------------------------------------------------------------------------*
     165 00001a       $C$L1:    
     166                    .dwpsn  file "../Lab01_P2.c",line 35,column 12,is_stmt,isa 0
     167            ;* --------------------------------------------------------------------------*
     168            ;*   BEGIN LOOP $C$L2
     169            ;*
     170            ;*   Loop source line                : 35
     171            ;*   Loop closing brace source line  : 58
     172            ;*   Known Minimum Trip Count        : 1
     173            ;*   Known Maximum Trip Count        : 4294967295
     174            ;*   Known Max Trip Count Factor     : 1
     175            ;* --------------------------------------------------------------------------*
     176 00001a       $C$L2:    
     177                    .dwpsn  file "../Lab01_P2.c",line 36,column 9,is_stmt,isa 0
     178 00001a 43C1          MOV.B     #0,8(SP)              ; [] |36| 
         00001c 0008 
     179                    .dwpsn  file "../Lab01_P2.c",line 37,column 9,is_stmt,isa 0
     180 00001e 43A1          MOV.W     #2,6(SP)              ; [] |37| 
         000020 0006 
     181                    .dwpsn  file "../Lab01_P2.c",line 40,column 16,is_stmt,isa 0
     182 000022 9191          CMP.W     6(SP),2(SP)           ; [] |40| 
         000024 0006 
         000026 0002 
     183 000028 3811          JL        $C$L5                 ; [] |40| 
     184                                                      ; [] |40| 
     185            ;* --------------------------------------------------------------------------*
     186            ;*   BEGIN LOOP $C$L3
     187            ;*
     188            ;*   Loop source line                : 40
     189            ;*   Loop closing brace source line  : 49
     190            ;*   Known Minimum Trip Count        : 1
     191            ;*   Known Maximum Trip Count        : 4294967295
     192            ;*   Known Max Trip Count Factor     : 1
     193            ;* --------------------------------------------------------------------------*
     194 00002a       $C$L3:    
     195                    .dwpsn  file "../Lab01_P2.c",line 41,column 13,is_stmt,isa 0
     196 00002a 411C          MOV.W     2(SP),r12             ; [] |41| 
         00002c 0002 
     197 00002e 411D          MOV.W     6(SP),r13             ; [] |41| 
         000030 0006 
     198            $C$DW$17        .dwtag  DW_TAG_TI_branch
     199                    .dwattr $C$DW$17, DW_AT_low_pc(0x00)
     200                    .dwattr $C$DW$17, DW_AT_name("__mspabi_remi")
     201                    .dwattr $C$DW$17, DW_AT_TI_call
     202            
     203 000032 12B0          CALL      #__mspabi_remi        ; [] |41| 
         000034 0000!
     204                                                      ; [] |41| 
     205 000036 930E          TST.W     r14                   ; [] |41| 
     206 000038 2003          JNE       $C$L4                 ; [] |41| 
     207                                                      ; [] |41| 
     208            ;* --------------------------------------------------------------------------*
MSP430 Assembler PC v21.6.0 Thu Jan 26 18:00:54 2023

Copyright (c) 2003-2018 Texas Instruments Incorporated
C:\Users\chand\AppData\Local\Temp\{9F0D8E1E-DAF1-435E-80F4-6992212077E6} PAGE    5

     209                    .dwpsn  file "../Lab01_P2.c",line 43,column 17,is_stmt,isa 0
     210 00003a 43D1          MOV.B     #1,8(SP)              ; [] |43| 
         00003c 0008 
     211                    .dwpsn  file "../Lab01_P2.c",line 44,column 17,is_stmt,isa 0
     212 00003e 3C06          JMP       $C$L5                 ; [] |44| 
     213                                                      ; [] |44| 
     214            ;* --------------------------------------------------------------------------*
     215 000040       $C$L4:    
     216                    .dwpsn  file "../Lab01_P2.c",line 48,column 13,is_stmt,isa 0
     217 000040 5391          ADD.W     #1,6(SP)              ; [] |48| 
         000042 0006 
     218                    .dwpsn  file "../Lab01_P2.c",line 40,column 16,is_stmt,isa 0
     219 000044 9191          CMP.W     6(SP),2(SP)           ; [] |40| 
         000046 0006 
         000048 0002 
     220 00004a 37EF          JGE       $C$L3                 ; [] |40| 
     221                                                      ; [] |40| 
     222            ;* --------------------------------------------------------------------------*
     223 00004c       $C$L5:    
     224                    .dwpsn  file "../Lab01_P2.c",line 51,column 9,is_stmt,isa 0
     225 00004c 93C1          TST.B     8(SP)                 ; [] |51| 
         00004e 0008 
     226 000050 2412          JEQ       $C$L6                 ; [] |51| 
     227                                                      ; [] |51| 
     228            ;* --------------------------------------------------------------------------*
     229                    .dwpsn  file "../Lab01_P2.c",line 52,column 13,is_stmt,isa 0
     230                    .dwpsn  file "../Lab01_P2.c",line 55,column 9,is_stmt,isa 0
     231 000052 411F          MOV.W     4(SP),r15             ; [] |55| 
         000054 0004 
     232 000056 5F0F          RLA.W     r15                   ; [] |55| 
     233 000058 512F          ADD.W     0(SP),r15             ; [] |55| 
     234 00005a 419F          MOV.W     6(SP),0(r15)          ; [] |55| 
         00005c 0006 
         00005e 0000 
     235                    .dwpsn  file "../Lab01_P2.c",line 56,column 9,is_stmt,isa 0
     236 000060 5391          ADD.W     #1,4(SP)              ; [] |56| 
         000062 0004 
     237                    .dwpsn  file "../Lab01_P2.c",line 57,column 9,is_stmt,isa 0
     238 000064 411C          MOV.W     2(SP),r12             ; [] |57| 
         000066 0002 
     239 000068 411D          MOV.W     6(SP),r13             ; [] |57| 
         00006a 0006 
     240            $C$DW$18        .dwtag  DW_TAG_TI_branch
     241                    .dwattr $C$DW$18, DW_AT_low_pc(0x00)
     242                    .dwattr $C$DW$18, DW_AT_name("__mspabi_divi")
     243                    .dwattr $C$DW$18, DW_AT_TI_call
     244            
     245 00006c 12B0          CALL      #__mspabi_divi        ; [] |57| 
         00006e 0000!
     246                                                      ; [] |57| 
     247 000070 4C81          MOV.W     r12,2(SP)             ; [] |57| 
         000072 0002 
     248                    .dwpsn  file "../Lab01_P2.c",line 35,column 12,is_stmt,isa 0
     249 000074 3FD2          JMP       $C$L2                 ; [] |35| 
     250                                                      ; [] |35| 
MSP430 Assembler PC v21.6.0 Thu Jan 26 18:00:54 2023

Copyright (c) 2003-2018 Texas Instruments Incorporated
C:\Users\chand\AppData\Local\Temp\{9F0D8E1E-DAF1-435E-80F4-6992212077E6} PAGE    6

     251            ;* --------------------------------------------------------------------------*
     252 000076       $C$L6:    
     253                    .dwpsn  file "../Lab01_P2.c",line 60,column 5,is_stmt,isa 0
     254 000076 411C          MOV.W     4(SP),r12             ; [] |60| 
         000078 0004 
     255            ;* --------------------------------------------------------------------------*
     256 00007a       $C$L7:    
     257                    .dwpsn  file "../Lab01_P2.c",line 61,column 1,is_stmt,isa 0
     258 00007a 5031          ADD.W     #10,SP                ; [] 
         00007c 000A 
     259                    .dwcfi  cfa_offset, 2
     260            $C$DW$19        .dwtag  DW_TAG_TI_branch
     261                    .dwattr $C$DW$19, DW_AT_low_pc(0x00)
     262                    .dwattr $C$DW$19, DW_AT_TI_return
     263            
     264 00007e 4130          RET       ; [] 
     265                    ; [] 
     266                    .dwattr $C$DW$9, DW_AT_TI_end_file("../Lab01_P2.c")
     267                    .dwattr $C$DW$9, DW_AT_TI_end_line(0x3d)
     268                    .dwattr $C$DW$9, DW_AT_TI_end_column(0x01)
     269                    .dwendentry
     270                    .dwendtag $C$DW$9
     271            
     272 000000               .sect   ".text:main"
     273                    .clink
     274                    .global main
     275            
     276            $C$DW$20        .dwtag  DW_TAG_subprogram
     277                    .dwattr $C$DW$20, DW_AT_name("main")
     278                    .dwattr $C$DW$20, DW_AT_low_pc(main)
     279                    .dwattr $C$DW$20, DW_AT_high_pc(0x00)
     280                    .dwattr $C$DW$20, DW_AT_TI_symbol_name("main")
     281                    .dwattr $C$DW$20, DW_AT_external
     282                    .dwattr $C$DW$20, DW_AT_type(*$C$DW$T$10)
     283                    .dwattr $C$DW$20, DW_AT_TI_begin_file("../Lab01_P2.c")
     284                    .dwattr $C$DW$20, DW_AT_TI_begin_line(0x40)
     285                    .dwattr $C$DW$20, DW_AT_TI_begin_column(0x05)
     286                    .dwattr $C$DW$20, DW_AT_decl_file("../Lab01_P2.c")
     287                    .dwattr $C$DW$20, DW_AT_decl_line(0x40)
     288                    .dwattr $C$DW$20, DW_AT_decl_column(0x05)
     289                    .dwattr $C$DW$20, DW_AT_TI_max_frame_size(0x20)
     290                    .dwpsn  file "../Lab01_P2.c",line 65,column 1,is_stmt,address main,isa 0
     291            
     292                    .dwfde $C$DW$CIE, main
     293            
     294            ;*****************************************************************************
     295            ;* FUNCTION NAME: main                                                       *
     296            ;*                                                                           *
     297            ;*   Regs Modified     : SP,SR,r11,r12,r13,r14,r15                           *
     298            ;*   Regs Used         : SP,SR,r11,r12,r13,r14,r15                           *
     299            ;*   Local Frame Size  : 4 Args + 26 Auto + 0 Save = 30 byte                 *
     300            ;*****************************************************************************
     301 000000       main:
     302            ;* --------------------------------------------------------------------------*
     303                    .dwcfi  cfa_offset, 2
MSP430 Assembler PC v21.6.0 Thu Jan 26 18:00:54 2023

Copyright (c) 2003-2018 Texas Instruments Incorporated
C:\Users\chand\AppData\Local\Temp\{9F0D8E1E-DAF1-435E-80F4-6992212077E6} PAGE    7

     304                    .dwcfi  save_reg_to_mem, 16, -2
     305 000000 8031          SUB.W     #30,SP                ; [] 
         000002 001E 
     306                    .dwcfi  cfa_offset, 32
     307            $C$DW$21        .dwtag  DW_TAG_variable
     308                    .dwattr $C$DW$21, DW_AT_name("prime_factors")
     309                    .dwattr $C$DW$21, DW_AT_TI_symbol_name("prime_factors")
     310                    .dwattr $C$DW$21, DW_AT_type(*$C$DW$T$53)
     311                    .dwattr $C$DW$21, DW_AT_location[DW_OP_breg1 4]
     312            
     313            $C$DW$22        .dwtag  DW_TAG_variable
     314                    .dwattr $C$DW$22, DW_AT_name("INPUT_VALUE")
     315                    .dwattr $C$DW$22, DW_AT_TI_symbol_name("INPUT_VALUE")
     316                    .dwattr $C$DW$22, DW_AT_type(*$C$DW$T$52)
     317                    .dwattr $C$DW$22, DW_AT_location[DW_OP_breg1 24]
     318            
     319            $C$DW$23        .dwtag  DW_TAG_variable
     320                    .dwattr $C$DW$23, DW_AT_name("num_factors")
     321                    .dwattr $C$DW$23, DW_AT_TI_symbol_name("num_factors")
     322                    .dwattr $C$DW$23, DW_AT_type(*$C$DW$T$10)
     323                    .dwattr $C$DW$23, DW_AT_location[DW_OP_breg1 26]
     324            
     325            $C$DW$24        .dwtag  DW_TAG_variable
     326                    .dwattr $C$DW$24, DW_AT_name("i")
     327                    .dwattr $C$DW$24, DW_AT_TI_symbol_name("i")
     328                    .dwattr $C$DW$24, DW_AT_type(*$C$DW$T$10)
     329                    .dwattr $C$DW$24, DW_AT_location[DW_OP_breg1 28]
     330            
     331                    .dwpsn  file "../Lab01_P2.c",line 66,column 5,is_stmt,isa 0
     332 000004 40B2          MOV.W     #23168,&WDTCTL+0      ; [] |66| 
         000006 5A80 
         000008 0000!
     333                    .dwpsn  file "../Lab01_P2.c",line 69,column 27,is_stmt,isa 0
     334 00000a 40B1          MOV.W     #84,24(SP)            ; [] |69| 
         00000c 0054 
         00000e 0018 
     335                    .dwpsn  file "../Lab01_P2.c",line 73,column 27,is_stmt,isa 0
     336 000010 410C          MOV.W     SP,r12                ; [] |73| 
     337 000012 522C          ADD.W     #4,r12                ; [] |73| 
     338 000014 430D          MOV.W     #0,r13                ; [] |73| 
     339 000016 403E          MOV.W     #20,r14               ; [] |73| 
         000018 0014 
     340            $C$DW$25        .dwtag  DW_TAG_TI_branch
     341                    .dwattr $C$DW$25, DW_AT_low_pc(0x00)
     342                    .dwattr $C$DW$25, DW_AT_name("memset")
     343                    .dwattr $C$DW$25, DW_AT_TI_call
     344            
     345 00001a 12B0          CALL      #memset               ; [] |73| 
         00001c 0000!
     346                                                      ; [] |73| 
     347                    .dwpsn  file "../Lab01_P2.c",line 79,column 5,is_stmt,isa 0
     348 00001e 410C          MOV.W     SP,r12                ; [] |79| 
     349 000020 522C          ADD.W     #4,r12                ; [] |79| 
     350 000022 403D          MOV.W     #84,r13               ; [] |79| 
         000024 0054 
MSP430 Assembler PC v21.6.0 Thu Jan 26 18:00:54 2023

Copyright (c) 2003-2018 Texas Instruments Incorporated
C:\Users\chand\AppData\Local\Temp\{9F0D8E1E-DAF1-435E-80F4-6992212077E6} PAGE    8

     351            $C$DW$26        .dwtag  DW_TAG_TI_branch
     352                    .dwattr $C$DW$26, DW_AT_low_pc(0x00)
     353                    .dwattr $C$DW$26, DW_AT_name("get_prime_factors")
     354                    .dwattr $C$DW$26, DW_AT_TI_call
     355            
     356 000026 12B0          CALL      #get_prime_factors    ; [] |79| 
         000028 0000!
     357                                                      ; [] |79| 
     358 00002a 4C81          MOV.W     r12,26(SP)            ; [] |79| 
         00002c 001A 
     359                    .dwpsn  file "../Lab01_P2.c",line 80,column 5,is_stmt,isa 0
     360 00002e 93B1          CMP.W     #65535,26(SP)         ; [] |80| 
         000030 001A 
     361 000032 2002          JNE       $C$L8                 ; [] |80| 
     362                                                      ; [] |80| 
     363            ;* --------------------------------------------------------------------------*
     364                    .dwpsn  file "../Lab01_P2.c",line 81,column 9,is_stmt,isa 0
     365 000034 431C          MOV.W     #1,r12                ; [] |81| 
     366 000036 3C30          JMP       $C$L11                ; [] |81| 
     367                                                      ; [] |81| 
     368            ;* --------------------------------------------------------------------------*
     369 000038       $C$L8:    
     370                    .dwpsn  file "../Lab01_P2.c",line 84,column 5,is_stmt,isa 0
     371 000038 40B1          MOV.W     #$C$SL1+0,0(SP)       ; [] |84| 
         00003a 0000!
         00003c 0000 
     372 00003e 40B1          MOV.W     #84,2(SP)             ; [] |84| 
         000040 0054 
         000042 0002 
     373            $C$DW$27        .dwtag  DW_TAG_TI_branch
     374                    .dwattr $C$DW$27, DW_AT_low_pc(0x00)
     375                    .dwattr $C$DW$27, DW_AT_name("printf")
     376                    .dwattr $C$DW$27, DW_AT_TI_call
     377            
     378 000044 12B0          CALL      #printf               ; [] |84| 
         000046 0000!
     379                                                      ; [] |84| 
     380                    .dwpsn  file "../Lab01_P2.c",line 85,column 5,is_stmt,isa 0
     381 000048 40B1          MOV.W     #$C$SL2+0,0(SP)       ; [] |85| 
         00004a 0000!
         00004c 0000 
     382            $C$DW$28        .dwtag  DW_TAG_TI_branch
     383                    .dwattr $C$DW$28, DW_AT_low_pc(0x00)
     384                    .dwattr $C$DW$28, DW_AT_name("printf")
     385                    .dwattr $C$DW$28, DW_AT_TI_call
     386            
     387 00004e 12B0          CALL      #printf               ; [] |85| 
         000050 0000!
     388                                                      ; [] |85| 
     389                    .dwpsn  file "../Lab01_P2.c",line 86,column 10,is_stmt,isa 0
     390 000052 4381          MOV.W     #0,28(SP)             ; [] |86| 
         000054 001C 
     391                    .dwpsn  file "../Lab01_P2.c",line 86,column 17,is_stmt,isa 0
     392 000056 9191          CMP.W     26(SP),28(SP)         ; [] |86| 
         000058 001A 
MSP430 Assembler PC v21.6.0 Thu Jan 26 18:00:54 2023

Copyright (c) 2003-2018 Texas Instruments Incorporated
C:\Users\chand\AppData\Local\Temp\{9F0D8E1E-DAF1-435E-80F4-6992212077E6} PAGE    9

         00005a 001C 
     393 00005c 3413          JGE       $C$L10                ; [] |86| 
     394                                                      ; [] |86| 
     395            ;* --------------------------------------------------------------------------*
     396            ;*   BEGIN LOOP $C$L9
     397            ;*
     398            ;*   Loop source line                : 86
     399            ;*   Loop closing brace source line  : 87
     400            ;*   Known Minimum Trip Count        : 1
     401            ;*   Known Maximum Trip Count        : 4294967295
     402            ;*   Known Max Trip Count Factor     : 1
     403            ;* --------------------------------------------------------------------------*
     404 00005e       $C$L9:    
     405                    .dwpsn  file "../Lab01_P2.c",line 87,column 9,is_stmt,isa 0
     406 00005e 40B1          MOV.W     #$C$SL3+0,0(SP)       ; [] |87| 
         000060 0000!
         000062 0000 
     407 000064 411F          MOV.W     28(SP),r15            ; [] |87| 
         000066 001C 
     408 000068 5F0F          RLA.W     r15                   ; [] |87| 
     409 00006a 410E          MOV.W     SP,r14                ; [] |87| 
     410 00006c 522E          ADD.W     #4,r14                ; [] |87| 
     411 00006e 5F0E          ADD.W     r15,r14               ; [] |87| 
     412 000070 4EA1          MOV.W     @r14,2(SP)            ; [] |87| 
         000072 0002 
     413            $C$DW$29        .dwtag  DW_TAG_TI_branch
     414                    .dwattr $C$DW$29, DW_AT_low_pc(0x00)
     415                    .dwattr $C$DW$29, DW_AT_name("printf")
     416                    .dwattr $C$DW$29, DW_AT_TI_call
     417            
     418 000074 12B0          CALL      #printf               ; [] |87| 
         000076 0000!
     419                                                      ; [] |87| 
     420                    .dwpsn  file "../Lab01_P2.c",line 86,column 34,is_stmt,isa 0
     421 000078 5391          ADD.W     #1,28(SP)             ; [] |86| 
         00007a 001C 
     422                    .dwpsn  file "../Lab01_P2.c",line 86,column 17,is_stmt,isa 0
     423 00007c 9191          CMP.W     26(SP),28(SP)         ; [] |86| 
         00007e 001A 
         000080 001C 
     424 000082 3BED          JL        $C$L9                 ; [] |86| 
     425                                                      ; [] |86| 
     426            ;* --------------------------------------------------------------------------*
     427 000084       $C$L10:    
     428                    .dwpsn  file "../Lab01_P2.c",line 89,column 5,is_stmt,isa 0
     429 000084 40B1          MOV.W     #$C$SL4+0,0(SP)       ; [] |89| 
         000086 0000!
         000088 0000 
     430            $C$DW$30        .dwtag  DW_TAG_TI_branch
     431                    .dwattr $C$DW$30, DW_AT_low_pc(0x00)
     432                    .dwattr $C$DW$30, DW_AT_name("printf")
     433                    .dwattr $C$DW$30, DW_AT_TI_call
     434            
     435 00008a 12B0          CALL      #printf               ; [] |89| 
         00008c 0000!
MSP430 Assembler PC v21.6.0 Thu Jan 26 18:00:54 2023

Copyright (c) 2003-2018 Texas Instruments Incorporated
C:\Users\chand\AppData\Local\Temp\{9F0D8E1E-DAF1-435E-80F4-6992212077E6} PAGE   10

     436                                                      ; [] |89| 
     437                    .dwpsn  file "../Lab01_P2.c",line 90,column 5,is_stmt,isa 0
     438 00008e 403C          MOV.W     #_ftable+12,r12       ; [] |90| 
         000090 000C!
     439            $C$DW$31        .dwtag  DW_TAG_TI_branch
     440                    .dwattr $C$DW$31, DW_AT_low_pc(0x00)
     441                    .dwattr $C$DW$31, DW_AT_name("fflush")
     442                    .dwattr $C$DW$31, DW_AT_TI_call
     443            
     444 000092 12B0          CALL      #fflush               ; [] |90| 
         000094 0000!
     445                                                      ; [] |90| 
     446                    .dwpsn  file "../Lab01_P2.c",line 92,column 2,is_stmt,isa 0
     447 000096 430C          MOV.W     #0,r12                ; [] |92| 
     448            ;* --------------------------------------------------------------------------*
     449 000098       $C$L11:    
     450                    .dwpsn  file "../Lab01_P2.c",line 93,column 1,is_stmt,isa 0
     451 000098 5031          ADD.W     #30,SP                ; [] 
         00009a 001E 
     452                    .dwcfi  cfa_offset, 2
     453            $C$DW$32        .dwtag  DW_TAG_TI_branch
     454                    .dwattr $C$DW$32, DW_AT_low_pc(0x00)
     455                    .dwattr $C$DW$32, DW_AT_TI_return
     456            
     457 00009c 4130          RET       ; [] 
     458                    ; [] 
     459                    .dwattr $C$DW$20, DW_AT_TI_end_file("../Lab01_P2.c")
     460                    .dwattr $C$DW$20, DW_AT_TI_end_line(0x5d)
     461                    .dwattr $C$DW$20, DW_AT_TI_end_column(0x01)
     462                    .dwendentry
     463                    .dwendtag $C$DW$20
     464            
     465            ;******************************************************************************
     466            ;* STRINGS                                                                    *
     467            ;******************************************************************************
     468 000000               .sect   ".const:.string"
     469                    .align  2
     470 000000 0049  $C$SL1: .string "Input value: ",10,"%d",10,0
         000001 006E 
         000002 0070 
         000003 0075 
         000004 0074 
         000005 0020 
         000006 0076 
         000007 0061 
         000008 006C 
         000009 0075 
         00000a 0065 
         00000b 003A 
         00000c 0020 
         00000d 000A 
         00000e 0025 
         00000f 0064 
         000010 000A 
         000011 0000 
MSP430 Assembler PC v21.6.0 Thu Jan 26 18:00:54 2023

Copyright (c) 2003-2018 Texas Instruments Incorporated
C:\Users\chand\AppData\Local\Temp\{9F0D8E1E-DAF1-435E-80F4-6992212077E6} PAGE   11

     471                    .align  2
     472 000012 004F  $C$SL2: .string "Output factors: ",10,0
         000013 0075 
         000014 0074 
         000015 0070 
         000016 0075 
         000017 0074 
         000018 0020 
         000019 0066 
         00001a 0061 
         00001b 0063 
         00001c 0074 
         00001d 006F 
         00001e 0072 
         00001f 0073 
         000020 003A 
         000021 0020 
         000022 000A 
         000023 0000 
     473                    .align  2
     474 000024 0025  $C$SL3: .string "%d ",0
         000025 0064 
         000026 0020 
         000027 0000 
     475                    .align  2
     476 000028 000A  $C$SL4: .string 10,0
         000029 0000 
     477            ;*****************************************************************************
     478            ;* UNDEFINED EXTERNAL REFERENCES                                             *
     479            ;*****************************************************************************
     480                    .global WDTCTL
     481                    .global _ftable
     482                    .global memset
     483                    .global printf
     484                    .global fflush
     485                    .global __mspabi_remi
     486                    .global __mspabi_divi
     487            
     488            ;******************************************************************************
     489            ;* BUILD ATTRIBUTES                                                           *
     490            ;******************************************************************************
     491                    .battr "TI", Tag_File, 1, Tag_LPM_INFO(1)
     492                    .battr "TI", Tag_File, 1, Tag_PORTS_INIT_INFO("012345678901ABCDEFGHIJ0000000000001111000000000
     493                    .battr "TI", Tag_File, 1, Tag_LEA_INFO(1)
     494                    .battr "TI", Tag_File, 1, Tag_HW_MPY32_INFO(2)
     495                    .battr "TI", Tag_File, 1, Tag_HW_MPY_ISR_INFO(1)
     496                    .battr "TI", Tag_File, 1, Tag_HW_MPY_INLINE_INFO(1)
     497                    .battr "mspabi", Tag_File, 1, Tag_enum_size(3)
     498            
     499            ;******************************************************************************
     500            ;* TYPE INFORMATION                                                           *
     501            ;******************************************************************************
     502            
     503            $C$DW$T$21      .dwtag  DW_TAG_structure_type
     504                    .dwattr $C$DW$T$21, DW_AT_byte_size(0x10)
MSP430 Assembler PC v21.6.0 Thu Jan 26 18:00:54 2023

Copyright (c) 2003-2018 Texas Instruments Incorporated
C:\Users\chand\AppData\Local\Temp\{9F0D8E1E-DAF1-435E-80F4-6992212077E6} PAGE   12

     505            $C$DW$33        .dwtag  DW_TAG_member
     506                    .dwattr $C$DW$33, DW_AT_type(*$C$DW$T$14)
     507                    .dwattr $C$DW$33, DW_AT_name("__max_align1")
     508                    .dwattr $C$DW$33, DW_AT_TI_symbol_name("__max_align1")
     509                    .dwattr $C$DW$33, DW_AT_data_member_location[DW_OP_plus_uconst 0x0]
     510                    .dwattr $C$DW$33, DW_AT_accessibility(DW_ACCESS_public)
     511                    .dwattr $C$DW$33, DW_AT_decl_file("C:/ti/ccs1200/ccs/tools/compiler/ti-cgt-msp430_21.6.0.LTS/i
     512                    .dwattr $C$DW$33, DW_AT_decl_line(0x7b)
     513                    .dwattr $C$DW$33, DW_AT_decl_column(0x0c)
     514            
     515            $C$DW$34        .dwtag  DW_TAG_member
     516                    .dwattr $C$DW$34, DW_AT_type(*$C$DW$T$18)
     517                    .dwattr $C$DW$34, DW_AT_name("__max_align2")
     518                    .dwattr $C$DW$34, DW_AT_TI_symbol_name("__max_align2")
     519                    .dwattr $C$DW$34, DW_AT_data_member_location[DW_OP_plus_uconst 0x8]
     520                    .dwattr $C$DW$34, DW_AT_accessibility(DW_ACCESS_public)
     521                    .dwattr $C$DW$34, DW_AT_decl_file("C:/ti/ccs1200/ccs/tools/compiler/ti-cgt-msp430_21.6.0.LTS/i
     522                    .dwattr $C$DW$34, DW_AT_decl_line(0x7c)
     523                    .dwattr $C$DW$34, DW_AT_decl_column(0x0e)
     524            
     525                    .dwattr $C$DW$T$21, DW_AT_decl_file("C:/ti/ccs1200/ccs/tools/compiler/ti-cgt-msp430_21.6.0.LTS
     526                    .dwattr $C$DW$T$21, DW_AT_decl_line(0x7a)
     527                    .dwattr $C$DW$T$21, DW_AT_decl_column(0x10)
     528                    .dwendtag $C$DW$T$21
     529            
     530            $C$DW$T$24      .dwtag  DW_TAG_typedef
     531                    .dwattr $C$DW$T$24, DW_AT_name("__max_align_t")
     532                    .dwattr $C$DW$T$24, DW_AT_type(*$C$DW$T$21)
     533                    .dwattr $C$DW$T$24, DW_AT_language(DW_LANG_C)
     534                    .dwattr $C$DW$T$24, DW_AT_decl_file("C:/ti/ccs1200/ccs/tools/compiler/ti-cgt-msp430_21.6.0.LTS
     535                    .dwattr $C$DW$T$24, DW_AT_decl_line(0x7d)
     536                    .dwattr $C$DW$T$24, DW_AT_decl_column(0x03)
     537            
     538            $C$DW$T$2       .dwtag  DW_TAG_unspecified_type
     539                    .dwattr $C$DW$T$2, DW_AT_name("void")
     540            
     541            $C$DW$T$3       .dwtag  DW_TAG_pointer_type
     542                    .dwattr $C$DW$T$3, DW_AT_type(*$C$DW$T$2)
     543                    .dwattr $C$DW$T$3, DW_AT_address_class(0x10)
     544            
     545            
     546            $C$DW$T$27      .dwtag  DW_TAG_subroutine_type
     547                    .dwattr $C$DW$T$27, DW_AT_language(DW_LANG_C)
     548                    .dwendtag $C$DW$T$27
     549            
     550            $C$DW$T$28      .dwtag  DW_TAG_pointer_type
     551                    .dwattr $C$DW$T$28, DW_AT_type(*$C$DW$T$27)
     552                    .dwattr $C$DW$T$28, DW_AT_address_class(0x10)
     553            
     554            $C$DW$T$29      .dwtag  DW_TAG_typedef
     555                    .dwattr $C$DW$T$29, DW_AT_name("__SFR_FARPTR")
     556                    .dwattr $C$DW$T$29, DW_AT_type(*$C$DW$T$28)
     557                    .dwattr $C$DW$T$29, DW_AT_language(DW_LANG_C)
     558                    .dwattr $C$DW$T$29, DW_AT_decl_file("C:\ti\ccs1200\ccs\ccs_base\msp430\include\msp430f5529.h")
     559                    .dwattr $C$DW$T$29, DW_AT_decl_line(0x4a)
MSP430 Assembler PC v21.6.0 Thu Jan 26 18:00:54 2023

Copyright (c) 2003-2018 Texas Instruments Incorporated
C:\Users\chand\AppData\Local\Temp\{9F0D8E1E-DAF1-435E-80F4-6992212077E6} PAGE   13

     560                    .dwattr $C$DW$T$29, DW_AT_decl_column(0x11)
     561            
     562            $C$DW$T$4       .dwtag  DW_TAG_base_type
     563                    .dwattr $C$DW$T$4, DW_AT_encoding(DW_ATE_boolean)
     564                    .dwattr $C$DW$T$4, DW_AT_name("bool")
     565                    .dwattr $C$DW$T$4, DW_AT_byte_size(0x01)
     566            
     567            $C$DW$T$5       .dwtag  DW_TAG_base_type
     568                    .dwattr $C$DW$T$5, DW_AT_encoding(DW_ATE_signed_char)
     569                    .dwattr $C$DW$T$5, DW_AT_name("signed char")
     570                    .dwattr $C$DW$T$5, DW_AT_byte_size(0x01)
     571            
     572            $C$DW$T$30      .dwtag  DW_TAG_typedef
     573                    .dwattr $C$DW$T$30, DW_AT_name("__int8_t")
     574                    .dwattr $C$DW$T$30, DW_AT_type(*$C$DW$T$5)
     575                    .dwattr $C$DW$T$30, DW_AT_language(DW_LANG_C)
     576                    .dwattr $C$DW$T$30, DW_AT_decl_file("C:/ti/ccs1200/ccs/tools/compiler/ti-cgt-msp430_21.6.0.LTS
     577                    .dwattr $C$DW$T$30, DW_AT_decl_line(0x36)
     578                    .dwattr $C$DW$T$30, DW_AT_decl_column(0x16)
     579            
     580            $C$DW$T$31      .dwtag  DW_TAG_typedef
     581                    .dwattr $C$DW$T$31, DW_AT_name("__int_least8_t")
     582                    .dwattr $C$DW$T$31, DW_AT_type(*$C$DW$T$30)
     583                    .dwattr $C$DW$T$31, DW_AT_language(DW_LANG_C)
     584                    .dwattr $C$DW$T$31, DW_AT_decl_file("C:/ti/ccs1200/ccs/tools/compiler/ti-cgt-msp430_21.6.0.LTS
     585                    .dwattr $C$DW$T$31, DW_AT_decl_line(0x5a)
     586                    .dwattr $C$DW$T$31, DW_AT_decl_column(0x12)
     587            
     588            $C$DW$T$6       .dwtag  DW_TAG_base_type
     589                    .dwattr $C$DW$T$6, DW_AT_encoding(DW_ATE_unsigned_char)
     590                    .dwattr $C$DW$T$6, DW_AT_name("unsigned char")
     591                    .dwattr $C$DW$T$6, DW_AT_byte_size(0x01)
     592            
     593            $C$DW$T$22      .dwtag  DW_TAG_pointer_type
     594                    .dwattr $C$DW$T$22, DW_AT_type(*$C$DW$T$6)
     595                    .dwattr $C$DW$T$22, DW_AT_address_class(0x10)
     596            
     597            $C$DW$T$32      .dwtag  DW_TAG_typedef
     598                    .dwattr $C$DW$T$32, DW_AT_name("__uint8_t")
     599                    .dwattr $C$DW$T$32, DW_AT_type(*$C$DW$T$6)
     600                    .dwattr $C$DW$T$32, DW_AT_language(DW_LANG_C)
     601                    .dwattr $C$DW$T$32, DW_AT_decl_file("C:/ti/ccs1200/ccs/tools/compiler/ti-cgt-msp430_21.6.0.LTS
     602                    .dwattr $C$DW$T$32, DW_AT_decl_line(0x37)
     603                    .dwattr $C$DW$T$32, DW_AT_decl_column(0x18)
     604            
     605            $C$DW$T$33      .dwtag  DW_TAG_typedef
     606                    .dwattr $C$DW$T$33, DW_AT_name("__sa_family_t")
     607                    .dwattr $C$DW$T$33, DW_AT_type(*$C$DW$T$32)
     608                    .dwattr $C$DW$T$33, DW_AT_language(DW_LANG_C)
     609                    .dwattr $C$DW$T$33, DW_AT_decl_file("C:/ti/ccs1200/ccs/tools/compiler/ti-cgt-msp430_21.6.0.LTS
     610                    .dwattr $C$DW$T$33, DW_AT_decl_line(0x47)
     611                    .dwattr $C$DW$T$33, DW_AT_decl_column(0x13)
     612            
     613            $C$DW$T$34      .dwtag  DW_TAG_typedef
     614                    .dwattr $C$DW$T$34, DW_AT_name("__uint_least8_t")
MSP430 Assembler PC v21.6.0 Thu Jan 26 18:00:54 2023

Copyright (c) 2003-2018 Texas Instruments Incorporated
C:\Users\chand\AppData\Local\Temp\{9F0D8E1E-DAF1-435E-80F4-6992212077E6} PAGE   14

     615                    .dwattr $C$DW$T$34, DW_AT_type(*$C$DW$T$32)
     616                    .dwattr $C$DW$T$34, DW_AT_language(DW_LANG_C)
     617                    .dwattr $C$DW$T$34, DW_AT_decl_file("C:/ti/ccs1200/ccs/tools/compiler/ti-cgt-msp430_21.6.0.LTS
     618                    .dwattr $C$DW$T$34, DW_AT_decl_line(0x74)
     619                    .dwattr $C$DW$T$34, DW_AT_decl_column(0x13)
     620            
     621            $C$DW$T$7       .dwtag  DW_TAG_base_type
     622                    .dwattr $C$DW$T$7, DW_AT_encoding(DW_ATE_signed_char)
     623                    .dwattr $C$DW$T$7, DW_AT_name("wchar_t")
     624                    .dwattr $C$DW$T$7, DW_AT_byte_size(0x02)
     625            
     626            $C$DW$T$8       .dwtag  DW_TAG_base_type
     627                    .dwattr $C$DW$T$8, DW_AT_encoding(DW_ATE_signed)
     628                    .dwattr $C$DW$T$8, DW_AT_name("short")
     629                    .dwattr $C$DW$T$8, DW_AT_byte_size(0x02)
     630            
     631            $C$DW$T$9       .dwtag  DW_TAG_base_type
     632                    .dwattr $C$DW$T$9, DW_AT_encoding(DW_ATE_unsigned)
     633                    .dwattr $C$DW$T$9, DW_AT_name("unsigned short")
     634                    .dwattr $C$DW$T$9, DW_AT_byte_size(0x02)
     635            
     636            $C$DW$T$10      .dwtag  DW_TAG_base_type
     637                    .dwattr $C$DW$T$10, DW_AT_encoding(DW_ATE_signed)
     638                    .dwattr $C$DW$T$10, DW_AT_name("int")
     639                    .dwattr $C$DW$T$10, DW_AT_byte_size(0x02)
     640            
     641            $C$DW$T$35      .dwtag  DW_TAG_typedef
     642                    .dwattr $C$DW$T$35, DW_AT_name("_Mbstatet")
     643                    .dwattr $C$DW$T$35, DW_AT_type(*$C$DW$T$10)
     644                    .dwattr $C$DW$T$35, DW_AT_language(DW_LANG_C)
     645                    .dwattr $C$DW$T$35, DW_AT_decl_file("C:/ti/ccs1200/ccs/tools/compiler/ti-cgt-msp430_21.6.0.LTS
     646                    .dwattr $C$DW$T$35, DW_AT_decl_line(0x8f)
     647                    .dwattr $C$DW$T$35, DW_AT_decl_column(0x0d)
     648            
     649            $C$DW$T$36      .dwtag  DW_TAG_typedef
     650                    .dwattr $C$DW$T$36, DW_AT_name("__mbstate_t")
     651                    .dwattr $C$DW$T$36, DW_AT_type(*$C$DW$T$35)
     652                    .dwattr $C$DW$T$36, DW_AT_language(DW_LANG_C)
     653                    .dwattr $C$DW$T$36, DW_AT_decl_file("C:/ti/ccs1200/ccs/tools/compiler/ti-cgt-msp430_21.6.0.LTS
     654                    .dwattr $C$DW$T$36, DW_AT_decl_line(0x92)
     655                    .dwattr $C$DW$T$36, DW_AT_decl_column(0x13)
     656            
     657            $C$DW$T$37      .dwtag  DW_TAG_typedef
     658                    .dwattr $C$DW$T$37, DW_AT_name("__accmode_t")
     659                    .dwattr $C$DW$T$37, DW_AT_type(*$C$DW$T$10)
     660                    .dwattr $C$DW$T$37, DW_AT_language(DW_LANG_C)
     661                    .dwattr $C$DW$T$37, DW_AT_decl_file("C:/ti/ccs1200/ccs/tools/compiler/ti-cgt-msp430_21.6.0.LTS
     662                    .dwattr $C$DW$T$37, DW_AT_decl_line(0x3b)
     663                    .dwattr $C$DW$T$37, DW_AT_decl_column(0x0e)
     664            
     665            $C$DW$T$48      .dwtag  DW_TAG_pointer_type
     666                    .dwattr $C$DW$T$48, DW_AT_type(*$C$DW$T$10)
     667                    .dwattr $C$DW$T$48, DW_AT_address_class(0x10)
     668            
     669            $C$DW$T$52      .dwtag  DW_TAG_const_type
MSP430 Assembler PC v21.6.0 Thu Jan 26 18:00:54 2023

Copyright (c) 2003-2018 Texas Instruments Incorporated
C:\Users\chand\AppData\Local\Temp\{9F0D8E1E-DAF1-435E-80F4-6992212077E6} PAGE   15

     670                    .dwattr $C$DW$T$52, DW_AT_type(*$C$DW$T$10)
     671            
     672            
     673            $C$DW$T$53      .dwtag  DW_TAG_array_type
     674                    .dwattr $C$DW$T$53, DW_AT_type(*$C$DW$T$10)
     675                    .dwattr $C$DW$T$53, DW_AT_language(DW_LANG_C)
     676                    .dwattr $C$DW$T$53, DW_AT_byte_size(0x14)
     677            $C$DW$35        .dwtag  DW_TAG_subrange_type
     678                    .dwattr $C$DW$35, DW_AT_upper_bound(0x09)
     679            
     680                    .dwendtag $C$DW$T$53
     681            
     682            $C$DW$T$55      .dwtag  DW_TAG_typedef
     683                    .dwattr $C$DW$T$55, DW_AT_name("__cpulevel_t")
     684                    .dwattr $C$DW$T$55, DW_AT_type(*$C$DW$T$10)
     685                    .dwattr $C$DW$T$55, DW_AT_language(DW_LANG_C)
     686                    .dwattr $C$DW$T$55, DW_AT_decl_file("C:/ti/ccs1200/ccs/tools/compiler/ti-cgt-msp430_21.6.0.LTS
     687                    .dwattr $C$DW$T$55, DW_AT_decl_line(0x50)
     688                    .dwattr $C$DW$T$55, DW_AT_decl_column(0x0e)
     689            
     690            $C$DW$T$56      .dwtag  DW_TAG_typedef
     691                    .dwattr $C$DW$T$56, DW_AT_name("__cpusetid_t")
     692                    .dwattr $C$DW$T$56, DW_AT_type(*$C$DW$T$10)
     693                    .dwattr $C$DW$T$56, DW_AT_language(DW_LANG_C)
     694                    .dwattr $C$DW$T$56, DW_AT_decl_file("C:/ti/ccs1200/ccs/tools/compiler/ti-cgt-msp430_21.6.0.LTS
     695                    .dwattr $C$DW$T$56, DW_AT_decl_line(0x51)
     696                    .dwattr $C$DW$T$56, DW_AT_decl_column(0x0e)
     697            
     698            $C$DW$T$57      .dwtag  DW_TAG_typedef
     699                    .dwattr $C$DW$T$57, DW_AT_name("__cpuwhich_t")
     700                    .dwattr $C$DW$T$57, DW_AT_type(*$C$DW$T$10)
     701                    .dwattr $C$DW$T$57, DW_AT_language(DW_LANG_C)
     702                    .dwattr $C$DW$T$57, DW_AT_decl_file("C:/ti/ccs1200/ccs/tools/compiler/ti-cgt-msp430_21.6.0.LTS
     703                    .dwattr $C$DW$T$57, DW_AT_decl_line(0x4f)
     704                    .dwattr $C$DW$T$57, DW_AT_decl_column(0x0e)
     705            
     706            $C$DW$T$58      .dwtag  DW_TAG_typedef
     707                    .dwattr $C$DW$T$58, DW_AT_name("__ct_rune_t")
     708                    .dwattr $C$DW$T$58, DW_AT_type(*$C$DW$T$10)
     709                    .dwattr $C$DW$T$58, DW_AT_language(DW_LANG_C)
     710                    .dwattr $C$DW$T$58, DW_AT_decl_file("C:/ti/ccs1200/ccs/tools/compiler/ti-cgt-msp430_21.6.0.LTS
     711                    .dwattr $C$DW$T$58, DW_AT_decl_line(0x69)
     712                    .dwattr $C$DW$T$58, DW_AT_decl_column(0x0e)
     713            
     714            $C$DW$T$59      .dwtag  DW_TAG_typedef
     715                    .dwattr $C$DW$T$59, DW_AT_name("__rune_t")
     716                    .dwattr $C$DW$T$59, DW_AT_type(*$C$DW$T$58)
     717                    .dwattr $C$DW$T$59, DW_AT_language(DW_LANG_C)
     718                    .dwattr $C$DW$T$59, DW_AT_decl_file("C:/ti/ccs1200/ccs/tools/compiler/ti-cgt-msp430_21.6.0.LTS
     719                    .dwattr $C$DW$T$59, DW_AT_decl_line(0x6c)
     720                    .dwattr $C$DW$T$59, DW_AT_decl_column(0x15)
     721            
     722            $C$DW$T$60      .dwtag  DW_TAG_typedef
     723                    .dwattr $C$DW$T$60, DW_AT_name("__wint_t")
     724                    .dwattr $C$DW$T$60, DW_AT_type(*$C$DW$T$58)
MSP430 Assembler PC v21.6.0 Thu Jan 26 18:00:54 2023

Copyright (c) 2003-2018 Texas Instruments Incorporated
C:\Users\chand\AppData\Local\Temp\{9F0D8E1E-DAF1-435E-80F4-6992212077E6} PAGE   16

     725                    .dwattr $C$DW$T$60, DW_AT_language(DW_LANG_C)
     726                    .dwattr $C$DW$T$60, DW_AT_decl_file("C:/ti/ccs1200/ccs/tools/compiler/ti-cgt-msp430_21.6.0.LTS
     727                    .dwattr $C$DW$T$60, DW_AT_decl_line(0x6d)
     728                    .dwattr $C$DW$T$60, DW_AT_decl_column(0x15)
     729            
     730            $C$DW$T$61      .dwtag  DW_TAG_typedef
     731                    .dwattr $C$DW$T$61, DW_AT_name("__int16_t")
     732                    .dwattr $C$DW$T$61, DW_AT_type(*$C$DW$T$10)
     733                    .dwattr $C$DW$T$61, DW_AT_language(DW_LANG_C)
     734                    .dwattr $C$DW$T$61, DW_AT_decl_file("C:/ti/ccs1200/ccs/tools/compiler/ti-cgt-msp430_21.6.0.LTS
     735                    .dwattr $C$DW$T$61, DW_AT_decl_line(0x38)
     736                    .dwattr $C$DW$T$61, DW_AT_decl_column(0x0f)
     737            
     738            $C$DW$T$62      .dwtag  DW_TAG_typedef
     739                    .dwattr $C$DW$T$62, DW_AT_name("__int_fast16_t")
     740                    .dwattr $C$DW$T$62, DW_AT_type(*$C$DW$T$61)
     741                    .dwattr $C$DW$T$62, DW_AT_language(DW_LANG_C)
     742                    .dwattr $C$DW$T$62, DW_AT_decl_file("C:/ti/ccs1200/ccs/tools/compiler/ti-cgt-msp430_21.6.0.LTS
     743                    .dwattr $C$DW$T$62, DW_AT_decl_line(0x57)
     744                    .dwattr $C$DW$T$62, DW_AT_decl_column(0x13)
     745            
     746            $C$DW$T$63      .dwtag  DW_TAG_typedef
     747                    .dwattr $C$DW$T$63, DW_AT_name("__int_fast8_t")
     748                    .dwattr $C$DW$T$63, DW_AT_type(*$C$DW$T$61)
     749                    .dwattr $C$DW$T$63, DW_AT_language(DW_LANG_C)
     750                    .dwattr $C$DW$T$63, DW_AT_decl_file("C:/ti/ccs1200/ccs/tools/compiler/ti-cgt-msp430_21.6.0.LTS
     751                    .dwattr $C$DW$T$63, DW_AT_decl_line(0x56)
     752                    .dwattr $C$DW$T$63, DW_AT_decl_column(0x13)
     753            
     754            $C$DW$T$64      .dwtag  DW_TAG_typedef
     755                    .dwattr $C$DW$T$64, DW_AT_name("__int_least16_t")
     756                    .dwattr $C$DW$T$64, DW_AT_type(*$C$DW$T$61)
     757                    .dwattr $C$DW$T$64, DW_AT_language(DW_LANG_C)
     758                    .dwattr $C$DW$T$64, DW_AT_decl_file("C:/ti/ccs1200/ccs/tools/compiler/ti-cgt-msp430_21.6.0.LTS
     759                    .dwattr $C$DW$T$64, DW_AT_decl_line(0x5b)
     760                    .dwattr $C$DW$T$64, DW_AT_decl_column(0x13)
     761            
     762            $C$DW$T$65      .dwtag  DW_TAG_typedef
     763                    .dwattr $C$DW$T$65, DW_AT_name("__intptr_t")
     764                    .dwattr $C$DW$T$65, DW_AT_type(*$C$DW$T$61)
     765                    .dwattr $C$DW$T$65, DW_AT_language(DW_LANG_C)
     766                    .dwattr $C$DW$T$65, DW_AT_decl_file("C:/ti/ccs1200/ccs/tools/compiler/ti-cgt-msp430_21.6.0.LTS
     767                    .dwattr $C$DW$T$65, DW_AT_decl_line(0x53)
     768                    .dwattr $C$DW$T$65, DW_AT_decl_column(0x19)
     769            
     770            $C$DW$T$66      .dwtag  DW_TAG_typedef
     771                    .dwattr $C$DW$T$66, DW_AT_name("__register_t")
     772                    .dwattr $C$DW$T$66, DW_AT_type(*$C$DW$T$61)
     773                    .dwattr $C$DW$T$66, DW_AT_language(DW_LANG_C)
     774                    .dwattr $C$DW$T$66, DW_AT_decl_file("C:/ti/ccs1200/ccs/tools/compiler/ti-cgt-msp430_21.6.0.LTS
     775                    .dwattr $C$DW$T$66, DW_AT_decl_line(0x5f)
     776                    .dwattr $C$DW$T$66, DW_AT_decl_column(0x13)
     777            
     778            $C$DW$T$67      .dwtag  DW_TAG_typedef
     779                    .dwattr $C$DW$T$67, DW_AT_name("__nl_item")
MSP430 Assembler PC v21.6.0 Thu Jan 26 18:00:54 2023

Copyright (c) 2003-2018 Texas Instruments Incorporated
C:\Users\chand\AppData\Local\Temp\{9F0D8E1E-DAF1-435E-80F4-6992212077E6} PAGE   17

     780                    .dwattr $C$DW$T$67, DW_AT_type(*$C$DW$T$10)
     781                    .dwattr $C$DW$T$67, DW_AT_language(DW_LANG_C)
     782                    .dwattr $C$DW$T$67, DW_AT_decl_file("C:/ti/ccs1200/ccs/tools/compiler/ti-cgt-msp430_21.6.0.LTS
     783                    .dwattr $C$DW$T$67, DW_AT_decl_line(0x3c)
     784                    .dwattr $C$DW$T$67, DW_AT_decl_column(0x0e)
     785            
     786            $C$DW$T$68      .dwtag  DW_TAG_typedef
     787                    .dwattr $C$DW$T$68, DW_AT_name("__ptrdiff_t")
     788                    .dwattr $C$DW$T$68, DW_AT_type(*$C$DW$T$10)
     789                    .dwattr $C$DW$T$68, DW_AT_language(DW_LANG_C)
     790                    .dwattr $C$DW$T$68, DW_AT_decl_file("C:/ti/ccs1200/ccs/tools/compiler/ti-cgt-msp430_21.6.0.LTS
     791                    .dwattr $C$DW$T$68, DW_AT_decl_line(0x5e)
     792                    .dwattr $C$DW$T$68, DW_AT_decl_column(0x1c)
     793            
     794            $C$DW$T$11      .dwtag  DW_TAG_base_type
     795                    .dwattr $C$DW$T$11, DW_AT_encoding(DW_ATE_unsigned)
     796                    .dwattr $C$DW$T$11, DW_AT_name("unsigned int")
     797                    .dwattr $C$DW$T$11, DW_AT_byte_size(0x02)
     798            
     799            $C$DW$T$69      .dwtag  DW_TAG_typedef
     800                    .dwattr $C$DW$T$69, DW_AT_name("___wchar_t")
     801                    .dwattr $C$DW$T$69, DW_AT_type(*$C$DW$T$11)
     802                    .dwattr $C$DW$T$69, DW_AT_language(DW_LANG_C)
     803                    .dwattr $C$DW$T$69, DW_AT_decl_file("C:/ti/ccs1200/ccs/tools/compiler/ti-cgt-msp430_21.6.0.LTS
     804                    .dwattr $C$DW$T$69, DW_AT_decl_line(0x7d)
     805                    .dwattr $C$DW$T$69, DW_AT_decl_column(0x1a)
     806            
     807            $C$DW$T$70      .dwtag  DW_TAG_volatile_type
     808                    .dwattr $C$DW$T$70, DW_AT_type(*$C$DW$T$11)
     809            
     810            $C$DW$T$71      .dwtag  DW_TAG_typedef
     811                    .dwattr $C$DW$T$71, DW_AT_name("__size_t")
     812                    .dwattr $C$DW$T$71, DW_AT_type(*$C$DW$T$11)
     813                    .dwattr $C$DW$T$71, DW_AT_language(DW_LANG_C)
     814                    .dwattr $C$DW$T$71, DW_AT_decl_file("C:/ti/ccs1200/ccs/tools/compiler/ti-cgt-msp430_21.6.0.LTS
     815                    .dwattr $C$DW$T$71, DW_AT_decl_line(0x61)
     816                    .dwattr $C$DW$T$71, DW_AT_decl_column(0x19)
     817            
     818            $C$DW$T$72      .dwtag  DW_TAG_typedef
     819                    .dwattr $C$DW$T$72, DW_AT_name("__uint16_t")
     820                    .dwattr $C$DW$T$72, DW_AT_type(*$C$DW$T$11)
     821                    .dwattr $C$DW$T$72, DW_AT_language(DW_LANG_C)
     822                    .dwattr $C$DW$T$72, DW_AT_decl_file("C:/ti/ccs1200/ccs/tools/compiler/ti-cgt-msp430_21.6.0.LTS
     823                    .dwattr $C$DW$T$72, DW_AT_decl_line(0x39)
     824                    .dwattr $C$DW$T$72, DW_AT_decl_column(0x17)
     825            
     826            $C$DW$T$73      .dwtag  DW_TAG_typedef
     827                    .dwattr $C$DW$T$73, DW_AT_name("__mode_t")
     828                    .dwattr $C$DW$T$73, DW_AT_type(*$C$DW$T$72)
     829                    .dwattr $C$DW$T$73, DW_AT_language(DW_LANG_C)
     830                    .dwattr $C$DW$T$73, DW_AT_decl_file("C:/ti/ccs1200/ccs/tools/compiler/ti-cgt-msp430_21.6.0.LTS
     831                    .dwattr $C$DW$T$73, DW_AT_decl_line(0x3a)
     832                    .dwattr $C$DW$T$73, DW_AT_decl_column(0x14)
     833            
     834            $C$DW$T$74      .dwtag  DW_TAG_typedef
MSP430 Assembler PC v21.6.0 Thu Jan 26 18:00:54 2023

Copyright (c) 2003-2018 Texas Instruments Incorporated
C:\Users\chand\AppData\Local\Temp\{9F0D8E1E-DAF1-435E-80F4-6992212077E6} PAGE   18

     835                    .dwattr $C$DW$T$74, DW_AT_name("__u_register_t")
     836                    .dwattr $C$DW$T$74, DW_AT_type(*$C$DW$T$72)
     837                    .dwattr $C$DW$T$74, DW_AT_language(DW_LANG_C)
     838                    .dwattr $C$DW$T$74, DW_AT_decl_file("C:/ti/ccs1200/ccs/tools/compiler/ti-cgt-msp430_21.6.0.LTS
     839                    .dwattr $C$DW$T$74, DW_AT_decl_line(0x78)
     840                    .dwattr $C$DW$T$74, DW_AT_decl_column(0x14)
     841            
     842            $C$DW$T$75      .dwtag  DW_TAG_typedef
     843                    .dwattr $C$DW$T$75, DW_AT_name("__uint_fast16_t")
     844                    .dwattr $C$DW$T$75, DW_AT_type(*$C$DW$T$72)
     845                    .dwattr $C$DW$T$75, DW_AT_language(DW_LANG_C)
     846                    .dwattr $C$DW$T$75, DW_AT_decl_file("C:/ti/ccs1200/ccs/tools/compiler/ti-cgt-msp430_21.6.0.LTS
     847                    .dwattr $C$DW$T$75, DW_AT_decl_line(0x71)
     848                    .dwattr $C$DW$T$75, DW_AT_decl_column(0x14)
     849            
     850            $C$DW$T$76      .dwtag  DW_TAG_typedef
     851                    .dwattr $C$DW$T$76, DW_AT_name("__uint_fast8_t")
     852                    .dwattr $C$DW$T$76, DW_AT_type(*$C$DW$T$72)
     853                    .dwattr $C$DW$T$76, DW_AT_language(DW_LANG_C)
     854                    .dwattr $C$DW$T$76, DW_AT_decl_file("C:/ti/ccs1200/ccs/tools/compiler/ti-cgt-msp430_21.6.0.LTS
     855                    .dwattr $C$DW$T$76, DW_AT_decl_line(0x70)
     856                    .dwattr $C$DW$T$76, DW_AT_decl_column(0x14)
     857            
     858            $C$DW$T$77      .dwtag  DW_TAG_typedef
     859                    .dwattr $C$DW$T$77, DW_AT_name("__uint_least16_t")
     860                    .dwattr $C$DW$T$77, DW_AT_type(*$C$DW$T$72)
     861                    .dwattr $C$DW$T$77, DW_AT_language(DW_LANG_C)
     862                    .dwattr $C$DW$T$77, DW_AT_decl_file("C:/ti/ccs1200/ccs/tools/compiler/ti-cgt-msp430_21.6.0.LTS
     863                    .dwattr $C$DW$T$77, DW_AT_decl_line(0x75)
     864                    .dwattr $C$DW$T$77, DW_AT_decl_column(0x14)
     865            
     866            $C$DW$T$78      .dwtag  DW_TAG_typedef
     867                    .dwattr $C$DW$T$78, DW_AT_name("__char16_t")
     868                    .dwattr $C$DW$T$78, DW_AT_type(*$C$DW$T$77)
     869                    .dwattr $C$DW$T$78, DW_AT_language(DW_LANG_C)
     870                    .dwattr $C$DW$T$78, DW_AT_decl_file("C:/ti/ccs1200/ccs/tools/compiler/ti-cgt-msp430_21.6.0.LTS
     871                    .dwattr $C$DW$T$78, DW_AT_decl_line(0x71)
     872                    .dwattr $C$DW$T$78, DW_AT_decl_column(0x1a)
     873            
     874            $C$DW$T$79      .dwtag  DW_TAG_typedef
     875                    .dwattr $C$DW$T$79, DW_AT_name("__uintptr_t")
     876                    .dwattr $C$DW$T$79, DW_AT_type(*$C$DW$T$72)
     877                    .dwattr $C$DW$T$79, DW_AT_language(DW_LANG_C)
     878                    .dwattr $C$DW$T$79, DW_AT_decl_file("C:/ti/ccs1200/ccs/tools/compiler/ti-cgt-msp430_21.6.0.LTS
     879                    .dwattr $C$DW$T$79, DW_AT_decl_line(0x6d)
     880                    .dwattr $C$DW$T$79, DW_AT_decl_column(0x14)
     881            
     882            $C$DW$T$80      .dwtag  DW_TAG_typedef
     883                    .dwattr $C$DW$T$80, DW_AT_name("__useconds_t")
     884                    .dwattr $C$DW$T$80, DW_AT_type(*$C$DW$T$11)
     885                    .dwattr $C$DW$T$80, DW_AT_language(DW_LANG_C)
     886                    .dwattr $C$DW$T$80, DW_AT_decl_file("C:/ti/ccs1200/ccs/tools/compiler/ti-cgt-msp430_21.6.0.LTS
     887                    .dwattr $C$DW$T$80, DW_AT_decl_line(0x4e)
     888                    .dwattr $C$DW$T$80, DW_AT_decl_column(0x16)
     889            
MSP430 Assembler PC v21.6.0 Thu Jan 26 18:00:54 2023

Copyright (c) 2003-2018 Texas Instruments Incorporated
C:\Users\chand\AppData\Local\Temp\{9F0D8E1E-DAF1-435E-80F4-6992212077E6} PAGE   19

     890            $C$DW$T$81      .dwtag  DW_TAG_typedef
     891                    .dwattr $C$DW$T$81, DW_AT_name("size_t")
     892                    .dwattr $C$DW$T$81, DW_AT_type(*$C$DW$T$11)
     893                    .dwattr $C$DW$T$81, DW_AT_language(DW_LANG_C)
     894                    .dwattr $C$DW$T$81, DW_AT_decl_file("C:/ti/ccs1200/ccs/tools/compiler/ti-cgt-msp430_21.6.0.LTS
     895                    .dwattr $C$DW$T$81, DW_AT_decl_line(0x4d)
     896                    .dwattr $C$DW$T$81, DW_AT_decl_column(0x19)
     897            
     898            $C$DW$T$12      .dwtag  DW_TAG_base_type
     899                    .dwattr $C$DW$T$12, DW_AT_encoding(DW_ATE_signed)
     900                    .dwattr $C$DW$T$12, DW_AT_name("long")
     901                    .dwattr $C$DW$T$12, DW_AT_byte_size(0x04)
     902            
     903            $C$DW$T$82      .dwtag  DW_TAG_typedef
     904                    .dwattr $C$DW$T$82, DW_AT_name("__int32_t")
     905                    .dwattr $C$DW$T$82, DW_AT_type(*$C$DW$T$12)
     906                    .dwattr $C$DW$T$82, DW_AT_language(DW_LANG_C)
     907                    .dwattr $C$DW$T$82, DW_AT_decl_file("C:/ti/ccs1200/ccs/tools/compiler/ti-cgt-msp430_21.6.0.LTS
     908                    .dwattr $C$DW$T$82, DW_AT_decl_line(0x3a)
     909                    .dwattr $C$DW$T$82, DW_AT_decl_column(0x10)
     910            
     911            $C$DW$T$83      .dwtag  DW_TAG_typedef
     912                    .dwattr $C$DW$T$83, DW_AT_name("__blksize_t")
     913                    .dwattr $C$DW$T$83, DW_AT_type(*$C$DW$T$82)
     914                    .dwattr $C$DW$T$83, DW_AT_language(DW_LANG_C)
     915                    .dwattr $C$DW$T$83, DW_AT_decl_file("C:/ti/ccs1200/ccs/tools/compiler/ti-cgt-msp430_21.6.0.LTS
     916                    .dwattr $C$DW$T$83, DW_AT_decl_line(0x2f)
     917                    .dwattr $C$DW$T$83, DW_AT_decl_column(0x13)
     918            
     919            $C$DW$T$84      .dwtag  DW_TAG_typedef
     920                    .dwattr $C$DW$T$84, DW_AT_name("__clockid_t")
     921                    .dwattr $C$DW$T$84, DW_AT_type(*$C$DW$T$82)
     922                    .dwattr $C$DW$T$84, DW_AT_language(DW_LANG_C)
     923                    .dwattr $C$DW$T$84, DW_AT_decl_file("C:/ti/ccs1200/ccs/tools/compiler/ti-cgt-msp430_21.6.0.LTS
     924                    .dwattr $C$DW$T$84, DW_AT_decl_line(0x31)
     925                    .dwattr $C$DW$T$84, DW_AT_decl_column(0x13)
     926            
     927            $C$DW$T$85      .dwtag  DW_TAG_typedef
     928                    .dwattr $C$DW$T$85, DW_AT_name("__critical_t")
     929                    .dwattr $C$DW$T$85, DW_AT_type(*$C$DW$T$82)
     930                    .dwattr $C$DW$T$85, DW_AT_language(DW_LANG_C)
     931                    .dwattr $C$DW$T$85, DW_AT_decl_file("C:/ti/ccs1200/ccs/tools/compiler/ti-cgt-msp430_21.6.0.LTS
     932                    .dwattr $C$DW$T$85, DW_AT_decl_line(0x4b)
     933                    .dwattr $C$DW$T$85, DW_AT_decl_column(0x13)
     934            
     935            $C$DW$T$86      .dwtag  DW_TAG_typedef
     936                    .dwattr $C$DW$T$86, DW_AT_name("__int_fast32_t")
     937                    .dwattr $C$DW$T$86, DW_AT_type(*$C$DW$T$82)
     938                    .dwattr $C$DW$T$86, DW_AT_language(DW_LANG_C)
     939                    .dwattr $C$DW$T$86, DW_AT_decl_file("C:/ti/ccs1200/ccs/tools/compiler/ti-cgt-msp430_21.6.0.LTS
     940                    .dwattr $C$DW$T$86, DW_AT_decl_line(0x58)
     941                    .dwattr $C$DW$T$86, DW_AT_decl_column(0x13)
     942            
     943            $C$DW$T$87      .dwtag  DW_TAG_typedef
     944                    .dwattr $C$DW$T$87, DW_AT_name("__int_least32_t")
MSP430 Assembler PC v21.6.0 Thu Jan 26 18:00:54 2023

Copyright (c) 2003-2018 Texas Instruments Incorporated
C:\Users\chand\AppData\Local\Temp\{9F0D8E1E-DAF1-435E-80F4-6992212077E6} PAGE   20

     945                    .dwattr $C$DW$T$87, DW_AT_type(*$C$DW$T$82)
     946                    .dwattr $C$DW$T$87, DW_AT_language(DW_LANG_C)
     947                    .dwattr $C$DW$T$87, DW_AT_decl_file("C:/ti/ccs1200/ccs/tools/compiler/ti-cgt-msp430_21.6.0.LTS
     948                    .dwattr $C$DW$T$87, DW_AT_decl_line(0x5c)
     949                    .dwattr $C$DW$T$87, DW_AT_decl_column(0x13)
     950            
     951            $C$DW$T$88      .dwtag  DW_TAG_typedef
     952                    .dwattr $C$DW$T$88, DW_AT_name("__intfptr_t")
     953                    .dwattr $C$DW$T$88, DW_AT_type(*$C$DW$T$82)
     954                    .dwattr $C$DW$T$88, DW_AT_language(DW_LANG_C)
     955                    .dwattr $C$DW$T$88, DW_AT_decl_file("C:/ti/ccs1200/ccs/tools/compiler/ti-cgt-msp430_21.6.0.LTS
     956                    .dwattr $C$DW$T$88, DW_AT_decl_line(0x4e)
     957                    .dwattr $C$DW$T$88, DW_AT_decl_column(0x13)
     958            
     959            $C$DW$T$89      .dwtag  DW_TAG_typedef
     960                    .dwattr $C$DW$T$89, DW_AT_name("__lwpid_t")
     961                    .dwattr $C$DW$T$89, DW_AT_type(*$C$DW$T$82)
     962                    .dwattr $C$DW$T$89, DW_AT_language(DW_LANG_C)
     963                    .dwattr $C$DW$T$89, DW_AT_decl_file("C:/ti/ccs1200/ccs/tools/compiler/ti-cgt-msp430_21.6.0.LTS
     964                    .dwattr $C$DW$T$89, DW_AT_decl_line(0x39)
     965                    .dwattr $C$DW$T$89, DW_AT_decl_column(0x13)
     966            
     967            $C$DW$T$90      .dwtag  DW_TAG_typedef
     968                    .dwattr $C$DW$T$90, DW_AT_name("__pid_t")
     969                    .dwattr $C$DW$T$90, DW_AT_type(*$C$DW$T$82)
     970                    .dwattr $C$DW$T$90, DW_AT_language(DW_LANG_C)
     971                    .dwattr $C$DW$T$90, DW_AT_decl_file("C:/ti/ccs1200/ccs/tools/compiler/ti-cgt-msp430_21.6.0.LTS
     972                    .dwattr $C$DW$T$90, DW_AT_decl_line(0x40)
     973                    .dwattr $C$DW$T$90, DW_AT_decl_column(0x13)
     974            
     975            $C$DW$T$91      .dwtag  DW_TAG_typedef
     976                    .dwattr $C$DW$T$91, DW_AT_name("__segsz_t")
     977                    .dwattr $C$DW$T$91, DW_AT_type(*$C$DW$T$82)
     978                    .dwattr $C$DW$T$91, DW_AT_language(DW_LANG_C)
     979                    .dwattr $C$DW$T$91, DW_AT_decl_file("C:/ti/ccs1200/ccs/tools/compiler/ti-cgt-msp430_21.6.0.LTS
     980                    .dwattr $C$DW$T$91, DW_AT_decl_line(0x60)
     981                    .dwattr $C$DW$T$91, DW_AT_decl_column(0x13)
     982            
     983            $C$DW$T$92      .dwtag  DW_TAG_typedef
     984                    .dwattr $C$DW$T$92, DW_AT_name("__ssize_t")
     985                    .dwattr $C$DW$T$92, DW_AT_type(*$C$DW$T$82)
     986                    .dwattr $C$DW$T$92, DW_AT_language(DW_LANG_C)
     987                    .dwattr $C$DW$T$92, DW_AT_decl_file("C:/ti/ccs1200/ccs/tools/compiler/ti-cgt-msp430_21.6.0.LTS
     988                    .dwattr $C$DW$T$92, DW_AT_decl_line(0x62)
     989                    .dwattr $C$DW$T$92, DW_AT_decl_column(0x13)
     990            
     991            $C$DW$T$93      .dwtag  DW_TAG_typedef
     992                    .dwattr $C$DW$T$93, DW_AT_name("__key_t")
     993                    .dwattr $C$DW$T$93, DW_AT_type(*$C$DW$T$12)
     994                    .dwattr $C$DW$T$93, DW_AT_language(DW_LANG_C)
     995                    .dwattr $C$DW$T$93, DW_AT_decl_file("C:/ti/ccs1200/ccs/tools/compiler/ti-cgt-msp430_21.6.0.LTS
     996                    .dwattr $C$DW$T$93, DW_AT_decl_line(0x38)
     997                    .dwattr $C$DW$T$93, DW_AT_decl_column(0x0f)
     998            
     999            $C$DW$T$94      .dwtag  DW_TAG_typedef
MSP430 Assembler PC v21.6.0 Thu Jan 26 18:00:54 2023

Copyright (c) 2003-2018 Texas Instruments Incorporated
C:\Users\chand\AppData\Local\Temp\{9F0D8E1E-DAF1-435E-80F4-6992212077E6} PAGE   21

    1000                    .dwattr $C$DW$T$94, DW_AT_name("__suseconds_t")
    1001                    .dwattr $C$DW$T$94, DW_AT_type(*$C$DW$T$12)
    1002                    .dwattr $C$DW$T$94, DW_AT_language(DW_LANG_C)
    1003                    .dwattr $C$DW$T$94, DW_AT_decl_file("C:/ti/ccs1200/ccs/tools/compiler/ti-cgt-msp430_21.6.0.LTS
    1004                    .dwattr $C$DW$T$94, DW_AT_decl_line(0x4a)
    1005                    .dwattr $C$DW$T$94, DW_AT_decl_column(0x0f)
    1006            
    1007            $C$DW$T$95      .dwtag  DW_TAG_typedef
    1008                    .dwattr $C$DW$T$95, DW_AT_name("_off_t")
    1009                    .dwattr $C$DW$T$95, DW_AT_type(*$C$DW$T$12)
    1010                    .dwattr $C$DW$T$95, DW_AT_language(DW_LANG_C)
    1011                    .dwattr $C$DW$T$95, DW_AT_decl_file("C:/ti/ccs1200/ccs/tools/compiler/ti-cgt-msp430_21.6.0.LTS
    1012                    .dwattr $C$DW$T$95, DW_AT_decl_line(0x8d)
    1013                    .dwattr $C$DW$T$95, DW_AT_decl_column(0x12)
    1014            
    1015            $C$DW$T$96      .dwtag  DW_TAG_typedef
    1016                    .dwattr $C$DW$T$96, DW_AT_name("__off_t")
    1017                    .dwattr $C$DW$T$96, DW_AT_type(*$C$DW$T$95)
    1018                    .dwattr $C$DW$T$96, DW_AT_language(DW_LANG_C)
    1019                    .dwattr $C$DW$T$96, DW_AT_decl_file("C:/ti/ccs1200/ccs/tools/compiler/ti-cgt-msp430_21.6.0.LTS
    1020                    .dwattr $C$DW$T$96, DW_AT_decl_line(0x3e)
    1021                    .dwattr $C$DW$T$96, DW_AT_decl_column(0x18)
    1022            
    1023            $C$DW$T$97      .dwtag  DW_TAG_typedef
    1024                    .dwattr $C$DW$T$97, DW_AT_name("fpos_t")
    1025                    .dwattr $C$DW$T$97, DW_AT_type(*$C$DW$T$12)
    1026                    .dwattr $C$DW$T$97, DW_AT_language(DW_LANG_C)
    1027                    .dwattr $C$DW$T$97, DW_AT_decl_file("C:/ti/ccs1200/ccs/tools/compiler/ti-cgt-msp430_21.6.0.LTS
    1028                    .dwattr $C$DW$T$97, DW_AT_decl_line(0x6b)
    1029                    .dwattr $C$DW$T$97, DW_AT_decl_column(0x0e)
    1030            
    1031            $C$DW$T$98      .dwtag  DW_TAG_typedef
    1032                    .dwattr $C$DW$T$98, DW_AT_name("off_t")
    1033                    .dwattr $C$DW$T$98, DW_AT_type(*$C$DW$T$12)
    1034                    .dwattr $C$DW$T$98, DW_AT_language(DW_LANG_C)
    1035                    .dwattr $C$DW$T$98, DW_AT_decl_file("C:/ti/ccs1200/ccs/tools/compiler/ti-cgt-msp430_21.6.0.LTS
    1036                    .dwattr $C$DW$T$98, DW_AT_decl_line(0x74)
    1037                    .dwattr $C$DW$T$98, DW_AT_decl_column(0x0e)
    1038            
    1039            $C$DW$T$13      .dwtag  DW_TAG_base_type
    1040                    .dwattr $C$DW$T$13, DW_AT_encoding(DW_ATE_unsigned)
    1041                    .dwattr $C$DW$T$13, DW_AT_name("unsigned long")
    1042                    .dwattr $C$DW$T$13, DW_AT_byte_size(0x04)
    1043            
    1044            $C$DW$T$99      .dwtag  DW_TAG_typedef
    1045                    .dwattr $C$DW$T$99, DW_AT_name("__uint32_t")
    1046                    .dwattr $C$DW$T$99, DW_AT_type(*$C$DW$T$13)
    1047                    .dwattr $C$DW$T$99, DW_AT_language(DW_LANG_C)
    1048                    .dwattr $C$DW$T$99, DW_AT_decl_file("C:/ti/ccs1200/ccs/tools/compiler/ti-cgt-msp430_21.6.0.LTS
    1049                    .dwattr $C$DW$T$99, DW_AT_decl_line(0x3b)
    1050                    .dwattr $C$DW$T$99, DW_AT_decl_column(0x18)
    1051            
    1052            $C$DW$T$100     .dwtag  DW_TAG_typedef
    1053                    .dwattr $C$DW$T$100, DW_AT_name("__clock_t")
    1054                    .dwattr $C$DW$T$100, DW_AT_type(*$C$DW$T$99)
MSP430 Assembler PC v21.6.0 Thu Jan 26 18:00:54 2023

Copyright (c) 2003-2018 Texas Instruments Incorporated
C:\Users\chand\AppData\Local\Temp\{9F0D8E1E-DAF1-435E-80F4-6992212077E6} PAGE   22

    1055                    .dwattr $C$DW$T$100, DW_AT_language(DW_LANG_C)
    1056                    .dwattr $C$DW$T$100, DW_AT_decl_file("C:/ti/ccs1200/ccs/tools/compiler/ti-cgt-msp430_21.6.0.LT
    1057                    .dwattr $C$DW$T$100, DW_AT_decl_line(0x4a)
    1058                    .dwattr $C$DW$T$100, DW_AT_decl_column(0x14)
    1059            
    1060            $C$DW$T$101     .dwtag  DW_TAG_typedef
    1061                    .dwattr $C$DW$T$101, DW_AT_name("__fflags_t")
    1062                    .dwattr $C$DW$T$101, DW_AT_type(*$C$DW$T$99)
    1063                    .dwattr $C$DW$T$101, DW_AT_language(DW_LANG_C)
    1064                    .dwattr $C$DW$T$101, DW_AT_decl_file("C:/ti/ccs1200/ccs/tools/compiler/ti-cgt-msp430_21.6.0.LT
    1065                    .dwattr $C$DW$T$101, DW_AT_decl_line(0x32)
    1066                    .dwattr $C$DW$T$101, DW_AT_decl_column(0x14)
    1067            
    1068            $C$DW$T$102     .dwtag  DW_TAG_typedef
    1069                    .dwattr $C$DW$T$102, DW_AT_name("__fixpt_t")
    1070                    .dwattr $C$DW$T$102, DW_AT_type(*$C$DW$T$99)
    1071                    .dwattr $C$DW$T$102, DW_AT_language(DW_LANG_C)
    1072                    .dwattr $C$DW$T$102, DW_AT_decl_file("C:/ti/ccs1200/ccs/tools/compiler/ti-cgt-msp430_21.6.0.LT
    1073                    .dwattr $C$DW$T$102, DW_AT_decl_line(0x81)
    1074                    .dwattr $C$DW$T$102, DW_AT_decl_column(0x14)
    1075            
    1076            $C$DW$T$103     .dwtag  DW_TAG_typedef
    1077                    .dwattr $C$DW$T$103, DW_AT_name("__gid_t")
    1078                    .dwattr $C$DW$T$103, DW_AT_type(*$C$DW$T$99)
    1079                    .dwattr $C$DW$T$103, DW_AT_language(DW_LANG_C)
    1080                    .dwattr $C$DW$T$103, DW_AT_decl_file("C:/ti/ccs1200/ccs/tools/compiler/ti-cgt-msp430_21.6.0.LT
    1081                    .dwattr $C$DW$T$103, DW_AT_decl_line(0x35)
    1082                    .dwattr $C$DW$T$103, DW_AT_decl_column(0x14)
    1083            
    1084            $C$DW$T$104     .dwtag  DW_TAG_typedef
    1085                    .dwattr $C$DW$T$104, DW_AT_name("__socklen_t")
    1086                    .dwattr $C$DW$T$104, DW_AT_type(*$C$DW$T$99)
    1087                    .dwattr $C$DW$T$104, DW_AT_language(DW_LANG_C)
    1088                    .dwattr $C$DW$T$104, DW_AT_decl_file("C:/ti/ccs1200/ccs/tools/compiler/ti-cgt-msp430_21.6.0.LT
    1089                    .dwattr $C$DW$T$104, DW_AT_decl_line(0x49)
    1090                    .dwattr $C$DW$T$104, DW_AT_decl_column(0x14)
    1091            
    1092            $C$DW$T$105     .dwtag  DW_TAG_typedef
    1093                    .dwattr $C$DW$T$105, DW_AT_name("__time_t")
    1094                    .dwattr $C$DW$T$105, DW_AT_type(*$C$DW$T$99)
    1095                    .dwattr $C$DW$T$105, DW_AT_language(DW_LANG_C)
    1096                    .dwattr $C$DW$T$105, DW_AT_decl_file("C:/ti/ccs1200/ccs/tools/compiler/ti-cgt-msp430_21.6.0.LT
    1097                    .dwattr $C$DW$T$105, DW_AT_decl_line(0x66)
    1098                    .dwattr $C$DW$T$105, DW_AT_decl_column(0x19)
    1099            
    1100            $C$DW$T$106     .dwtag  DW_TAG_typedef
    1101                    .dwattr $C$DW$T$106, DW_AT_name("__uid_t")
    1102                    .dwattr $C$DW$T$106, DW_AT_type(*$C$DW$T$99)
    1103                    .dwattr $C$DW$T$106, DW_AT_language(DW_LANG_C)
    1104                    .dwattr $C$DW$T$106, DW_AT_decl_file("C:/ti/ccs1200/ccs/tools/compiler/ti-cgt-msp430_21.6.0.LT
    1105                    .dwattr $C$DW$T$106, DW_AT_decl_line(0x4d)
    1106                    .dwattr $C$DW$T$106, DW_AT_decl_column(0x14)
    1107            
    1108            $C$DW$T$107     .dwtag  DW_TAG_typedef
    1109                    .dwattr $C$DW$T$107, DW_AT_name("__uint_fast32_t")
MSP430 Assembler PC v21.6.0 Thu Jan 26 18:00:54 2023

Copyright (c) 2003-2018 Texas Instruments Incorporated
C:\Users\chand\AppData\Local\Temp\{9F0D8E1E-DAF1-435E-80F4-6992212077E6} PAGE   23

    1110                    .dwattr $C$DW$T$107, DW_AT_type(*$C$DW$T$99)
    1111                    .dwattr $C$DW$T$107, DW_AT_language(DW_LANG_C)
    1112                    .dwattr $C$DW$T$107, DW_AT_decl_file("C:/ti/ccs1200/ccs/tools/compiler/ti-cgt-msp430_21.6.0.LT
    1113                    .dwattr $C$DW$T$107, DW_AT_decl_line(0x72)
    1114                    .dwattr $C$DW$T$107, DW_AT_decl_column(0x14)
    1115            
    1116            $C$DW$T$108     .dwtag  DW_TAG_typedef
    1117                    .dwattr $C$DW$T$108, DW_AT_name("__uint_least32_t")
    1118                    .dwattr $C$DW$T$108, DW_AT_type(*$C$DW$T$99)
    1119                    .dwattr $C$DW$T$108, DW_AT_language(DW_LANG_C)
    1120                    .dwattr $C$DW$T$108, DW_AT_decl_file("C:/ti/ccs1200/ccs/tools/compiler/ti-cgt-msp430_21.6.0.LT
    1121                    .dwattr $C$DW$T$108, DW_AT_decl_line(0x76)
    1122                    .dwattr $C$DW$T$108, DW_AT_decl_column(0x14)
    1123            
    1124            $C$DW$T$109     .dwtag  DW_TAG_typedef
    1125                    .dwattr $C$DW$T$109, DW_AT_name("__char32_t")
    1126                    .dwattr $C$DW$T$109, DW_AT_type(*$C$DW$T$108)
    1127                    .dwattr $C$DW$T$109, DW_AT_language(DW_LANG_C)
    1128                    .dwattr $C$DW$T$109, DW_AT_decl_file("C:/ti/ccs1200/ccs/tools/compiler/ti-cgt-msp430_21.6.0.LT
    1129                    .dwattr $C$DW$T$109, DW_AT_decl_line(0x72)
    1130                    .dwattr $C$DW$T$109, DW_AT_decl_column(0x1a)
    1131            
    1132            $C$DW$T$110     .dwtag  DW_TAG_typedef
    1133                    .dwattr $C$DW$T$110, DW_AT_name("__uintfptr_t")
    1134                    .dwattr $C$DW$T$110, DW_AT_type(*$C$DW$T$99)
    1135                    .dwattr $C$DW$T$110, DW_AT_language(DW_LANG_C)
    1136                    .dwattr $C$DW$T$110, DW_AT_decl_file("C:/ti/ccs1200/ccs/tools/compiler/ti-cgt-msp430_21.6.0.LT
    1137                    .dwattr $C$DW$T$110, DW_AT_decl_line(0x68)
    1138                    .dwattr $C$DW$T$110, DW_AT_decl_column(0x14)
    1139            
    1140            $C$DW$T$111     .dwtag  DW_TAG_typedef
    1141                    .dwattr $C$DW$T$111, DW_AT_name("__vm_offset_t")
    1142                    .dwattr $C$DW$T$111, DW_AT_type(*$C$DW$T$99)
    1143                    .dwattr $C$DW$T$111, DW_AT_language(DW_LANG_C)
    1144                    .dwattr $C$DW$T$111, DW_AT_decl_file("C:/ti/ccs1200/ccs/tools/compiler/ti-cgt-msp430_21.6.0.LT
    1145                    .dwattr $C$DW$T$111, DW_AT_decl_line(0x79)
    1146                    .dwattr $C$DW$T$111, DW_AT_decl_column(0x14)
    1147            
    1148            $C$DW$T$112     .dwtag  DW_TAG_typedef
    1149                    .dwattr $C$DW$T$112, DW_AT_name("__vm_paddr_t")
    1150                    .dwattr $C$DW$T$112, DW_AT_type(*$C$DW$T$99)
    1151                    .dwattr $C$DW$T$112, DW_AT_language(DW_LANG_C)
    1152                    .dwattr $C$DW$T$112, DW_AT_decl_file("C:/ti/ccs1200/ccs/tools/compiler/ti-cgt-msp430_21.6.0.LT
    1153                    .dwattr $C$DW$T$112, DW_AT_decl_line(0x7a)
    1154                    .dwattr $C$DW$T$112, DW_AT_decl_column(0x14)
    1155            
    1156            $C$DW$T$113     .dwtag  DW_TAG_typedef
    1157                    .dwattr $C$DW$T$113, DW_AT_name("__vm_size_t")
    1158                    .dwattr $C$DW$T$113, DW_AT_type(*$C$DW$T$99)
    1159                    .dwattr $C$DW$T$113, DW_AT_language(DW_LANG_C)
    1160                    .dwattr $C$DW$T$113, DW_AT_decl_file("C:/ti/ccs1200/ccs/tools/compiler/ti-cgt-msp430_21.6.0.LT
    1161                    .dwattr $C$DW$T$113, DW_AT_decl_line(0x7b)
    1162                    .dwattr $C$DW$T$113, DW_AT_decl_column(0x14)
    1163            
    1164            $C$DW$T$14      .dwtag  DW_TAG_base_type
MSP430 Assembler PC v21.6.0 Thu Jan 26 18:00:54 2023

Copyright (c) 2003-2018 Texas Instruments Incorporated
C:\Users\chand\AppData\Local\Temp\{9F0D8E1E-DAF1-435E-80F4-6992212077E6} PAGE   24

    1165                    .dwattr $C$DW$T$14, DW_AT_encoding(DW_ATE_signed)
    1166                    .dwattr $C$DW$T$14, DW_AT_name("long long")
    1167                    .dwattr $C$DW$T$14, DW_AT_byte_size(0x08)
    1168            
    1169            $C$DW$T$114     .dwtag  DW_TAG_typedef
    1170                    .dwattr $C$DW$T$114, DW_AT_name("__int64_t")
    1171                    .dwattr $C$DW$T$114, DW_AT_type(*$C$DW$T$14)
    1172                    .dwattr $C$DW$T$114, DW_AT_language(DW_LANG_C)
    1173                    .dwattr $C$DW$T$114, DW_AT_decl_file("C:/ti/ccs1200/ccs/tools/compiler/ti-cgt-msp430_21.6.0.LT
    1174                    .dwattr $C$DW$T$114, DW_AT_decl_line(0x40)
    1175                    .dwattr $C$DW$T$114, DW_AT_decl_column(0x14)
    1176            
    1177            $C$DW$T$115     .dwtag  DW_TAG_typedef
    1178                    .dwattr $C$DW$T$115, DW_AT_name("__blkcnt_t")
    1179                    .dwattr $C$DW$T$115, DW_AT_type(*$C$DW$T$114)
    1180                    .dwattr $C$DW$T$115, DW_AT_language(DW_LANG_C)
    1181                    .dwattr $C$DW$T$115, DW_AT_decl_file("C:/ti/ccs1200/ccs/tools/compiler/ti-cgt-msp430_21.6.0.LT
    1182                    .dwattr $C$DW$T$115, DW_AT_decl_line(0x30)
    1183                    .dwattr $C$DW$T$115, DW_AT_decl_column(0x13)
    1184            
    1185            $C$DW$T$116     .dwtag  DW_TAG_typedef
    1186                    .dwattr $C$DW$T$116, DW_AT_name("__id_t")
    1187                    .dwattr $C$DW$T$116, DW_AT_type(*$C$DW$T$114)
    1188                    .dwattr $C$DW$T$116, DW_AT_language(DW_LANG_C)
    1189                    .dwattr $C$DW$T$116, DW_AT_decl_file("C:/ti/ccs1200/ccs/tools/compiler/ti-cgt-msp430_21.6.0.LT
    1190                    .dwattr $C$DW$T$116, DW_AT_decl_line(0x36)
    1191                    .dwattr $C$DW$T$116, DW_AT_decl_column(0x13)
    1192            
    1193            $C$DW$T$117     .dwtag  DW_TAG_typedef
    1194                    .dwattr $C$DW$T$117, DW_AT_name("__int_fast64_t")
    1195                    .dwattr $C$DW$T$117, DW_AT_type(*$C$DW$T$114)
    1196                    .dwattr $C$DW$T$117, DW_AT_language(DW_LANG_C)
    1197                    .dwattr $C$DW$T$117, DW_AT_decl_file("C:/ti/ccs1200/ccs/tools/compiler/ti-cgt-msp430_21.6.0.LT
    1198                    .dwattr $C$DW$T$117, DW_AT_decl_line(0x59)
    1199                    .dwattr $C$DW$T$117, DW_AT_decl_column(0x13)
    1200            
    1201            $C$DW$T$118     .dwtag  DW_TAG_typedef
    1202                    .dwattr $C$DW$T$118, DW_AT_name("__int_least64_t")
    1203                    .dwattr $C$DW$T$118, DW_AT_type(*$C$DW$T$114)
    1204                    .dwattr $C$DW$T$118, DW_AT_language(DW_LANG_C)
    1205                    .dwattr $C$DW$T$118, DW_AT_decl_file("C:/ti/ccs1200/ccs/tools/compiler/ti-cgt-msp430_21.6.0.LT
    1206                    .dwattr $C$DW$T$118, DW_AT_decl_line(0x5d)
    1207                    .dwattr $C$DW$T$118, DW_AT_decl_column(0x13)
    1208            
    1209            $C$DW$T$119     .dwtag  DW_TAG_typedef
    1210                    .dwattr $C$DW$T$119, DW_AT_name("__intmax_t")
    1211                    .dwattr $C$DW$T$119, DW_AT_type(*$C$DW$T$114)
    1212                    .dwattr $C$DW$T$119, DW_AT_language(DW_LANG_C)
    1213                    .dwattr $C$DW$T$119, DW_AT_decl_file("C:/ti/ccs1200/ccs/tools/compiler/ti-cgt-msp430_21.6.0.LT
    1214                    .dwattr $C$DW$T$119, DW_AT_decl_line(0x4f)
    1215                    .dwattr $C$DW$T$119, DW_AT_decl_column(0x13)
    1216            
    1217            $C$DW$T$120     .dwtag  DW_TAG_typedef
    1218                    .dwattr $C$DW$T$120, DW_AT_name("__off64_t")
    1219                    .dwattr $C$DW$T$120, DW_AT_type(*$C$DW$T$114)
MSP430 Assembler PC v21.6.0 Thu Jan 26 18:00:54 2023

Copyright (c) 2003-2018 Texas Instruments Incorporated
C:\Users\chand\AppData\Local\Temp\{9F0D8E1E-DAF1-435E-80F4-6992212077E6} PAGE   25

    1220                    .dwattr $C$DW$T$120, DW_AT_language(DW_LANG_C)
    1221                    .dwattr $C$DW$T$120, DW_AT_decl_file("C:/ti/ccs1200/ccs/tools/compiler/ti-cgt-msp430_21.6.0.LT
    1222                    .dwattr $C$DW$T$120, DW_AT_decl_line(0x3f)
    1223                    .dwattr $C$DW$T$120, DW_AT_decl_column(0x13)
    1224            
    1225            $C$DW$T$121     .dwtag  DW_TAG_typedef
    1226                    .dwattr $C$DW$T$121, DW_AT_name("__rlim_t")
    1227                    .dwattr $C$DW$T$121, DW_AT_type(*$C$DW$T$114)
    1228                    .dwattr $C$DW$T$121, DW_AT_language(DW_LANG_C)
    1229                    .dwattr $C$DW$T$121, DW_AT_decl_file("C:/ti/ccs1200/ccs/tools/compiler/ti-cgt-msp430_21.6.0.LT
    1230                    .dwattr $C$DW$T$121, DW_AT_decl_line(0x41)
    1231                    .dwattr $C$DW$T$121, DW_AT_decl_column(0x13)
    1232            
    1233            $C$DW$T$15      .dwtag  DW_TAG_base_type
    1234                    .dwattr $C$DW$T$15, DW_AT_encoding(DW_ATE_unsigned)
    1235                    .dwattr $C$DW$T$15, DW_AT_name("unsigned long long")
    1236                    .dwattr $C$DW$T$15, DW_AT_byte_size(0x08)
    1237            
    1238            $C$DW$T$122     .dwtag  DW_TAG_typedef
    1239                    .dwattr $C$DW$T$122, DW_AT_name("__uint64_t")
    1240                    .dwattr $C$DW$T$122, DW_AT_type(*$C$DW$T$15)
    1241                    .dwattr $C$DW$T$122, DW_AT_language(DW_LANG_C)
    1242                    .dwattr $C$DW$T$122, DW_AT_decl_file("C:/ti/ccs1200/ccs/tools/compiler/ti-cgt-msp430_21.6.0.LT
    1243                    .dwattr $C$DW$T$122, DW_AT_decl_line(0x45)
    1244                    .dwattr $C$DW$T$122, DW_AT_decl_column(0x1c)
    1245            
    1246            $C$DW$T$123     .dwtag  DW_TAG_typedef
    1247                    .dwattr $C$DW$T$123, DW_AT_name("__dev_t")
    1248                    .dwattr $C$DW$T$123, DW_AT_type(*$C$DW$T$122)
    1249                    .dwattr $C$DW$T$123, DW_AT_language(DW_LANG_C)
    1250                    .dwattr $C$DW$T$123, DW_AT_decl_file("C:/ti/ccs1200/ccs/tools/compiler/ti-cgt-msp430_21.6.0.LT
    1251                    .dwattr $C$DW$T$123, DW_AT_decl_line(0x7f)
    1252                    .dwattr $C$DW$T$123, DW_AT_decl_column(0x14)
    1253            
    1254            $C$DW$T$124     .dwtag  DW_TAG_typedef
    1255                    .dwattr $C$DW$T$124, DW_AT_name("__fsblkcnt_t")
    1256                    .dwattr $C$DW$T$124, DW_AT_type(*$C$DW$T$122)
    1257                    .dwattr $C$DW$T$124, DW_AT_language(DW_LANG_C)
    1258                    .dwattr $C$DW$T$124, DW_AT_decl_file("C:/ti/ccs1200/ccs/tools/compiler/ti-cgt-msp430_21.6.0.LT
    1259                    .dwattr $C$DW$T$124, DW_AT_decl_line(0x33)
    1260                    .dwattr $C$DW$T$124, DW_AT_decl_column(0x14)
    1261            
    1262            $C$DW$T$125     .dwtag  DW_TAG_typedef
    1263                    .dwattr $C$DW$T$125, DW_AT_name("__fsfilcnt_t")
    1264                    .dwattr $C$DW$T$125, DW_AT_type(*$C$DW$T$122)
    1265                    .dwattr $C$DW$T$125, DW_AT_language(DW_LANG_C)
    1266                    .dwattr $C$DW$T$125, DW_AT_decl_file("C:/ti/ccs1200/ccs/tools/compiler/ti-cgt-msp430_21.6.0.LT
    1267                    .dwattr $C$DW$T$125, DW_AT_decl_line(0x34)
    1268                    .dwattr $C$DW$T$125, DW_AT_decl_column(0x14)
    1269            
    1270            $C$DW$T$126     .dwtag  DW_TAG_typedef
    1271                    .dwattr $C$DW$T$126, DW_AT_name("__ino_t")
    1272                    .dwattr $C$DW$T$126, DW_AT_type(*$C$DW$T$122)
    1273                    .dwattr $C$DW$T$126, DW_AT_language(DW_LANG_C)
    1274                    .dwattr $C$DW$T$126, DW_AT_decl_file("C:/ti/ccs1200/ccs/tools/compiler/ti-cgt-msp430_21.6.0.LT
MSP430 Assembler PC v21.6.0 Thu Jan 26 18:00:54 2023

Copyright (c) 2003-2018 Texas Instruments Incorporated
C:\Users\chand\AppData\Local\Temp\{9F0D8E1E-DAF1-435E-80F4-6992212077E6} PAGE   26

    1275                    .dwattr $C$DW$T$126, DW_AT_decl_line(0x37)
    1276                    .dwattr $C$DW$T$126, DW_AT_decl_column(0x14)
    1277            
    1278            $C$DW$T$127     .dwtag  DW_TAG_typedef
    1279                    .dwattr $C$DW$T$127, DW_AT_name("__nlink_t")
    1280                    .dwattr $C$DW$T$127, DW_AT_type(*$C$DW$T$122)
    1281                    .dwattr $C$DW$T$127, DW_AT_language(DW_LANG_C)
    1282                    .dwattr $C$DW$T$127, DW_AT_decl_file("C:/ti/ccs1200/ccs/tools/compiler/ti-cgt-msp430_21.6.0.LT
    1283                    .dwattr $C$DW$T$127, DW_AT_decl_line(0x3d)
    1284                    .dwattr $C$DW$T$127, DW_AT_decl_column(0x14)
    1285            
    1286            $C$DW$T$128     .dwtag  DW_TAG_typedef
    1287                    .dwattr $C$DW$T$128, DW_AT_name("__uint_fast64_t")
    1288                    .dwattr $C$DW$T$128, DW_AT_type(*$C$DW$T$122)
    1289                    .dwattr $C$DW$T$128, DW_AT_language(DW_LANG_C)
    1290                    .dwattr $C$DW$T$128, DW_AT_decl_file("C:/ti/ccs1200/ccs/tools/compiler/ti-cgt-msp430_21.6.0.LT
    1291                    .dwattr $C$DW$T$128, DW_AT_decl_line(0x73)
    1292                    .dwattr $C$DW$T$128, DW_AT_decl_column(0x14)
    1293            
    1294            $C$DW$T$129     .dwtag  DW_TAG_typedef
    1295                    .dwattr $C$DW$T$129, DW_AT_name("__uint_least64_t")
    1296                    .dwattr $C$DW$T$129, DW_AT_type(*$C$DW$T$122)
    1297                    .dwattr $C$DW$T$129, DW_AT_language(DW_LANG_C)
    1298                    .dwattr $C$DW$T$129, DW_AT_decl_file("C:/ti/ccs1200/ccs/tools/compiler/ti-cgt-msp430_21.6.0.LT
    1299                    .dwattr $C$DW$T$129, DW_AT_decl_line(0x77)
    1300                    .dwattr $C$DW$T$129, DW_AT_decl_column(0x14)
    1301            
    1302            $C$DW$T$130     .dwtag  DW_TAG_typedef
    1303                    .dwattr $C$DW$T$130, DW_AT_name("__uintmax_t")
    1304                    .dwattr $C$DW$T$130, DW_AT_type(*$C$DW$T$122)
    1305                    .dwattr $C$DW$T$130, DW_AT_language(DW_LANG_C)
    1306                    .dwattr $C$DW$T$130, DW_AT_decl_file("C:/ti/ccs1200/ccs/tools/compiler/ti-cgt-msp430_21.6.0.LT
    1307                    .dwattr $C$DW$T$130, DW_AT_decl_line(0x69)
    1308                    .dwattr $C$DW$T$130, DW_AT_decl_column(0x14)
    1309            
    1310            $C$DW$T$131     .dwtag  DW_TAG_typedef
    1311                    .dwattr $C$DW$T$131, DW_AT_name("__rman_res_t")
    1312                    .dwattr $C$DW$T$131, DW_AT_type(*$C$DW$T$130)
    1313                    .dwattr $C$DW$T$131, DW_AT_language(DW_LANG_C)
    1314                    .dwattr $C$DW$T$131, DW_AT_decl_file("C:/ti/ccs1200/ccs/tools/compiler/ti-cgt-msp430_21.6.0.LT
    1315                    .dwattr $C$DW$T$131, DW_AT_decl_line(0x9a)
    1316                    .dwattr $C$DW$T$131, DW_AT_decl_column(0x19)
    1317            
    1318            $C$DW$T$16      .dwtag  DW_TAG_base_type
    1319                    .dwattr $C$DW$T$16, DW_AT_encoding(DW_ATE_float)
    1320                    .dwattr $C$DW$T$16, DW_AT_name("float")
    1321                    .dwattr $C$DW$T$16, DW_AT_byte_size(0x04)
    1322            
    1323            $C$DW$T$132     .dwtag  DW_TAG_typedef
    1324                    .dwattr $C$DW$T$132, DW_AT_name("__float_t")
    1325                    .dwattr $C$DW$T$132, DW_AT_type(*$C$DW$T$16)
    1326                    .dwattr $C$DW$T$132, DW_AT_language(DW_LANG_C)
    1327                    .dwattr $C$DW$T$132, DW_AT_decl_file("C:/ti/ccs1200/ccs/tools/compiler/ti-cgt-msp430_21.6.0.LT
    1328                    .dwattr $C$DW$T$132, DW_AT_decl_line(0x4d)
    1329                    .dwattr $C$DW$T$132, DW_AT_decl_column(0x10)
MSP430 Assembler PC v21.6.0 Thu Jan 26 18:00:54 2023

Copyright (c) 2003-2018 Texas Instruments Incorporated
C:\Users\chand\AppData\Local\Temp\{9F0D8E1E-DAF1-435E-80F4-6992212077E6} PAGE   27

    1330            
    1331            $C$DW$T$17      .dwtag  DW_TAG_base_type
    1332                    .dwattr $C$DW$T$17, DW_AT_encoding(DW_ATE_float)
    1333                    .dwattr $C$DW$T$17, DW_AT_name("double")
    1334                    .dwattr $C$DW$T$17, DW_AT_byte_size(0x08)
    1335            
    1336            $C$DW$T$133     .dwtag  DW_TAG_typedef
    1337                    .dwattr $C$DW$T$133, DW_AT_name("__double_t")
    1338                    .dwattr $C$DW$T$133, DW_AT_type(*$C$DW$T$17)
    1339                    .dwattr $C$DW$T$133, DW_AT_language(DW_LANG_C)
    1340                    .dwattr $C$DW$T$133, DW_AT_decl_file("C:/ti/ccs1200/ccs/tools/compiler/ti-cgt-msp430_21.6.0.LT
    1341                    .dwattr $C$DW$T$133, DW_AT_decl_line(0x4c)
    1342                    .dwattr $C$DW$T$133, DW_AT_decl_column(0x11)
    1343            
    1344            $C$DW$T$18      .dwtag  DW_TAG_base_type
    1345                    .dwattr $C$DW$T$18, DW_AT_encoding(DW_ATE_float)
    1346                    .dwattr $C$DW$T$18, DW_AT_name("long double")
    1347                    .dwattr $C$DW$T$18, DW_AT_byte_size(0x08)
    1348            
    1349            $C$DW$T$43      .dwtag  DW_TAG_const_type
    1350                    .dwattr $C$DW$T$43, DW_AT_type(*$C$DW$T$6)
    1351            
    1352            $C$DW$T$44      .dwtag  DW_TAG_pointer_type
    1353                    .dwattr $C$DW$T$44, DW_AT_type(*$C$DW$T$43)
    1354                    .dwattr $C$DW$T$44, DW_AT_address_class(0x10)
    1355            
    1356            $C$DW$T$45      .dwtag  DW_TAG_restrict_type
    1357                    .dwattr $C$DW$T$45, DW_AT_type(*$C$DW$T$44)
    1358            
    1359            $C$DW$T$134     .dwtag  DW_TAG_pointer_type
    1360                    .dwattr $C$DW$T$134, DW_AT_type(*$C$DW$T$6)
    1361                    .dwattr $C$DW$T$134, DW_AT_address_class(0x10)
    1362            
    1363            $C$DW$T$135     .dwtag  DW_TAG_typedef
    1364                    .dwattr $C$DW$T$135, DW_AT_name("__va_list")
    1365                    .dwattr $C$DW$T$135, DW_AT_type(*$C$DW$T$134)
    1366                    .dwattr $C$DW$T$135, DW_AT_language(DW_LANG_C)
    1367                    .dwattr $C$DW$T$135, DW_AT_decl_file("C:/ti/ccs1200/ccs/tools/compiler/ti-cgt-msp430_21.6.0.LT
    1368                    .dwattr $C$DW$T$135, DW_AT_decl_line(0x92)
    1369                    .dwattr $C$DW$T$135, DW_AT_decl_column(0x0f)
    1370            
    1371            $C$DW$T$136     .dwtag  DW_TAG_typedef
    1372                    .dwattr $C$DW$T$136, DW_AT_name("va_list")
    1373                    .dwattr $C$DW$T$136, DW_AT_type(*$C$DW$T$135)
    1374                    .dwattr $C$DW$T$136, DW_AT_language(DW_LANG_C)
    1375                    .dwattr $C$DW$T$136, DW_AT_decl_file("C:/ti/ccs1200/ccs/tools/compiler/ti-cgt-msp430_21.6.0.LT
    1376                    .dwattr $C$DW$T$136, DW_AT_decl_line(0x33)
    1377                    .dwattr $C$DW$T$136, DW_AT_decl_column(0x13)
    1378            
    1379            
    1380            $C$DW$T$19      .dwtag  DW_TAG_structure_type
    1381                    .dwattr $C$DW$T$19, DW_AT_name("__mq")
    1382                    .dwattr $C$DW$T$19, DW_AT_declaration
    1383                    .dwattr $C$DW$T$19, DW_AT_decl_file("C:/ti/ccs1200/ccs/tools/compiler/ti-cgt-msp430_21.6.0.LTS
    1384                    .dwattr $C$DW$T$19, DW_AT_decl_line(0x4c)
MSP430 Assembler PC v21.6.0 Thu Jan 26 18:00:54 2023

Copyright (c) 2003-2018 Texas Instruments Incorporated
C:\Users\chand\AppData\Local\Temp\{9F0D8E1E-DAF1-435E-80F4-6992212077E6} PAGE   28

    1385                    .dwattr $C$DW$T$19, DW_AT_decl_column(0x10)
    1386                    .dwendtag $C$DW$T$19
    1387            
    1388            $C$DW$T$137     .dwtag  DW_TAG_pointer_type
    1389                    .dwattr $C$DW$T$137, DW_AT_type(*$C$DW$T$19)
    1390                    .dwattr $C$DW$T$137, DW_AT_address_class(0x10)
    1391            
    1392            $C$DW$T$138     .dwtag  DW_TAG_typedef
    1393                    .dwattr $C$DW$T$138, DW_AT_name("__mqd_t")
    1394                    .dwattr $C$DW$T$138, DW_AT_type(*$C$DW$T$137)
    1395                    .dwattr $C$DW$T$138, DW_AT_language(DW_LANG_C)
    1396                    .dwattr $C$DW$T$138, DW_AT_decl_file("C:/ti/ccs1200/ccs/tools/compiler/ti-cgt-msp430_21.6.0.LT
    1397                    .dwattr $C$DW$T$138, DW_AT_decl_line(0x4c)
    1398                    .dwattr $C$DW$T$138, DW_AT_decl_column(0x16)
    1399            
    1400            
    1401            $C$DW$T$23      .dwtag  DW_TAG_structure_type
    1402                    .dwattr $C$DW$T$23, DW_AT_name("__sFILE")
    1403                    .dwattr $C$DW$T$23, DW_AT_byte_size(0x0c)
    1404            $C$DW$36        .dwtag  DW_TAG_member
    1405                    .dwattr $C$DW$36, DW_AT_type(*$C$DW$T$10)
    1406                    .dwattr $C$DW$36, DW_AT_name("fd")
    1407                    .dwattr $C$DW$36, DW_AT_TI_symbol_name("fd")
    1408                    .dwattr $C$DW$36, DW_AT_data_member_location[DW_OP_plus_uconst 0x0]
    1409                    .dwattr $C$DW$36, DW_AT_accessibility(DW_ACCESS_public)
    1410                    .dwattr $C$DW$36, DW_AT_decl_file("C:/ti/ccs1200/ccs/tools/compiler/ti-cgt-msp430_21.6.0.LTS/i
    1411                    .dwattr $C$DW$36, DW_AT_decl_line(0x52)
    1412                    .dwattr $C$DW$36, DW_AT_decl_column(0x0b)
    1413            
    1414            $C$DW$37        .dwtag  DW_TAG_member
    1415                    .dwattr $C$DW$37, DW_AT_type(*$C$DW$T$22)
    1416                    .dwattr $C$DW$37, DW_AT_name("buf")
    1417                    .dwattr $C$DW$37, DW_AT_TI_symbol_name("buf")
    1418                    .dwattr $C$DW$37, DW_AT_data_member_location[DW_OP_plus_uconst 0x2]
    1419                    .dwattr $C$DW$37, DW_AT_accessibility(DW_ACCESS_public)
    1420                    .dwattr $C$DW$37, DW_AT_decl_file("C:/ti/ccs1200/ccs/tools/compiler/ti-cgt-msp430_21.6.0.LTS/i
    1421                    .dwattr $C$DW$37, DW_AT_decl_line(0x53)
    1422                    .dwattr $C$DW$37, DW_AT_decl_column(0x16)
    1423            
    1424            $C$DW$38        .dwtag  DW_TAG_member
    1425                    .dwattr $C$DW$38, DW_AT_type(*$C$DW$T$22)
    1426                    .dwattr $C$DW$38, DW_AT_name("pos")
    1427                    .dwattr $C$DW$38, DW_AT_TI_symbol_name("pos")
    1428                    .dwattr $C$DW$38, DW_AT_data_member_location[DW_OP_plus_uconst 0x4]
    1429                    .dwattr $C$DW$38, DW_AT_accessibility(DW_ACCESS_public)
    1430                    .dwattr $C$DW$38, DW_AT_decl_file("C:/ti/ccs1200/ccs/tools/compiler/ti-cgt-msp430_21.6.0.LTS/i
    1431                    .dwattr $C$DW$38, DW_AT_decl_line(0x54)
    1432                    .dwattr $C$DW$38, DW_AT_decl_column(0x16)
    1433            
    1434            $C$DW$39        .dwtag  DW_TAG_member
    1435                    .dwattr $C$DW$39, DW_AT_type(*$C$DW$T$22)
    1436                    .dwattr $C$DW$39, DW_AT_name("bufend")
    1437                    .dwattr $C$DW$39, DW_AT_TI_symbol_name("bufend")
    1438                    .dwattr $C$DW$39, DW_AT_data_member_location[DW_OP_plus_uconst 0x6]
    1439                    .dwattr $C$DW$39, DW_AT_accessibility(DW_ACCESS_public)
MSP430 Assembler PC v21.6.0 Thu Jan 26 18:00:54 2023

Copyright (c) 2003-2018 Texas Instruments Incorporated
C:\Users\chand\AppData\Local\Temp\{9F0D8E1E-DAF1-435E-80F4-6992212077E6} PAGE   29

    1440                    .dwattr $C$DW$39, DW_AT_decl_file("C:/ti/ccs1200/ccs/tools/compiler/ti-cgt-msp430_21.6.0.LTS/i
    1441                    .dwattr $C$DW$39, DW_AT_decl_line(0x55)
    1442                    .dwattr $C$DW$39, DW_AT_decl_column(0x16)
    1443            
    1444            $C$DW$40        .dwtag  DW_TAG_member
    1445                    .dwattr $C$DW$40, DW_AT_type(*$C$DW$T$22)
    1446                    .dwattr $C$DW$40, DW_AT_name("buff_stop")
    1447                    .dwattr $C$DW$40, DW_AT_TI_symbol_name("buff_stop")
    1448                    .dwattr $C$DW$40, DW_AT_data_member_location[DW_OP_plus_uconst 0x8]
    1449                    .dwattr $C$DW$40, DW_AT_accessibility(DW_ACCESS_public)
    1450                    .dwattr $C$DW$40, DW_AT_decl_file("C:/ti/ccs1200/ccs/tools/compiler/ti-cgt-msp430_21.6.0.LTS/i
    1451                    .dwattr $C$DW$40, DW_AT_decl_line(0x56)
    1452                    .dwattr $C$DW$40, DW_AT_decl_column(0x16)
    1453            
    1454            $C$DW$41        .dwtag  DW_TAG_member
    1455                    .dwattr $C$DW$41, DW_AT_type(*$C$DW$T$11)
    1456                    .dwattr $C$DW$41, DW_AT_name("flags")
    1457                    .dwattr $C$DW$41, DW_AT_TI_symbol_name("flags")
    1458                    .dwattr $C$DW$41, DW_AT_data_member_location[DW_OP_plus_uconst 0xa]
    1459                    .dwattr $C$DW$41, DW_AT_accessibility(DW_ACCESS_public)
    1460                    .dwattr $C$DW$41, DW_AT_decl_file("C:/ti/ccs1200/ccs/tools/compiler/ti-cgt-msp430_21.6.0.LTS/i
    1461                    .dwattr $C$DW$41, DW_AT_decl_line(0x57)
    1462                    .dwattr $C$DW$41, DW_AT_decl_column(0x16)
    1463            
    1464                    .dwattr $C$DW$T$23, DW_AT_decl_file("C:/ti/ccs1200/ccs/tools/compiler/ti-cgt-msp430_21.6.0.LTS
    1465                    .dwattr $C$DW$T$23, DW_AT_decl_line(0x51)
    1466                    .dwattr $C$DW$T$23, DW_AT_decl_column(0x08)
    1467                    .dwendtag $C$DW$T$23
    1468            
    1469            $C$DW$T$38      .dwtag  DW_TAG_typedef
    1470                    .dwattr $C$DW$T$38, DW_AT_name("FILE")
    1471                    .dwattr $C$DW$T$38, DW_AT_type(*$C$DW$T$23)
    1472                    .dwattr $C$DW$T$38, DW_AT_language(DW_LANG_C)
    1473                    .dwattr $C$DW$T$38, DW_AT_decl_file("C:/ti/ccs1200/ccs/tools/compiler/ti-cgt-msp430_21.6.0.LTS
    1474                    .dwattr $C$DW$T$38, DW_AT_decl_line(0x5c)
    1475                    .dwattr $C$DW$T$38, DW_AT_decl_column(0x18)
    1476            
    1477            $C$DW$T$39      .dwtag  DW_TAG_pointer_type
    1478                    .dwattr $C$DW$T$39, DW_AT_type(*$C$DW$T$38)
    1479                    .dwattr $C$DW$T$39, DW_AT_address_class(0x10)
    1480            
    1481            
    1482            $C$DW$T$139     .dwtag  DW_TAG_array_type
    1483                    .dwattr $C$DW$T$139, DW_AT_type(*$C$DW$T$38)
    1484                    .dwattr $C$DW$T$139, DW_AT_language(DW_LANG_C)
    1485                    .dwattr $C$DW$T$139, DW_AT_byte_size(0x78)
    1486            $C$DW$42        .dwtag  DW_TAG_subrange_type
    1487                    .dwattr $C$DW$42, DW_AT_upper_bound(0x09)
    1488            
    1489                    .dwendtag $C$DW$T$139
    1490            
    1491            
    1492            $C$DW$T$20      .dwtag  DW_TAG_structure_type
    1493                    .dwattr $C$DW$T$20, DW_AT_name("__timer")
    1494                    .dwattr $C$DW$T$20, DW_AT_declaration
MSP430 Assembler PC v21.6.0 Thu Jan 26 18:00:54 2023

Copyright (c) 2003-2018 Texas Instruments Incorporated
C:\Users\chand\AppData\Local\Temp\{9F0D8E1E-DAF1-435E-80F4-6992212077E6} PAGE   30

    1495                    .dwattr $C$DW$T$20, DW_AT_decl_file("C:/ti/ccs1200/ccs/tools/compiler/ti-cgt-msp430_21.6.0.LTS
    1496                    .dwattr $C$DW$T$20, DW_AT_decl_line(0x4b)
    1497                    .dwattr $C$DW$T$20, DW_AT_decl_column(0x10)
    1498                    .dwendtag $C$DW$T$20
    1499            
    1500            $C$DW$T$140     .dwtag  DW_TAG_pointer_type
    1501                    .dwattr $C$DW$T$140, DW_AT_type(*$C$DW$T$20)
    1502                    .dwattr $C$DW$T$140, DW_AT_address_class(0x10)
    1503            
    1504            $C$DW$T$141     .dwtag  DW_TAG_typedef
    1505                    .dwattr $C$DW$T$141, DW_AT_name("__timer_t")
    1506                    .dwattr $C$DW$T$141, DW_AT_type(*$C$DW$T$140)
    1507                    .dwattr $C$DW$T$141, DW_AT_language(DW_LANG_C)
    1508                    .dwattr $C$DW$T$141, DW_AT_decl_file("C:/ti/ccs1200/ccs/tools/compiler/ti-cgt-msp430_21.6.0.LT
    1509                    .dwattr $C$DW$T$141, DW_AT_decl_line(0x4b)
    1510                    .dwattr $C$DW$T$141, DW_AT_decl_column(0x19)
    1511            
    1512                    .dwattr $C$DW$CU, DW_AT_language(DW_LANG_C)
    1513            
    1514            ;***************************************************************
    1515            ;* DWARF CIE ENTRIES                                           *
    1516            ;***************************************************************
    1517            
    1518            $C$DW$CIE       .dwcie 16
    1519                    .dwcfi  cfa_register, 1
    1520                    .dwcfi  cfa_offset, 0
    1521                    .dwcfi  same_value, 0
    1522                    .dwcfi  same_value, 1
    1523                    .dwcfi  same_value, 3
    1524                    .dwcfi  same_value, 4
    1525                    .dwcfi  same_value, 5
    1526                    .dwcfi  same_value, 6
    1527                    .dwcfi  same_value, 7
    1528                    .dwcfi  same_value, 8
    1529                    .dwcfi  same_value, 9
    1530                    .dwcfi  same_value, 10
    1531                    .dwendentry
    1532            
    1533            ;***************************************************************
    1534            ;* DWARF REGISTER MAP                                          *
    1535            ;***************************************************************
    1536            
    1537            $C$DW$43        .dwtag  DW_TAG_TI_assign_register
    1538                    .dwattr $C$DW$43, DW_AT_name("PC")
    1539                    .dwattr $C$DW$43, DW_AT_location[DW_OP_reg0]
    1540            
    1541            $C$DW$44        .dwtag  DW_TAG_TI_assign_register
    1542                    .dwattr $C$DW$44, DW_AT_name("SP")
    1543                    .dwattr $C$DW$44, DW_AT_location[DW_OP_reg1]
    1544            
    1545            $C$DW$45        .dwtag  DW_TAG_TI_assign_register
    1546                    .dwattr $C$DW$45, DW_AT_name("SR")
    1547                    .dwattr $C$DW$45, DW_AT_location[DW_OP_reg2]
    1548            
    1549            $C$DW$46        .dwtag  DW_TAG_TI_assign_register
MSP430 Assembler PC v21.6.0 Thu Jan 26 18:00:54 2023

Copyright (c) 2003-2018 Texas Instruments Incorporated
C:\Users\chand\AppData\Local\Temp\{9F0D8E1E-DAF1-435E-80F4-6992212077E6} PAGE   31

    1550                    .dwattr $C$DW$46, DW_AT_name("CG")
    1551                    .dwattr $C$DW$46, DW_AT_location[DW_OP_reg3]
    1552            
    1553            $C$DW$47        .dwtag  DW_TAG_TI_assign_register
    1554                    .dwattr $C$DW$47, DW_AT_name("r4")
    1555                    .dwattr $C$DW$47, DW_AT_location[DW_OP_reg4]
    1556            
    1557            $C$DW$48        .dwtag  DW_TAG_TI_assign_register
    1558                    .dwattr $C$DW$48, DW_AT_name("r5")
    1559                    .dwattr $C$DW$48, DW_AT_location[DW_OP_reg5]
    1560            
    1561            $C$DW$49        .dwtag  DW_TAG_TI_assign_register
    1562                    .dwattr $C$DW$49, DW_AT_name("r6")
    1563                    .dwattr $C$DW$49, DW_AT_location[DW_OP_reg6]
    1564            
    1565            $C$DW$50        .dwtag  DW_TAG_TI_assign_register
    1566                    .dwattr $C$DW$50, DW_AT_name("r7")
    1567                    .dwattr $C$DW$50, DW_AT_location[DW_OP_reg7]
    1568            
    1569            $C$DW$51        .dwtag  DW_TAG_TI_assign_register
    1570                    .dwattr $C$DW$51, DW_AT_name("r8")
    1571                    .dwattr $C$DW$51, DW_AT_location[DW_OP_reg8]
    1572            
    1573            $C$DW$52        .dwtag  DW_TAG_TI_assign_register
    1574                    .dwattr $C$DW$52, DW_AT_name("r9")
    1575                    .dwattr $C$DW$52, DW_AT_location[DW_OP_reg9]
    1576            
    1577            $C$DW$53        .dwtag  DW_TAG_TI_assign_register
    1578                    .dwattr $C$DW$53, DW_AT_name("r10")
    1579                    .dwattr $C$DW$53, DW_AT_location[DW_OP_reg10]
    1580            
    1581            $C$DW$54        .dwtag  DW_TAG_TI_assign_register
    1582                    .dwattr $C$DW$54, DW_AT_name("r11")
    1583                    .dwattr $C$DW$54, DW_AT_location[DW_OP_reg11]
    1584            
    1585            $C$DW$55        .dwtag  DW_TAG_TI_assign_register
    1586                    .dwattr $C$DW$55, DW_AT_name("r12")
    1587                    .dwattr $C$DW$55, DW_AT_location[DW_OP_reg12]
    1588            
    1589            $C$DW$56        .dwtag  DW_TAG_TI_assign_register
    1590                    .dwattr $C$DW$56, DW_AT_name("r13")
    1591                    .dwattr $C$DW$56, DW_AT_location[DW_OP_reg13]
    1592            
    1593            $C$DW$57        .dwtag  DW_TAG_TI_assign_register
    1594                    .dwattr $C$DW$57, DW_AT_name("r14")
    1595                    .dwattr $C$DW$57, DW_AT_location[DW_OP_reg14]
    1596            
    1597            $C$DW$58        .dwtag  DW_TAG_TI_assign_register
    1598                    .dwattr $C$DW$58, DW_AT_name("r15")
    1599                    .dwattr $C$DW$58, DW_AT_location[DW_OP_reg15]
    1600            
    1601            $C$DW$59        .dwtag  DW_TAG_TI_assign_register
    1602                    .dwattr $C$DW$59, DW_AT_name("CIE_RETA")
    1603                    .dwattr $C$DW$59, DW_AT_location[DW_OP_reg16]
    1604            
MSP430 Assembler PC v21.6.0 Thu Jan 26 18:00:54 2023

Copyright (c) 2003-2018 Texas Instruments Incorporated
C:\Users\chand\AppData\Local\Temp\{9F0D8E1E-DAF1-435E-80F4-6992212077E6} PAGE   32

    1605                    .dwendtag $C$DW$CU
    1606            

No Assembly Errors, No Assembly Warnings
