MSP430 Assembler PC v21.6.0 Fri Mar 24 22:26:35 2023

Copyright (c) 2003-2018 Texas Instruments Incorporated
C:\Users\crs0074\AppData\Local\Temp\{1CDDF0A4-DD4F-44E4-962C-299E57A83445} PAGE    1

       1            ;******************************************************************************
       2            ;* MSP430 G3 C/C++ Codegen                                              PC v21.6.0.LTS *
       3            ;* Date/Time created: Fri Mar 24 22:26:35 2023                                *
       4            ;******************************************************************************
       5                    .compiler_opts --abi=eabi --diag_wrap=off --hll_source=on --mem_model:code=large --mem_model:d
       6            
       7            $C$DW$CU        .dwtag  DW_TAG_compile_unit
       8                    .dwattr $C$DW$CU, DW_AT_name("../lab09_P1.c")
       9                    .dwattr $C$DW$CU, DW_AT_producer("TI MSP430 G3 C/C++ Codegen PC v21.6.0.LTS Copyright (c) 2003
      10                    .dwattr $C$DW$CU, DW_AT_TI_version(0x01)
      11                    .dwattr $C$DW$CU, DW_AT_comp_dir("C:\Users\crs0074\workspace_v12\project09_2023_4618\Debug")
      12            $C$DW$1 .dwtag  DW_TAG_variable
      13                    .dwattr $C$DW$1, DW_AT_name("IFG2")
      14                    .dwattr $C$DW$1, DW_AT_TI_symbol_name("IFG2")
      15                    .dwattr $C$DW$1, DW_AT_type(*$C$DW$T$56)
      16                    .dwattr $C$DW$1, DW_AT_declaration
      17                    .dwattr $C$DW$1, DW_AT_external
      18                    .dwattr $C$DW$1, DW_AT_decl_file("C:/ti/ccs1200/ccs/ccs_base/msp430/include/msp430FG4618.h")
      19                    .dwattr $C$DW$1, DW_AT_decl_line(0xb5)
      20                    .dwattr $C$DW$1, DW_AT_decl_column(0x01)
      21            
      22            $C$DW$2 .dwtag  DW_TAG_variable
      23                    .dwattr $C$DW$2, DW_AT_name("DMACTL0")
      24                    .dwattr $C$DW$2, DW_AT_TI_symbol_name("DMACTL0")
      25                    .dwattr $C$DW$2, DW_AT_type(*$C$DW$T$93)
      26                    .dwattr $C$DW$2, DW_AT_declaration
      27                    .dwattr $C$DW$2, DW_AT_external
      28                    .dwattr $C$DW$2, DW_AT_decl_file("C:/ti/ccs1200/ccs/ccs_base/msp430/include/msp430FG4618.h")
      29                    .dwattr $C$DW$2, DW_AT_decl_line(0x272)
      30                    .dwattr $C$DW$2, DW_AT_decl_column(0x01)
      31            
      32            $C$DW$3 .dwtag  DW_TAG_variable
      33                    .dwattr $C$DW$3, DW_AT_name("DMA0CTL")
      34                    .dwattr $C$DW$3, DW_AT_TI_symbol_name("DMA0CTL")
      35                    .dwattr $C$DW$3, DW_AT_type(*$C$DW$T$93)
      36                    .dwattr $C$DW$3, DW_AT_declaration
      37                    .dwattr $C$DW$3, DW_AT_external
      38                    .dwattr $C$DW$3, DW_AT_decl_file("C:/ti/ccs1200/ccs/ccs_base/msp430/include/msp430FG4618.h")
      39                    .dwattr $C$DW$3, DW_AT_decl_line(0x2b9)
      40                    .dwattr $C$DW$3, DW_AT_decl_column(0x01)
      41            
      42            $C$DW$4 .dwtag  DW_TAG_variable
      43                    .dwattr $C$DW$4, DW_AT_name("DMA0SA")
      44                    .dwattr $C$DW$4, DW_AT_TI_symbol_name("DMA0SA")
      45                    .dwattr $C$DW$4, DW_AT_type(*$C$DW$T$39)
      46                    .dwattr $C$DW$4, DW_AT_declaration
      47                    .dwattr $C$DW$4, DW_AT_external
      48                    .dwattr $C$DW$4, DW_AT_decl_file("C:/ti/ccs1200/ccs/ccs_base/msp430/include/msp430FG4618.h")
      49                    .dwattr $C$DW$4, DW_AT_decl_line(0x2e5)
      50                    .dwattr $C$DW$4, DW_AT_decl_column(0x01)
      51            
      52            $C$DW$5 .dwtag  DW_TAG_variable
      53                    .dwattr $C$DW$5, DW_AT_name("DMA0DA")
      54                    .dwattr $C$DW$5, DW_AT_TI_symbol_name("DMA0DA")
      55                    .dwattr $C$DW$5, DW_AT_type(*$C$DW$T$39)
MSP430 Assembler PC v21.6.0 Fri Mar 24 22:26:35 2023

Copyright (c) 2003-2018 Texas Instruments Incorporated
C:\Users\crs0074\AppData\Local\Temp\{1CDDF0A4-DD4F-44E4-962C-299E57A83445} PAGE    2

      56                    .dwattr $C$DW$5, DW_AT_declaration
      57                    .dwattr $C$DW$5, DW_AT_external
      58                    .dwattr $C$DW$5, DW_AT_decl_file("C:/ti/ccs1200/ccs/ccs_base/msp430/include/msp430FG4618.h")
      59                    .dwattr $C$DW$5, DW_AT_decl_line(0x2e7)
      60                    .dwattr $C$DW$5, DW_AT_decl_column(0x01)
      61            
      62            $C$DW$6 .dwtag  DW_TAG_variable
      63                    .dwattr $C$DW$6, DW_AT_name("DMA0SZ")
      64                    .dwattr $C$DW$6, DW_AT_TI_symbol_name("DMA0SZ")
      65                    .dwattr $C$DW$6, DW_AT_type(*$C$DW$T$93)
      66                    .dwattr $C$DW$6, DW_AT_declaration
      67                    .dwattr $C$DW$6, DW_AT_external
      68                    .dwattr $C$DW$6, DW_AT_decl_file("C:/ti/ccs1200/ccs/ccs_base/msp430/include/msp430FG4618.h")
      69                    .dwattr $C$DW$6, DW_AT_decl_line(0x2e9)
      70                    .dwattr $C$DW$6, DW_AT_decl_column(0x01)
      71            
      72            $C$DW$7 .dwtag  DW_TAG_variable
      73                    .dwattr $C$DW$7, DW_AT_name("P2SEL")
      74                    .dwattr $C$DW$7, DW_AT_TI_symbol_name("P2SEL")
      75                    .dwattr $C$DW$7, DW_AT_type(*$C$DW$T$56)
      76                    .dwattr $C$DW$7, DW_AT_declaration
      77                    .dwattr $C$DW$7, DW_AT_external
      78                    .dwattr $C$DW$7, DW_AT_decl_file("C:/ti/ccs1200/ccs/ccs_base/msp430/include/msp430FG4618.h")
      79                    .dwattr $C$DW$7, DW_AT_decl_line(0x45b)
      80                    .dwattr $C$DW$7, DW_AT_decl_column(0x01)
      81            
      82            $C$DW$8 .dwtag  DW_TAG_variable
      83                    .dwattr $C$DW$8, DW_AT_name("P3IN")
      84                    .dwattr $C$DW$8, DW_AT_TI_symbol_name("P3IN")
      85                    .dwattr $C$DW$8, DW_AT_type(*$C$DW$T$56)
      86                    .dwattr $C$DW$8, DW_AT_declaration
      87                    .dwattr $C$DW$8, DW_AT_external
      88                    .dwattr $C$DW$8, DW_AT_decl_file("C:/ti/ccs1200/ccs/ccs_base/msp430/include/msp430FG4618.h")
      89                    .dwattr $C$DW$8, DW_AT_decl_line(0x466)
      90                    .dwattr $C$DW$8, DW_AT_decl_column(0x01)
      91            
      92            $C$DW$9 .dwtag  DW_TAG_variable
      93                    .dwattr $C$DW$9, DW_AT_name("SEL *")
      94                    .dwattr $C$DW$9, DW_AT_TI_symbol_name("P3SEL")
      95                    .dwattr $C$DW$9, DW_AT_type(*$C$DW$T$56)
      96                    .dwattr $C$DW$9, DW_AT_declaration
      97                    .dwattr $C$DW$9, DW_AT_external
      98                    .dwattr $C$DW$9, DW_AT_decl_file("C:/ti/ccs1200/ccs/ccs_base/msp430/include/msp430FG4618.h")
      99                    .dwattr $C$DW$9, DW_AT_decl_line(0x469)
     100                    .dwattr $C$DW$9, DW_AT_decl_column(0x01)
     101            
     102            $C$DW$10        .dwtag  DW_TAG_variable
     103                    .dwattr $C$DW$10, DW_AT_name("UCA0CTL0")
     104                    .dwattr $C$DW$10, DW_AT_TI_symbol_name("UCA0CTL0")
     105                    .dwattr $C$DW$10, DW_AT_type(*$C$DW$T$56)
     106                    .dwattr $C$DW$10, DW_AT_declaration
     107                    .dwattr $C$DW$10, DW_AT_external
     108                    .dwattr $C$DW$10, DW_AT_decl_file("C:/ti/ccs1200/ccs/ccs_base/msp430/include/msp430FG4618.h")
     109                    .dwattr $C$DW$10, DW_AT_decl_line(0x5c9)
     110                    .dwattr $C$DW$10, DW_AT_decl_column(0x01)
MSP430 Assembler PC v21.6.0 Fri Mar 24 22:26:35 2023

Copyright (c) 2003-2018 Texas Instruments Incorporated
C:\Users\crs0074\AppData\Local\Temp\{1CDDF0A4-DD4F-44E4-962C-299E57A83445} PAGE    3

     111            
     112            $C$DW$11        .dwtag  DW_TAG_variable
     113                    .dwattr $C$DW$11, DW_AT_name("UCA0CTL1")
     114                    .dwattr $C$DW$11, DW_AT_TI_symbol_name("UCA0CTL1")
     115                    .dwattr $C$DW$11, DW_AT_type(*$C$DW$T$56)
     116                    .dwattr $C$DW$11, DW_AT_declaration
     117                    .dwattr $C$DW$11, DW_AT_external
     118                    .dwattr $C$DW$11, DW_AT_decl_file("C:/ti/ccs1200/ccs/ccs_base/msp430/include/msp430FG4618.h")
     119                    .dwattr $C$DW$11, DW_AT_decl_line(0x5ca)
     120                    .dwattr $C$DW$11, DW_AT_decl_column(0x01)
     121            
     122            $C$DW$12        .dwtag  DW_TAG_variable
     123                    .dwattr $C$DW$12, DW_AT_name("UCA0BR0")
     124                    .dwattr $C$DW$12, DW_AT_TI_symbol_name("UCA0BR0")
     125                    .dwattr $C$DW$12, DW_AT_type(*$C$DW$T$56)
     126                    .dwattr $C$DW$12, DW_AT_declaration
     127                    .dwattr $C$DW$12, DW_AT_external
     128                    .dwattr $C$DW$12, DW_AT_decl_file("C:/ti/ccs1200/ccs/ccs_base/msp430/include/msp430FG4618.h")
     129                    .dwattr $C$DW$12, DW_AT_decl_line(0x5cb)
     130                    .dwattr $C$DW$12, DW_AT_decl_column(0x01)
     131            
     132            $C$DW$13        .dwtag  DW_TAG_variable
     133                    .dwattr $C$DW$13, DW_AT_name("UCA0BR1")
     134                    .dwattr $C$DW$13, DW_AT_TI_symbol_name("UCA0BR1")
     135                    .dwattr $C$DW$13, DW_AT_type(*$C$DW$T$56)
     136                    .dwattr $C$DW$13, DW_AT_declaration
     137                    .dwattr $C$DW$13, DW_AT_external
     138                    .dwattr $C$DW$13, DW_AT_decl_file("C:/ti/ccs1200/ccs/ccs_base/msp430/include/msp430FG4618.h")
     139                    .dwattr $C$DW$13, DW_AT_decl_line(0x5cc)
     140                    .dwattr $C$DW$13, DW_AT_decl_column(0x01)
     141            
     142            $C$DW$14        .dwtag  DW_TAG_variable
     143                    .dwattr $C$DW$14, DW_AT_name("UCA0MCTL")
     144                    .dwattr $C$DW$14, DW_AT_TI_symbol_name("UCA0MCTL")
     145                    .dwattr $C$DW$14, DW_AT_type(*$C$DW$T$56)
     146                    .dwattr $C$DW$14, DW_AT_declaration
     147                    .dwattr $C$DW$14, DW_AT_external
     148                    .dwattr $C$DW$14, DW_AT_decl_file("C:/ti/ccs1200/ccs/ccs_base/msp430/include/msp430FG4618.h")
     149                    .dwattr $C$DW$14, DW_AT_decl_line(0x5cd)
     150                    .dwattr $C$DW$14, DW_AT_decl_column(0x01)
     151            
     152            $C$DW$15        .dwtag  DW_TAG_variable
     153                    .dwattr $C$DW$15, DW_AT_name("UCA0RXBUF")
     154                    .dwattr $C$DW$15, DW_AT_TI_symbol_name("UCA0RXBUF")
     155                    .dwattr $C$DW$15, DW_AT_type(*$C$DW$T$56)
     156                    .dwattr $C$DW$15, DW_AT_declaration
     157                    .dwattr $C$DW$15, DW_AT_external
     158                    .dwattr $C$DW$15, DW_AT_decl_file("C:/ti/ccs1200/ccs/ccs_base/msp430/include/msp430FG4618.h")
     159                    .dwattr $C$DW$15, DW_AT_decl_line(0x5cf)
     160                    .dwattr $C$DW$15, DW_AT_decl_column(0x01)
     161            
     162            $C$DW$16        .dwtag  DW_TAG_variable
     163                    .dwattr $C$DW$16, DW_AT_name("UCA0TXBUF")
     164                    .dwattr $C$DW$16, DW_AT_TI_symbol_name("UCA0TXBUF")
     165                    .dwattr $C$DW$16, DW_AT_type(*$C$DW$T$56)
MSP430 Assembler PC v21.6.0 Fri Mar 24 22:26:35 2023

Copyright (c) 2003-2018 Texas Instruments Incorporated
C:\Users\crs0074\AppData\Local\Temp\{1CDDF0A4-DD4F-44E4-962C-299E57A83445} PAGE    4

     166                    .dwattr $C$DW$16, DW_AT_declaration
     167                    .dwattr $C$DW$16, DW_AT_external
     168                    .dwattr $C$DW$16, DW_AT_decl_file("C:/ti/ccs1200/ccs/ccs_base/msp430/include/msp430FG4618.h")
     169                    .dwattr $C$DW$16, DW_AT_decl_line(0x5d0)
     170                    .dwattr $C$DW$16, DW_AT_decl_column(0x01)
     171            
     172            $C$DW$17        .dwtag  DW_TAG_variable
     173                    .dwattr $C$DW$17, DW_AT_name("UCB0CTL0")
     174                    .dwattr $C$DW$17, DW_AT_TI_symbol_name("UCB0CTL0")
     175                    .dwattr $C$DW$17, DW_AT_type(*$C$DW$T$56)
     176                    .dwattr $C$DW$17, DW_AT_declaration
     177                    .dwattr $C$DW$17, DW_AT_external
     178                    .dwattr $C$DW$17, DW_AT_decl_file("C:/ti/ccs1200/ccs/ccs_base/msp430/include/msp430FG4618.h")
     179                    .dwattr $C$DW$17, DW_AT_decl_line(0x5d7)
     180                    .dwattr $C$DW$17, DW_AT_decl_column(0x01)
     181            
     182            $C$DW$18        .dwtag  DW_TAG_variable
     183                    .dwattr $C$DW$18, DW_AT_name("UCB0CTL1")
     184                    .dwattr $C$DW$18, DW_AT_TI_symbol_name("UCB0CTL1")
     185                    .dwattr $C$DW$18, DW_AT_type(*$C$DW$T$56)
     186                    .dwattr $C$DW$18, DW_AT_declaration
     187                    .dwattr $C$DW$18, DW_AT_external
     188                    .dwattr $C$DW$18, DW_AT_decl_file("C:/ti/ccs1200/ccs/ccs_base/msp430/include/msp430FG4618.h")
     189                    .dwattr $C$DW$18, DW_AT_decl_line(0x5d8)
     190                    .dwattr $C$DW$18, DW_AT_decl_column(0x01)
     191            
     192            $C$DW$19        .dwtag  DW_TAG_variable
     193                    .dwattr $C$DW$19, DW_AT_name("UCB0BR0")
     194                    .dwattr $C$DW$19, DW_AT_TI_symbol_name("UCB0BR0")
     195                    .dwattr $C$DW$19, DW_AT_type(*$C$DW$T$56)
     196                    .dwattr $C$DW$19, DW_AT_declaration
     197                    .dwattr $C$DW$19, DW_AT_external
     198                    .dwattr $C$DW$19, DW_AT_decl_file("C:/ti/ccs1200/ccs/ccs_base/msp430/include/msp430FG4618.h")
     199                    .dwattr $C$DW$19, DW_AT_decl_line(0x5d9)
     200                    .dwattr $C$DW$19, DW_AT_decl_column(0x01)
     201            
     202            $C$DW$20        .dwtag  DW_TAG_variable
     203                    .dwattr $C$DW$20, DW_AT_name("UCB0BR1")
     204                    .dwattr $C$DW$20, DW_AT_TI_symbol_name("UCB0BR1")
     205                    .dwattr $C$DW$20, DW_AT_type(*$C$DW$T$56)
     206                    .dwattr $C$DW$20, DW_AT_declaration
     207                    .dwattr $C$DW$20, DW_AT_external
     208                    .dwattr $C$DW$20, DW_AT_decl_file("C:/ti/ccs1200/ccs/ccs_base/msp430/include/msp430FG4618.h")
     209                    .dwattr $C$DW$20, DW_AT_decl_line(0x5da)
     210                    .dwattr $C$DW$20, DW_AT_decl_column(0x01)
     211            
     212            $C$DW$21        .dwtag  DW_TAG_variable
     213                    .dwattr $C$DW$21, DW_AT_name("UCB0RXBUF")
     214                    .dwattr $C$DW$21, DW_AT_TI_symbol_name("UCB0RXBUF")
     215                    .dwattr $C$DW$21, DW_AT_type(*$C$DW$T$56)
     216                    .dwattr $C$DW$21, DW_AT_declaration
     217                    .dwattr $C$DW$21, DW_AT_external
     218                    .dwattr $C$DW$21, DW_AT_decl_file("C:/ti/ccs1200/ccs/ccs_base/msp430/include/msp430FG4618.h")
     219                    .dwattr $C$DW$21, DW_AT_decl_line(0x5dd)
     220                    .dwattr $C$DW$21, DW_AT_decl_column(0x01)
MSP430 Assembler PC v21.6.0 Fri Mar 24 22:26:35 2023

Copyright (c) 2003-2018 Texas Instruments Incorporated
C:\Users\crs0074\AppData\Local\Temp\{1CDDF0A4-DD4F-44E4-962C-299E57A83445} PAGE    5

     221            
     222            $C$DW$22        .dwtag  DW_TAG_variable
     223                    .dwattr $C$DW$22, DW_AT_name("UCB0TXBUF")
     224                    .dwattr $C$DW$22, DW_AT_TI_symbol_name("UCB0TXBUF")
     225                    .dwattr $C$DW$22, DW_AT_type(*$C$DW$T$56)
     226                    .dwattr $C$DW$22, DW_AT_declaration
     227                    .dwattr $C$DW$22, DW_AT_external
     228                    .dwattr $C$DW$22, DW_AT_decl_file("C:/ti/ccs1200/ccs/ccs_base/msp430/include/msp430FG4618.h")
     229                    .dwattr $C$DW$22, DW_AT_decl_line(0x5de)
     230                    .dwattr $C$DW$22, DW_AT_decl_column(0x01)
     231            
     232            $C$DW$23        .dwtag  DW_TAG_variable
     233                    .dwattr $C$DW$23, DW_AT_name("WDTCTL")
     234                    .dwattr $C$DW$23, DW_AT_TI_symbol_name("WDTCTL")
     235                    .dwattr $C$DW$23, DW_AT_type(*$C$DW$T$93)
     236                    .dwattr $C$DW$23, DW_AT_declaration
     237                    .dwattr $C$DW$23, DW_AT_external
     238                    .dwattr $C$DW$23, DW_AT_decl_file("C:/ti/ccs1200/ccs/ccs_base/msp430/include/msp430FG4618.h")
     239                    .dwattr $C$DW$23, DW_AT_decl_line(0x6df)
     240                    .dwattr $C$DW$23, DW_AT_decl_column(0x01)
     241            
     242                    .global ch
     243                    .common ch,1,1
     244            $C$DW$24        .dwtag  DW_TAG_variable
     245                    .dwattr $C$DW$24, DW_AT_name("ch")
     246                    .dwattr $C$DW$24, DW_AT_TI_symbol_name("ch")
     247                    .dwattr $C$DW$24, DW_AT_location[DW_OP_addr ch]
     248                    .dwattr $C$DW$24, DW_AT_type(*$C$DW$T$6)
     249                    .dwattr $C$DW$24, DW_AT_external
     250                    .dwattr $C$DW$24, DW_AT_decl_file("../lab09_P1.c")
     251                    .dwattr $C$DW$24, DW_AT_decl_line(0x09)
     252                    .dwattr $C$DW$24, DW_AT_decl_column(0x0f)
     253            
     254                    .global pause
     255                    .common pause,4,2
     256            $C$DW$25        .dwtag  DW_TAG_variable
     257                    .dwattr $C$DW$25, DW_AT_name("pause")
     258                    .dwattr $C$DW$25, DW_AT_TI_symbol_name("pause")
     259                    .dwattr $C$DW$25, DW_AT_location[DW_OP_addr pause]
     260                    .dwattr $C$DW$25, DW_AT_type(*$C$DW$T$184)
     261                    .dwattr $C$DW$25, DW_AT_external
     262                    .dwattr $C$DW$25, DW_AT_decl_file("../lab09_P1.c")
     263                    .dwattr $C$DW$25, DW_AT_decl_line(0x0b)
     264                    .dwattr $C$DW$25, DW_AT_decl_column(0x06)
     265            
     266                    .global P
     267 000000               .data
     268                    .align  1
     269                    .elfsym P,SYM_SIZE(1)
     270 000000       P:
     271 000000 0001          .bits           0x1,8
     272                                    ; P @ 0
     273            
     274            $C$DW$26        .dwtag  DW_TAG_variable
     275                    .dwattr $C$DW$26, DW_AT_name("P")
MSP430 Assembler PC v21.6.0 Fri Mar 24 22:26:35 2023

Copyright (c) 2003-2018 Texas Instruments Incorporated
C:\Users\crs0074\AppData\Local\Temp\{1CDDF0A4-DD4F-44E4-962C-299E57A83445} PAGE    6

     276                    .dwattr $C$DW$26, DW_AT_TI_symbol_name("P")
     277                    .dwattr $C$DW$26, DW_AT_location[DW_OP_addr P]
     278                    .dwattr $C$DW$26, DW_AT_type(*$C$DW$T$6)
     279                    .dwattr $C$DW$26, DW_AT_external
     280                    .dwattr $C$DW$26, DW_AT_decl_file("../lab09_P1.c")
     281                    .dwattr $C$DW$26, DW_AT_decl_line(0x0c)
     282                    .dwattr $C$DW$26, DW_AT_decl_column(0x0f)
     283            
     284            
     285            $C$DW$27        .dwtag  DW_TAG_subprogram
     286                    .dwattr $C$DW$27, DW_AT_name("strcmp")
     287                    .dwattr $C$DW$27, DW_AT_TI_symbol_name("strcmp")
     288                    .dwattr $C$DW$27, DW_AT_type(*$C$DW$T$10)
     289                    .dwattr $C$DW$27, DW_AT_declaration
     290                    .dwattr $C$DW$27, DW_AT_external
     291                    .dwattr $C$DW$27, DW_AT_decl_file("C:/ti/ccs1200/ccs/tools/compiler/ti-cgt-msp430_21.6.0.LTS/i
     292                    .dwattr $C$DW$27, DW_AT_decl_line(0x63)
     293                    .dwattr $C$DW$27, DW_AT_decl_column(0x11)
     294            $C$DW$28        .dwtag  DW_TAG_formal_parameter
     295                    .dwattr $C$DW$28, DW_AT_type(*$C$DW$T$67)
     296            
     297            $C$DW$29        .dwtag  DW_TAG_formal_parameter
     298                    .dwattr $C$DW$29, DW_AT_type(*$C$DW$T$67)
     299            
     300                    .dwendtag $C$DW$27
     301            
     302            
     303            $C$DW$30        .dwtag  DW_TAG_subprogram
     304                    .dwattr $C$DW$30, DW_AT_name("atoi")
     305                    .dwattr $C$DW$30, DW_AT_TI_symbol_name("atoi")
     306                    .dwattr $C$DW$30, DW_AT_type(*$C$DW$T$10)
     307                    .dwattr $C$DW$30, DW_AT_declaration
     308                    .dwattr $C$DW$30, DW_AT_external
     309                    .dwattr $C$DW$30, DW_AT_decl_file("C:/ti/ccs1200/ccs/tools/compiler/ti-cgt-msp430_21.6.0.LTS/i
     310                    .dwattr $C$DW$30, DW_AT_decl_line(0x9e)
     311                    .dwattr $C$DW$30, DW_AT_decl_column(0x1c)
     312            $C$DW$31        .dwtag  DW_TAG_formal_parameter
     313                    .dwattr $C$DW$31, DW_AT_type(*$C$DW$T$67)
     314            
     315                    .dwendtag $C$DW$30
     316            
     317            ;       C:\ti\ccs1200\ccs\tools\compiler\ti-cgt-msp430_21.6.0.LTS\bin\acpia430.exe -@C:\\Users\\crs007
     318 000000               .sect   ".text:SPI_setup"
     319                    .clink
     320                    .global SPI_setup
     321            
     322            $C$DW$32        .dwtag  DW_TAG_subprogram
     323                    .dwattr $C$DW$32, DW_AT_name("SPI_setup")
     324                    .dwattr $C$DW$32, DW_AT_low_pc(SPI_setup)
     325                    .dwattr $C$DW$32, DW_AT_high_pc(0x00)
     326                    .dwattr $C$DW$32, DW_AT_TI_symbol_name("SPI_setup")
     327                    .dwattr $C$DW$32, DW_AT_external
     328                    .dwattr $C$DW$32, DW_AT_TI_begin_file("../lab09_P1.c")
     329                    .dwattr $C$DW$32, DW_AT_TI_begin_line(0x0e)
     330                    .dwattr $C$DW$32, DW_AT_TI_begin_column(0x06)
MSP430 Assembler PC v21.6.0 Fri Mar 24 22:26:35 2023

Copyright (c) 2003-2018 Texas Instruments Incorporated
C:\Users\crs0074\AppData\Local\Temp\{1CDDF0A4-DD4F-44E4-962C-299E57A83445} PAGE    7

     331                    .dwattr $C$DW$32, DW_AT_decl_file("../lab09_P1.c")
     332                    .dwattr $C$DW$32, DW_AT_decl_line(0x0e)
     333                    .dwattr $C$DW$32, DW_AT_decl_column(0x06)
     334                    .dwattr $C$DW$32, DW_AT_TI_max_frame_size(0x04)
     335                    .dwpsn  file "../lab09_P1.c",line 14,column 22,is_stmt,address SPI_setup,isa 0
     336            
     337                    .dwfde $C$DW$CIE, SPI_setup
     338            
     339            ;*****************************************************************************
     340            ;* FUNCTION NAME: SPI_setup                                                  *
     341            ;*                                                                           *
     342            ;*   Regs Modified     : SP                                                  *
     343            ;*   Regs Used         : SP                                                  *
     344            ;*   Local Frame Size  : 0 Args + 0 Auto + 0 Save = 0 byte                   *
     345            ;*****************************************************************************
     346 000000       SPI_setup:
     347            ;* --------------------------------------------------------------------------*
     348                    .dwcfi  cfa_offset, 4
     349                    .dwcfi  save_reg_to_mem, 16, -4
     350                    .dwpsn  file "../lab09_P1.c",line 15,column 5,is_stmt,isa 0
     351 000000 40F2          MOV.B     #41,&UCB0CTL0+0       ; [] |15| 
         000002 0029 
         000004 0000!
     352                    .dwpsn  file "../lab09_P1.c",line 16,column 5,is_stmt,isa 0
     353 000006 40F2          MOV.B     #129,&UCB0CTL1+0      ; [] |16| 
         000008 0081 
         00000a 0000!
     354                    .dwpsn  file "../lab09_P1.c",line 17,column 5,is_stmt,isa 0
     355 00000c 43E2          MOV.B     #2,&UCB0BR0+0         ; [] |17| 
         00000e 0000!
     356                    .dwpsn  file "../lab09_P1.c",line 18,column 5,is_stmt,isa 0
     357 000010 43C2          MOV.B     #0,&UCB0BR1+0         ; [] |18| 
         000012 0000!
     358                    .dwpsn  file "../lab09_P1.c",line 19,column 5,is_stmt,isa 0
     359 000014 D0F2          OR.B      #14,&P3SEL+0          ; [] |19| 
         000016 000E 
         000018 0000!
     360                    .dwpsn  file "../lab09_P1.c",line 20,column 5,is_stmt,isa 0
     361 00001a C3D2          BIC.B     #1,&UCB0CTL1+0        ; [] |20| 
         00001c 0000!
     362                    .dwpsn  file "../lab09_P1.c",line 21,column 1,is_stmt,isa 0
     363            $C$DW$33        .dwtag  DW_TAG_TI_branch
     364                    .dwattr $C$DW$33, DW_AT_low_pc(0x00)
     365                    .dwattr $C$DW$33, DW_AT_TI_return
     366            
     367 00001e 0110          RETA      ; [] 
     368                    ; [] 
     369                    .dwattr $C$DW$32, DW_AT_TI_end_file("../lab09_P1.c")
     370                    .dwattr $C$DW$32, DW_AT_TI_end_line(0x15)
     371                    .dwattr $C$DW$32, DW_AT_TI_end_column(0x01)
     372                    .dwendentry
     373                    .dwendtag $C$DW$32
     374            
     375 000000               .sect   ".text:SPI_getState"
     376                    .clink
MSP430 Assembler PC v21.6.0 Fri Mar 24 22:26:35 2023

Copyright (c) 2003-2018 Texas Instruments Incorporated
C:\Users\crs0074\AppData\Local\Temp\{1CDDF0A4-DD4F-44E4-962C-299E57A83445} PAGE    8

     377                    .global SPI_getState
     378            
     379            $C$DW$34        .dwtag  DW_TAG_subprogram
     380                    .dwattr $C$DW$34, DW_AT_name("SPI_getState")
     381                    .dwattr $C$DW$34, DW_AT_low_pc(SPI_getState)
     382                    .dwattr $C$DW$34, DW_AT_high_pc(0x00)
     383                    .dwattr $C$DW$34, DW_AT_TI_symbol_name("SPI_getState")
     384                    .dwattr $C$DW$34, DW_AT_external
     385                    .dwattr $C$DW$34, DW_AT_type(*$C$DW$T$6)
     386                    .dwattr $C$DW$34, DW_AT_TI_begin_file("../lab09_P1.c")
     387                    .dwattr $C$DW$34, DW_AT_TI_begin_line(0x17)
     388                    .dwattr $C$DW$34, DW_AT_TI_begin_column(0x0f)
     389                    .dwattr $C$DW$34, DW_AT_decl_file("../lab09_P1.c")
     390                    .dwattr $C$DW$34, DW_AT_decl_line(0x17)
     391                    .dwattr $C$DW$34, DW_AT_decl_column(0x0f)
     392                    .dwattr $C$DW$34, DW_AT_TI_max_frame_size(0x04)
     393                    .dwpsn  file "../lab09_P1.c",line 23,column 34,is_stmt,address SPI_getState,isa 0
     394            
     395                    .dwfde $C$DW$CIE, SPI_getState
     396            
     397            ;*****************************************************************************
     398            ;* FUNCTION NAME: SPI_getState                                               *
     399            ;*                                                                           *
     400            ;*   Regs Modified     : SP,SR,r12                                           *
     401            ;*   Regs Used         : SP,SR,r12                                           *
     402            ;*   Local Frame Size  : 0 Args + 0 Auto + 0 Save = 0 byte                   *
     403            ;*****************************************************************************
     404 000000       SPI_getState:
     405            ;* --------------------------------------------------------------------------*
     406                    .dwcfi  cfa_offset, 4
     407                    .dwcfi  save_reg_to_mem, 16, -4
     408                    .dwpsn  file "../lab09_P1.c",line 24,column 5,is_stmt,isa 0
     409            ;* --------------------------------------------------------------------------*
     410            ;*   BEGIN LOOP $C$L1
     411            ;*
     412            ;*   Loop source line                : 24
     413            ;*   Loop closing brace source line  : 24
     414            ;*   Known Minimum Trip Count        : 1
     415            ;*   Known Maximum Trip Count        : 4294967295
     416            ;*   Known Max Trip Count Factor     : 1
     417            ;* --------------------------------------------------------------------------*
     418 000000       $C$L1:    
     419 000000 B3D2          BIT.B     #1,&P3IN+0            ; [] |24| 
         000002 0000!
     420 000004 23FD          JNE       $C$L1                 ; [] |24| 
     421                                                      ; [] |24| 
     422            ;* --------------------------------------------------------------------------*
     423                    .dwpsn  file "../lab09_P1.c",line 25,column 5,is_stmt,isa 0
     424 000006 C2E2          BIC.B     #4,&IFG2+0            ; [] |25| 
         000008 0000!
     425                    .dwpsn  file "../lab09_P1.c",line 26,column 5,is_stmt,isa 0
     426 00000a 43C2          MOV.B     #0,&UCB0TXBUF+0       ; [] |26| 
         00000c 0000!
     427                    .dwpsn  file "../lab09_P1.c",line 27,column 5,is_stmt,isa 0
     428            ;* --------------------------------------------------------------------------*
MSP430 Assembler PC v21.6.0 Fri Mar 24 22:26:35 2023

Copyright (c) 2003-2018 Texas Instruments Incorporated
C:\Users\crs0074\AppData\Local\Temp\{1CDDF0A4-DD4F-44E4-962C-299E57A83445} PAGE    9

     429            ;*   BEGIN LOOP $C$L2
     430            ;*
     431            ;*   Loop source line                : 27
     432            ;*   Loop closing brace source line  : 27
     433            ;*   Known Minimum Trip Count        : 1
     434            ;*   Known Maximum Trip Count        : 4294967295
     435            ;*   Known Max Trip Count Factor     : 1
     436            ;* --------------------------------------------------------------------------*
     437 00000e       $C$L2:    
     438                    .dwpsn  file "../lab09_P1.c",line 27,column 12,is_stmt,isa 0
     439 00000e B2E2          BIT.B     #4,&IFG2+0            ; [] |27| 
         000010 0000!
     440 000012 27FD          JEQ       $C$L2                 ; [] |27| 
     441                                                      ; [] |27| 
     442            ;* --------------------------------------------------------------------------*
     443                    .dwpsn  file "../lab09_P1.c",line 28,column 5,is_stmt,isa 0
     444 000014 425C          MOV.B     &UCB0RXBUF+0,r12      ; [] |28| 
         000016 0000!
     445                    .dwpsn  file "../lab09_P1.c",line 29,column 1,is_stmt,isa 0
     446            $C$DW$35        .dwtag  DW_TAG_TI_branch
     447                    .dwattr $C$DW$35, DW_AT_low_pc(0x00)
     448                    .dwattr $C$DW$35, DW_AT_TI_return
     449            
     450 000018 0110          RETA      ; [] 
     451                    ; [] 
     452                    .dwattr $C$DW$34, DW_AT_TI_end_file("../lab09_P1.c")
     453                    .dwattr $C$DW$34, DW_AT_TI_end_line(0x1d)
     454                    .dwattr $C$DW$34, DW_AT_TI_end_column(0x01)
     455                    .dwendentry
     456                    .dwendtag $C$DW$34
     457            
     458 000000               .sect   ".text:SPI_setState"
     459                    .clink
     460                    .global SPI_setState
     461            
     462            $C$DW$36        .dwtag  DW_TAG_subprogram
     463                    .dwattr $C$DW$36, DW_AT_name("SPI_setState")
     464                    .dwattr $C$DW$36, DW_AT_low_pc(SPI_setState)
     465                    .dwattr $C$DW$36, DW_AT_high_pc(0x00)
     466                    .dwattr $C$DW$36, DW_AT_TI_symbol_name("SPI_setState")
     467                    .dwattr $C$DW$36, DW_AT_external
     468                    .dwattr $C$DW$36, DW_AT_TI_begin_file("../lab09_P1.c")
     469                    .dwattr $C$DW$36, DW_AT_TI_begin_line(0x1f)
     470                    .dwattr $C$DW$36, DW_AT_TI_begin_column(0x06)
     471                    .dwattr $C$DW$36, DW_AT_decl_file("../lab09_P1.c")
     472                    .dwattr $C$DW$36, DW_AT_decl_line(0x1f)
     473                    .dwattr $C$DW$36, DW_AT_decl_column(0x06)
     474                    .dwattr $C$DW$36, DW_AT_TI_max_frame_size(0x06)
     475                    .dwpsn  file "../lab09_P1.c",line 31,column 40,is_stmt,address SPI_setState,isa 0
     476            
     477                    .dwfde $C$DW$CIE, SPI_setState
     478            $C$DW$37        .dwtag  DW_TAG_formal_parameter
     479                    .dwattr $C$DW$37, DW_AT_name("State")
     480                    .dwattr $C$DW$37, DW_AT_TI_symbol_name("State")
     481                    .dwattr $C$DW$37, DW_AT_type(*$C$DW$T$6)
MSP430 Assembler PC v21.6.0 Fri Mar 24 22:26:35 2023

Copyright (c) 2003-2018 Texas Instruments Incorporated
C:\Users\crs0074\AppData\Local\Temp\{1CDDF0A4-DD4F-44E4-962C-299E57A83445} PAGE   10

     482                    .dwattr $C$DW$37, DW_AT_location[DW_OP_reg12]
     483            
     484            
     485            ;*****************************************************************************
     486            ;* FUNCTION NAME: SPI_setState                                               *
     487            ;*                                                                           *
     488            ;*   Regs Modified     : SP,SR                                               *
     489            ;*   Regs Used         : SP,SR,r12                                           *
     490            ;*   Local Frame Size  : 0 Args + 2 Auto + 0 Save = 2 byte                   *
     491            ;*****************************************************************************
     492 000000       SPI_setState:
     493            ;* --------------------------------------------------------------------------*
     494                    .dwcfi  cfa_offset, 4
     495                    .dwcfi  save_reg_to_mem, 16, -4
     496 000000 03F1          SUBA      #2,SP                 ; [] 
     497                    .dwcfi  cfa_offset, 6
     498            $C$DW$38        .dwtag  DW_TAG_variable
     499                    .dwattr $C$DW$38, DW_AT_name("State")
     500                    .dwattr $C$DW$38, DW_AT_TI_symbol_name("State")
     501                    .dwattr $C$DW$38, DW_AT_type(*$C$DW$T$6)
     502                    .dwattr $C$DW$38, DW_AT_location[DW_OP_breg1 0]
     503            
     504 000002 4CC1          MOV.B     r12,0(SP)             ; [] |31| 
         000004 0000 
     505                    .dwpsn  file "../lab09_P1.c",line 32,column 5,is_stmt,isa 0
     506            ;* --------------------------------------------------------------------------*
     507            ;*   BEGIN LOOP $C$L3
     508            ;*
     509            ;*   Loop source line                : 32
     510            ;*   Loop closing brace source line  : 32
     511            ;*   Known Minimum Trip Count        : 1
     512            ;*   Known Maximum Trip Count        : 4294967295
     513            ;*   Known Max Trip Count Factor     : 1
     514            ;* --------------------------------------------------------------------------*
     515 000006       $C$L3:    
     516 000006 B3D2          BIT.B     #1,&P3IN+0            ; [] |32| 
         000008 0000!
     517 00000a 23FD          JNE       $C$L3                 ; [] |32| 
     518                                                      ; [] |32| 
     519            ;* --------------------------------------------------------------------------*
     520                    .dwpsn  file "../lab09_P1.c",line 33,column 5,is_stmt,isa 0
     521 00000c C2E2          BIC.B     #4,&IFG2+0            ; [] |33| 
         00000e 0000!
     522                    .dwpsn  file "../lab09_P1.c",line 34,column 5,is_stmt,isa 0
     523 000010 41E2          MOV.B     0(SP),&UCB0TXBUF+0    ; [] |34| 
         000012 0000!
     524                    .dwpsn  file "../lab09_P1.c",line 35,column 5,is_stmt,isa 0
     525            ;* --------------------------------------------------------------------------*
     526            ;*   BEGIN LOOP $C$L4
     527            ;*
     528            ;*   Loop source line                : 35
     529            ;*   Loop closing brace source line  : 35
     530            ;*   Known Minimum Trip Count        : 1
     531            ;*   Known Maximum Trip Count        : 4294967295
     532            ;*   Known Max Trip Count Factor     : 1
MSP430 Assembler PC v21.6.0 Fri Mar 24 22:26:35 2023

Copyright (c) 2003-2018 Texas Instruments Incorporated
C:\Users\crs0074\AppData\Local\Temp\{1CDDF0A4-DD4F-44E4-962C-299E57A83445} PAGE   11

     533            ;* --------------------------------------------------------------------------*
     534 000014       $C$L4:    
     535                    .dwpsn  file "../lab09_P1.c",line 35,column 12,is_stmt,isa 0
     536 000014 B2E2          BIT.B     #4,&IFG2+0            ; [] |35| 
         000016 0000!
     537 000018 27FD          JEQ       $C$L4                 ; [] |35| 
     538                                                      ; [] |35| 
     539            ;* --------------------------------------------------------------------------*
     540                    .dwpsn  file "../lab09_P1.c",line 36,column 1,is_stmt,isa 0
     541 00001a 03E1          ADDA      #2,SP                 ; [] 
     542                    .dwcfi  cfa_offset, 4
     543            $C$DW$39        .dwtag  DW_TAG_TI_branch
     544                    .dwattr $C$DW$39, DW_AT_low_pc(0x00)
     545                    .dwattr $C$DW$39, DW_AT_TI_return
     546            
     547 00001c 0110          RETA      ; [] 
     548                    ; [] 
     549                    .dwattr $C$DW$36, DW_AT_TI_end_file("../lab09_P1.c")
     550                    .dwattr $C$DW$36, DW_AT_TI_end_line(0x24)
     551                    .dwattr $C$DW$36, DW_AT_TI_end_column(0x01)
     552                    .dwendentry
     553                    .dwendtag $C$DW$36
     554            
     555 000000               .sect   ".text:UART_setup"
     556                    .clink
     557                    .global UART_setup
     558            
     559            $C$DW$40        .dwtag  DW_TAG_subprogram
     560                    .dwattr $C$DW$40, DW_AT_name("UART_setup")
     561                    .dwattr $C$DW$40, DW_AT_low_pc(UART_setup)
     562                    .dwattr $C$DW$40, DW_AT_high_pc(0x00)
     563                    .dwattr $C$DW$40, DW_AT_TI_symbol_name("UART_setup")
     564                    .dwattr $C$DW$40, DW_AT_external
     565                    .dwattr $C$DW$40, DW_AT_TI_begin_file("../lab09_P1.c")
     566                    .dwattr $C$DW$40, DW_AT_TI_begin_line(0x2a)
     567                    .dwattr $C$DW$40, DW_AT_TI_begin_column(0x06)
     568                    .dwattr $C$DW$40, DW_AT_decl_file("../lab09_P1.c")
     569                    .dwattr $C$DW$40, DW_AT_decl_line(0x2a)
     570                    .dwattr $C$DW$40, DW_AT_decl_column(0x06)
     571                    .dwattr $C$DW$40, DW_AT_TI_max_frame_size(0x04)
     572                    .dwpsn  file "../lab09_P1.c",line 42,column 19,is_stmt,address UART_setup,isa 0
     573            
     574                    .dwfde $C$DW$CIE, UART_setup
     575            
     576            ;*****************************************************************************
     577            ;* FUNCTION NAME: UART_setup                                                 *
     578            ;*                                                                           *
     579            ;*   Regs Modified     : SP                                                  *
     580            ;*   Regs Used         : SP                                                  *
     581            ;*   Local Frame Size  : 0 Args + 0 Auto + 0 Save = 0 byte                   *
     582            ;*****************************************************************************
     583 000000       UART_setup:
     584            ;* --------------------------------------------------------------------------*
     585                    .dwcfi  cfa_offset, 4
     586                    .dwcfi  save_reg_to_mem, 16, -4
MSP430 Assembler PC v21.6.0 Fri Mar 24 22:26:35 2023

Copyright (c) 2003-2018 Texas Instruments Incorporated
C:\Users\crs0074\AppData\Local\Temp\{1CDDF0A4-DD4F-44E4-962C-299E57A83445} PAGE   12

     587                    .dwpsn  file "../lab09_P1.c",line 43,column 5,is_stmt,isa 0
     588 000000 D0F2          OR.B      #48,&P2SEL+0          ; [] |43| 
         000002 0030 
         000004 0000!
     589                    .dwpsn  file "../lab09_P1.c",line 44,column 5,is_stmt,isa 0
     590 000006 D3D2          OR.B      #1,&UCA0CTL1+0        ; [] |44| 
         000008 0000!
     591                    .dwpsn  file "../lab09_P1.c",line 45,column 5,is_stmt,isa 0
     592 00000a 43C2          MOV.B     #0,&UCA0CTL0+0        ; [] |45| 
         00000c 0000!
     593                    .dwpsn  file "../lab09_P1.c",line 46,column 5,is_stmt,isa 0
     594 00000e D0F2          OR.B      #128,&UCA0CTL1+0      ; [] |46| 
         000010 0080 
         000012 0000!
     595                    .dwpsn  file "../lab09_P1.c",line 47,column 5,is_stmt,isa 0
     596 000014 40F2          MOV.B     #9,&UCA0BR0+0         ; [] |47| 
         000016 0009 
         000018 0000!
     597                    .dwpsn  file "../lab09_P1.c",line 48,column 5,is_stmt,isa 0
     598 00001a 43C2          MOV.B     #0,&UCA0BR1+0         ; [] |48| 
         00001c 0000!
     599                    .dwpsn  file "../lab09_P1.c",line 49,column 5,is_stmt,isa 0
     600 00001e 43E2          MOV.B     #2,&UCA0MCTL+0        ; [] |49| 
         000020 0000!
     601                    .dwpsn  file "../lab09_P1.c",line 50,column 5,is_stmt,isa 0
     602 000022 C3D2          BIC.B     #1,&UCA0CTL1+0        ; [] |50| 
         000024 0000!
     603                    .dwpsn  file "../lab09_P1.c",line 51,column 1,is_stmt,isa 0
     604            $C$DW$41        .dwtag  DW_TAG_TI_branch
     605                    .dwattr $C$DW$41, DW_AT_low_pc(0x00)
     606                    .dwattr $C$DW$41, DW_AT_TI_return
     607            
     608 000026 0110          RETA      ; [] 
     609                    ; [] 
     610                    .dwattr $C$DW$40, DW_AT_TI_end_file("../lab09_P1.c")
     611                    .dwattr $C$DW$40, DW_AT_TI_end_line(0x33)
     612                    .dwattr $C$DW$40, DW_AT_TI_end_column(0x01)
     613                    .dwendentry
     614                    .dwendtag $C$DW$40
     615            
     616 000000               .sect   ".text:UART_sendCharacter"
     617                    .clink
     618                    .global UART_sendCharacter
     619            
     620            $C$DW$42        .dwtag  DW_TAG_subprogram
     621                    .dwattr $C$DW$42, DW_AT_name("UART_sendCharacter")
     622                    .dwattr $C$DW$42, DW_AT_low_pc(UART_sendCharacter)
     623                    .dwattr $C$DW$42, DW_AT_high_pc(0x00)
     624                    .dwattr $C$DW$42, DW_AT_TI_symbol_name("UART_sendCharacter")
     625                    .dwattr $C$DW$42, DW_AT_external
     626                    .dwattr $C$DW$42, DW_AT_TI_begin_file("../lab09_P1.c")
     627                    .dwattr $C$DW$42, DW_AT_TI_begin_line(0x38)
     628                    .dwattr $C$DW$42, DW_AT_TI_begin_column(0x06)
     629                    .dwattr $C$DW$42, DW_AT_decl_file("../lab09_P1.c")
     630                    .dwattr $C$DW$42, DW_AT_decl_line(0x38)
MSP430 Assembler PC v21.6.0 Fri Mar 24 22:26:35 2023

Copyright (c) 2003-2018 Texas Instruments Incorporated
C:\Users\crs0074\AppData\Local\Temp\{1CDDF0A4-DD4F-44E4-962C-299E57A83445} PAGE   13

     631                    .dwattr $C$DW$42, DW_AT_decl_column(0x06)
     632                    .dwattr $C$DW$42, DW_AT_TI_max_frame_size(0x06)
     633                    .dwpsn  file "../lab09_P1.c",line 56,column 34,is_stmt,address UART_sendCharacter,isa 0
     634            
     635                    .dwfde $C$DW$CIE, UART_sendCharacter
     636            $C$DW$43        .dwtag  DW_TAG_formal_parameter
     637                    .dwattr $C$DW$43, DW_AT_name("c")
     638                    .dwattr $C$DW$43, DW_AT_TI_symbol_name("c")
     639                    .dwattr $C$DW$43, DW_AT_type(*$C$DW$T$6)
     640                    .dwattr $C$DW$43, DW_AT_location[DW_OP_reg12]
     641            
     642            
     643            ;*****************************************************************************
     644            ;* FUNCTION NAME: UART_sendCharacter                                         *
     645            ;*                                                                           *
     646            ;*   Regs Modified     : SP,SR                                               *
     647            ;*   Regs Used         : SP,SR,r12                                           *
     648            ;*   Local Frame Size  : 0 Args + 2 Auto + 0 Save = 2 byte                   *
     649            ;*****************************************************************************
     650 000000       UART_sendCharacter:
     651            ;* --------------------------------------------------------------------------*
     652                    .dwcfi  cfa_offset, 4
     653                    .dwcfi  save_reg_to_mem, 16, -4
     654 000000 03F1          SUBA      #2,SP                 ; [] 
     655                    .dwcfi  cfa_offset, 6
     656            $C$DW$44        .dwtag  DW_TAG_variable
     657                    .dwattr $C$DW$44, DW_AT_name("c")
     658                    .dwattr $C$DW$44, DW_AT_TI_symbol_name("c")
     659                    .dwattr $C$DW$44, DW_AT_type(*$C$DW$T$6)
     660                    .dwattr $C$DW$44, DW_AT_location[DW_OP_breg1 0]
     661            
     662 000002 4CC1          MOV.B     r12,0(SP)             ; [] |56| 
         000004 0000 
     663                    .dwpsn  file "../lab09_P1.c",line 57,column 5,is_stmt,isa 0
     664            ;* --------------------------------------------------------------------------*
     665            ;*   BEGIN LOOP $C$L5
     666            ;*
     667            ;*   Loop source line                : 57
     668            ;*   Loop closing brace source line  : 57
     669            ;*   Known Minimum Trip Count        : 1
     670            ;*   Known Maximum Trip Count        : 4294967295
     671            ;*   Known Max Trip Count Factor     : 1
     672            ;* --------------------------------------------------------------------------*
     673 000006       $C$L5:    
     674                    .dwpsn  file "../lab09_P1.c",line 57,column 12,is_stmt,isa 0
     675 000006 B3E2          BIT.B     #2,&IFG2+0            ; [] |57| 
         000008 0000!
     676 00000a 27FD          JEQ       $C$L5                 ; [] |57| 
     677                                                      ; [] |57| 
     678            ;* --------------------------------------------------------------------------*
     679                    .dwpsn  file "../lab09_P1.c",line 58,column 5,is_stmt,isa 0
     680 00000c 41E2          MOV.B     0(SP),&UCA0TXBUF+0    ; [] |58| 
         00000e 0000!
     681                    .dwpsn  file "../lab09_P1.c",line 59,column 1,is_stmt,isa 0
     682 000010 03E1          ADDA      #2,SP                 ; [] 
MSP430 Assembler PC v21.6.0 Fri Mar 24 22:26:35 2023

Copyright (c) 2003-2018 Texas Instruments Incorporated
C:\Users\crs0074\AppData\Local\Temp\{1CDDF0A4-DD4F-44E4-962C-299E57A83445} PAGE   14

     683                    .dwcfi  cfa_offset, 4
     684            $C$DW$45        .dwtag  DW_TAG_TI_branch
     685                    .dwattr $C$DW$45, DW_AT_low_pc(0x00)
     686                    .dwattr $C$DW$45, DW_AT_TI_return
     687            
     688 000012 0110          RETA      ; [] 
     689                    ; [] 
     690                    .dwattr $C$DW$42, DW_AT_TI_end_file("../lab09_P1.c")
     691                    .dwattr $C$DW$42, DW_AT_TI_end_line(0x3b)
     692                    .dwattr $C$DW$42, DW_AT_TI_end_column(0x01)
     693                    .dwendentry
     694                    .dwendtag $C$DW$42
     695            
     696 000000               .sect   ".text:UART_getCharacter"
     697                    .clink
     698                    .global UART_getCharacter
     699            
     700            $C$DW$46        .dwtag  DW_TAG_subprogram
     701                    .dwattr $C$DW$46, DW_AT_name("UART_getCharacter")
     702                    .dwattr $C$DW$46, DW_AT_low_pc(UART_getCharacter)
     703                    .dwattr $C$DW$46, DW_AT_high_pc(0x00)
     704                    .dwattr $C$DW$46, DW_AT_TI_symbol_name("UART_getCharacter")
     705                    .dwattr $C$DW$46, DW_AT_external
     706                    .dwattr $C$DW$46, DW_AT_type(*$C$DW$T$6)
     707                    .dwattr $C$DW$46, DW_AT_TI_begin_file("../lab09_P1.c")
     708                    .dwattr $C$DW$46, DW_AT_TI_begin_line(0x40)
     709                    .dwattr $C$DW$46, DW_AT_TI_begin_column(0x06)
     710                    .dwattr $C$DW$46, DW_AT_decl_file("../lab09_P1.c")
     711                    .dwattr $C$DW$46, DW_AT_decl_line(0x40)
     712                    .dwattr $C$DW$46, DW_AT_decl_column(0x06)
     713                    .dwattr $C$DW$46, DW_AT_TI_max_frame_size(0x04)
     714                    .dwpsn  file "../lab09_P1.c",line 64,column 27,is_stmt,address UART_getCharacter,isa 0
     715            
     716                    .dwfde $C$DW$CIE, UART_getCharacter
     717            
     718            ;*****************************************************************************
     719            ;* FUNCTION NAME: UART_getCharacter                                          *
     720            ;*                                                                           *
     721            ;*   Regs Modified     : SP,SR,r12                                           *
     722            ;*   Regs Used         : SP,SR,r12                                           *
     723            ;*   Local Frame Size  : 0 Args + 0 Auto + 0 Save = 0 byte                   *
     724            ;*****************************************************************************
     725 000000       UART_getCharacter:
     726            ;* --------------------------------------------------------------------------*
     727                    .dwcfi  cfa_offset, 4
     728                    .dwcfi  save_reg_to_mem, 16, -4
     729                    .dwpsn  file "../lab09_P1.c",line 65,column 5,is_stmt,isa 0
     730            ;* --------------------------------------------------------------------------*
     731            ;*   BEGIN LOOP $C$L6
     732            ;*
     733            ;*   Loop source line                : 65
     734            ;*   Loop closing brace source line  : 65
     735            ;*   Known Minimum Trip Count        : 1
     736            ;*   Known Maximum Trip Count        : 4294967295
     737            ;*   Known Max Trip Count Factor     : 1
MSP430 Assembler PC v21.6.0 Fri Mar 24 22:26:35 2023

Copyright (c) 2003-2018 Texas Instruments Incorporated
C:\Users\crs0074\AppData\Local\Temp\{1CDDF0A4-DD4F-44E4-962C-299E57A83445} PAGE   15

     738            ;* --------------------------------------------------------------------------*
     739 000000       $C$L6:    
     740                    .dwpsn  file "../lab09_P1.c",line 65,column 11,is_stmt,isa 0
     741 000000 B3E2          BIT.B     #2,&IFG2+0            ; [] |65| 
         000002 0000!
     742 000004 27FD          JEQ       $C$L6                 ; [] |65| 
     743                                                      ; [] |65| 
     744            ;* --------------------------------------------------------------------------*
     745                    .dwpsn  file "../lab09_P1.c",line 66,column 5,is_stmt,isa 0
     746 000006 425C          MOV.B     &UCA0RXBUF+0,r12      ; [] |66| 
         000008 0000!
     747                    .dwpsn  file "../lab09_P1.c",line 67,column 1,is_stmt,isa 0
     748            $C$DW$47        .dwtag  DW_TAG_TI_branch
     749                    .dwattr $C$DW$47, DW_AT_low_pc(0x00)
     750                    .dwattr $C$DW$47, DW_AT_TI_return
     751            
     752 00000a 0110          RETA      ; [] 
     753                    ; [] 
     754                    .dwattr $C$DW$46, DW_AT_TI_end_file("../lab09_P1.c")
     755                    .dwattr $C$DW$46, DW_AT_TI_end_line(0x43)
     756                    .dwattr $C$DW$46, DW_AT_TI_end_column(0x01)
     757                    .dwendentry
     758                    .dwendtag $C$DW$46
     759            
     760 000000               .sect   ".text:UART_sendString"
     761                    .clink
     762                    .global UART_sendString
     763            
     764            $C$DW$48        .dwtag  DW_TAG_subprogram
     765                    .dwattr $C$DW$48, DW_AT_name("UART_sendString")
     766                    .dwattr $C$DW$48, DW_AT_low_pc(UART_sendString)
     767                    .dwattr $C$DW$48, DW_AT_high_pc(0x00)
     768                    .dwattr $C$DW$48, DW_AT_TI_symbol_name("UART_sendString")
     769                    .dwattr $C$DW$48, DW_AT_external
     770                    .dwattr $C$DW$48, DW_AT_TI_begin_file("../lab09_P1.c")
     771                    .dwattr $C$DW$48, DW_AT_TI_begin_line(0x48)
     772                    .dwattr $C$DW$48, DW_AT_TI_begin_column(0x06)
     773                    .dwattr $C$DW$48, DW_AT_decl_file("../lab09_P1.c")
     774                    .dwattr $C$DW$48, DW_AT_decl_line(0x48)
     775                    .dwattr $C$DW$48, DW_AT_decl_column(0x06)
     776                    .dwattr $C$DW$48, DW_AT_TI_max_frame_size(0x0a)
     777                    .dwpsn  file "../lab09_P1.c",line 72,column 33,is_stmt,address UART_sendString,isa 0
     778            
     779                    .dwfde $C$DW$CIE, UART_sendString
     780            $C$DW$49        .dwtag  DW_TAG_formal_parameter
     781                    .dwattr $C$DW$49, DW_AT_name("str")
     782                    .dwattr $C$DW$49, DW_AT_TI_symbol_name("str")
     783                    .dwattr $C$DW$49, DW_AT_type(*$C$DW$T$43)
     784                    .dwattr $C$DW$49, DW_AT_location[DW_OP_reg12]
     785            
     786            
     787            ;*****************************************************************************
     788            ;* FUNCTION NAME: UART_sendString                                            *
     789            ;*                                                                           *
     790            ;*   Regs Modified     : SP,SR,r12,r15                                       *
MSP430 Assembler PC v21.6.0 Fri Mar 24 22:26:35 2023

Copyright (c) 2003-2018 Texas Instruments Incorporated
C:\Users\crs0074\AppData\Local\Temp\{1CDDF0A4-DD4F-44E4-962C-299E57A83445} PAGE   16

     791            ;*   Regs Used         : SP,SR,r12,r15                                       *
     792            ;*   Local Frame Size  : 0 Args + 6 Auto + 0 Save = 6 byte                   *
     793            ;*****************************************************************************
     794 000000       UART_sendString:
     795            ;* --------------------------------------------------------------------------*
     796                    .dwcfi  cfa_offset, 4
     797                    .dwcfi  save_reg_to_mem, 16, -4
     798 000000 00B1          SUBA      #6,SP                 ; [] 
         000002 0006 
     799                    .dwcfi  cfa_offset, 10
     800            $C$DW$50        .dwtag  DW_TAG_variable
     801                    .dwattr $C$DW$50, DW_AT_name("str")
     802                    .dwattr $C$DW$50, DW_AT_TI_symbol_name("str")
     803                    .dwattr $C$DW$50, DW_AT_type(*$C$DW$T$43)
     804                    .dwattr $C$DW$50, DW_AT_location[DW_OP_breg1 0]
     805            
     806            $C$DW$51        .dwtag  DW_TAG_variable
     807                    .dwattr $C$DW$51, DW_AT_name("i")
     808                    .dwattr $C$DW$51, DW_AT_TI_symbol_name("i")
     809                    .dwattr $C$DW$51, DW_AT_type(*$C$DW$T$10)
     810                    .dwattr $C$DW$51, DW_AT_location[DW_OP_breg1 4]
     811            
     812 000004 0C71          MOVX.A    r12,0(SP)             ; [] |72| 
         000006 0000 
     813                    .dwpsn  file "../lab09_P1.c",line 73,column 11,is_stmt,isa 0
     814 000008 4381          MOV.W     #0,4(SP)              ; [] |73| 
         00000a 0004 
     815                    .dwpsn  file "../lab09_P1.c",line 74,column 5,is_stmt,isa 0
     816 00000c 3C0C          JMP       $C$L8                 ; [] |74| 
     817                                                      ; [] |74| 
     818            ;* --------------------------------------------------------------------------*
     819 00000e       $C$L7:    
     820                    .dwpsn  file "../lab09_P1.c",line 75,column 9,is_stmt,isa 0
     821 00000e 411F          MOV.W     4(SP),r15             ; [] |75| 
         000010 0004 
     822 000012 0E4F          RLAM.A    #4,r15                ; [] |75| 
     823 000014 0D4F          RRAM.A    #4,r15                ; [] |75| 
     824 000016 1800          ADDX.A    0(SP),r15             ; [] |75| 
         000018 515F 
         00001a 0000 
     825 00001c 4F6C          MOV.B     @r15,r12              ; [] |75| 
     826            $C$DW$52        .dwtag  DW_TAG_TI_branch
     827                    .dwattr $C$DW$52, DW_AT_low_pc(0x00)
     828                    .dwattr $C$DW$52, DW_AT_name("UART_sendCharacter")
     829                    .dwattr $C$DW$52, DW_AT_TI_call
     830            
     831 00001e 13B0!         CALLA     #UART_sendCharacter   ; [] |75| 
         000020 0000 
     832                                                      ; [] |75| 
     833                    .dwpsn  file "../lab09_P1.c",line 76,column 9,is_stmt,isa 0
     834 000022 5391          ADD.W     #1,4(SP)              ; [] |76| 
         000024 0004 
     835            ;* --------------------------------------------------------------------------*
     836            ;*   BEGIN LOOP $C$L8
     837            ;* --------------------------------------------------------------------------*
MSP430 Assembler PC v21.6.0 Fri Mar 24 22:26:35 2023

Copyright (c) 2003-2018 Texas Instruments Incorporated
C:\Users\crs0074\AppData\Local\Temp\{1CDDF0A4-DD4F-44E4-962C-299E57A83445} PAGE   17

     838 000026       $C$L8:    
     839                    .dwpsn  file "../lab09_P1.c",line 74,column 11,is_stmt,isa 0
     840 000026 411F          MOV.W     4(SP),r15             ; [] |74| 
         000028 0004 
     841 00002a 0E4F          RLAM.A    #4,r15                ; [] |74| 
     842 00002c 0D4F          RRAM.A    #4,r15                ; [] |74| 
     843 00002e 1800          ADDX.A    0(SP),r15             ; [] |74| 
         000030 515F 
         000032 0000 
     844 000034 93CF          TST.B     0(r15)                ; [] |74| 
         000036 0000 
     845 000038 23EA          JNE       $C$L7                 ; [] |74| 
     846                                                      ; [] |74| 
     847            ;* --------------------------------------------------------------------------*
     848                    .dwpsn  file "../lab09_P1.c",line 78,column 1,is_stmt,isa 0
     849 00003a 00A1          ADDA      #6,SP                 ; [] 
         00003c 0006 
     850                    .dwcfi  cfa_offset, 4
     851            $C$DW$53        .dwtag  DW_TAG_TI_branch
     852                    .dwattr $C$DW$53, DW_AT_low_pc(0x00)
     853                    .dwattr $C$DW$53, DW_AT_TI_return
     854            
     855 00003e 0110          RETA      ; [] 
     856                    ; [] 
     857                    .dwattr $C$DW$48, DW_AT_TI_end_file("../lab09_P1.c")
     858                    .dwattr $C$DW$48, DW_AT_TI_end_line(0x4e)
     859                    .dwattr $C$DW$48, DW_AT_TI_end_column(0x01)
     860                    .dwendentry
     861                    .dwendtag $C$DW$48
     862            
     863 000000               .sect   ".text:DMA_setup"
     864                    .clink
     865                    .global DMA_setup
     866            
     867            $C$DW$54        .dwtag  DW_TAG_subprogram
     868                    .dwattr $C$DW$54, DW_AT_name("DMA_setup")
     869                    .dwattr $C$DW$54, DW_AT_low_pc(DMA_setup)
     870                    .dwattr $C$DW$54, DW_AT_high_pc(0x00)
     871                    .dwattr $C$DW$54, DW_AT_TI_symbol_name("DMA_setup")
     872                    .dwattr $C$DW$54, DW_AT_external
     873                    .dwattr $C$DW$54, DW_AT_TI_begin_file("../lab09_P1.c")
     874                    .dwattr $C$DW$54, DW_AT_TI_begin_line(0x51)
     875                    .dwattr $C$DW$54, DW_AT_TI_begin_column(0x06)
     876                    .dwattr $C$DW$54, DW_AT_decl_file("../lab09_P1.c")
     877                    .dwattr $C$DW$54, DW_AT_decl_line(0x51)
     878                    .dwattr $C$DW$54, DW_AT_decl_column(0x06)
     879                    .dwattr $C$DW$54, DW_AT_TI_max_frame_size(0x04)
     880                    .dwpsn  file "../lab09_P1.c",line 81,column 22,is_stmt,address DMA_setup,isa 0
     881            
     882                    .dwfde $C$DW$CIE, DMA_setup
     883            
     884            ;*****************************************************************************
     885            ;* FUNCTION NAME: DMA_setup                                                  *
     886            ;*                                                                           *
     887            ;*   Regs Modified     : SP                                                  *
MSP430 Assembler PC v21.6.0 Fri Mar 24 22:26:35 2023

Copyright (c) 2003-2018 Texas Instruments Incorporated
C:\Users\crs0074\AppData\Local\Temp\{1CDDF0A4-DD4F-44E4-962C-299E57A83445} PAGE   18

     888            ;*   Regs Used         : SP                                                  *
     889            ;*   Local Frame Size  : 0 Args + 0 Auto + 0 Save = 0 byte                   *
     890            ;*****************************************************************************
     891 000000       DMA_setup:
     892            ;* --------------------------------------------------------------------------*
     893                    .dwcfi  cfa_offset, 4
     894                    .dwcfi  save_reg_to_mem, 16, -4
     895                    .dwpsn  file "../lab09_P1.c",line 82,column 5,is_stmt,isa 0
     896 000000 42A2          MOV.W     #4,&DMACTL0+0         ; [] |82| 
         000002 0000!
     897                    .dwpsn  file "../lab09_P1.c",line 83,column 5,is_stmt,isa 0
     898 000004 1800!         MOVX.A    #pause+0,&DMA0SA+0    ; [] |83| 
         000006 40F2 
         000008 0000 
         00000a 0000 
     899                    .dwpsn  file "../lab09_P1.c",line 84,column 5,is_stmt,isa 0
     900 00000c 1800!         MOVX.A    #UCA0TXBUF+0,&DMA0DA+0 ; [] |84| 
         00000e 40F2 
         000010 0000 
         000012 0000 
     901                    .dwpsn  file "../lab09_P1.c",line 86,column 5,is_stmt,isa 0
     902 000014 40B2          MOV.W     #32,&DMA0CTL+0        ; [] |86| 
         000016 0020 
         000018 0000!
     903                    .dwpsn  file "../lab09_P1.c",line 88,column 1,is_stmt,isa 0
     904            $C$DW$55        .dwtag  DW_TAG_TI_branch
     905                    .dwattr $C$DW$55, DW_AT_low_pc(0x00)
     906                    .dwattr $C$DW$55, DW_AT_TI_return
     907            
     908 00001a 0110          RETA      ; [] 
     909                    ; [] 
     910                    .dwattr $C$DW$54, DW_AT_TI_end_file("../lab09_P1.c")
     911                    .dwattr $C$DW$54, DW_AT_TI_end_line(0x58)
     912                    .dwattr $C$DW$54, DW_AT_TI_end_column(0x01)
     913                    .dwendentry
     914                    .dwendtag $C$DW$54
     915            
     916 000000               .sect   ".text:UART_DMA_sendString"
     917                    .clink
     918                    .global UART_DMA_sendString
     919            
     920            $C$DW$56        .dwtag  DW_TAG_subprogram
     921                    .dwattr $C$DW$56, DW_AT_name("UART_DMA_sendString")
     922                    .dwattr $C$DW$56, DW_AT_low_pc(UART_DMA_sendString)
     923                    .dwattr $C$DW$56, DW_AT_high_pc(0x00)
     924                    .dwattr $C$DW$56, DW_AT_TI_symbol_name("UART_DMA_sendString")
     925                    .dwattr $C$DW$56, DW_AT_external
     926                    .dwattr $C$DW$56, DW_AT_TI_begin_file("../lab09_P1.c")
     927                    .dwattr $C$DW$56, DW_AT_TI_begin_line(0x5f)
     928                    .dwattr $C$DW$56, DW_AT_TI_begin_column(0x06)
     929                    .dwattr $C$DW$56, DW_AT_decl_file("../lab09_P1.c")
     930                    .dwattr $C$DW$56, DW_AT_decl_line(0x5f)
     931                    .dwattr $C$DW$56, DW_AT_decl_column(0x06)
     932                    .dwattr $C$DW$56, DW_AT_TI_max_frame_size(0x08)
     933                    .dwpsn  file "../lab09_P1.c",line 95,column 37,is_stmt,address UART_DMA_sendString,isa 0
MSP430 Assembler PC v21.6.0 Fri Mar 24 22:26:35 2023

Copyright (c) 2003-2018 Texas Instruments Incorporated
C:\Users\crs0074\AppData\Local\Temp\{1CDDF0A4-DD4F-44E4-962C-299E57A83445} PAGE   19

     934            
     935                    .dwfde $C$DW$CIE, UART_DMA_sendString
     936            $C$DW$57        .dwtag  DW_TAG_formal_parameter
     937                    .dwattr $C$DW$57, DW_AT_name("str")
     938                    .dwattr $C$DW$57, DW_AT_TI_symbol_name("str")
     939                    .dwattr $C$DW$57, DW_AT_type(*$C$DW$T$43)
     940                    .dwattr $C$DW$57, DW_AT_location[DW_OP_reg12]
     941            
     942            
     943            ;*****************************************************************************
     944            ;* FUNCTION NAME: UART_DMA_sendString                                        *
     945            ;*                                                                           *
     946            ;*   Regs Modified     : SP,SR                                               *
     947            ;*   Regs Used         : SP,SR,r12                                           *
     948            ;*   Local Frame Size  : 0 Args + 4 Auto + 0 Save = 4 byte                   *
     949            ;*****************************************************************************
     950 000000       UART_DMA_sendString:
     951            ;* --------------------------------------------------------------------------*
     952                    .dwcfi  cfa_offset, 4
     953                    .dwcfi  save_reg_to_mem, 16, -4
     954 000000 00B1          SUBA      #4,SP                 ; [] 
         000002 0004 
     955                    .dwcfi  cfa_offset, 8
     956            $C$DW$58        .dwtag  DW_TAG_variable
     957                    .dwattr $C$DW$58, DW_AT_name("str")
     958                    .dwattr $C$DW$58, DW_AT_TI_symbol_name("str")
     959                    .dwattr $C$DW$58, DW_AT_type(*$C$DW$T$43)
     960                    .dwattr $C$DW$58, DW_AT_location[DW_OP_breg1 0]
     961            
     962 000004 0C71          MOVX.A    r12,0(SP)             ; [] |95| 
         000006 0000 
     963                    .dwpsn  file "../lab09_P1.c",line 96,column 5,is_stmt,isa 0
     964 000008 0160!         MOVX.A    SP,&DMA0SA+0          ; [] |96| 
         00000a 0000 
     965                    .dwpsn  file "../lab09_P1.c",line 98,column 5,is_stmt,isa 0
     966 00000c 42A2          MOV.W     #4,&DMA0SZ+0          ; [] |98| 
         00000e 0000!
     967                    .dwpsn  file "../lab09_P1.c",line 99,column 5,is_stmt,isa 0
     968 000010 D0B2          OR.W      #16,&DMA0CTL+0        ; [] |99| 
         000012 0010 
         000014 0000!
     969                    .dwpsn  file "../lab09_P1.c",line 102,column 1,is_stmt,isa 0
     970 000016 00A1          ADDA      #4,SP                 ; [] 
         000018 0004 
     971                    .dwcfi  cfa_offset, 4
     972            $C$DW$59        .dwtag  DW_TAG_TI_branch
     973                    .dwattr $C$DW$59, DW_AT_low_pc(0x00)
     974                    .dwattr $C$DW$59, DW_AT_TI_return
     975            
     976 00001a 0110          RETA      ; [] 
     977                    ; [] 
     978                    .dwattr $C$DW$56, DW_AT_TI_end_file("../lab09_P1.c")
     979                    .dwattr $C$DW$56, DW_AT_TI_end_line(0x66)
     980                    .dwattr $C$DW$56, DW_AT_TI_end_column(0x01)
     981                    .dwendentry
MSP430 Assembler PC v21.6.0 Fri Mar 24 22:26:35 2023

Copyright (c) 2003-2018 Texas Instruments Incorporated
C:\Users\crs0074\AppData\Local\Temp\{1CDDF0A4-DD4F-44E4-962C-299E57A83445} PAGE   20

     982                    .dwendtag $C$DW$56
     983            
     984 000000               .sect   ".text:UART_getLine"
     985                    .clink
     986                    .global UART_getLine
     987            
     988            $C$DW$60        .dwtag  DW_TAG_subprogram
     989                    .dwattr $C$DW$60, DW_AT_name("UART_getLine")
     990                    .dwattr $C$DW$60, DW_AT_low_pc(UART_getLine)
     991                    .dwattr $C$DW$60, DW_AT_high_pc(0x00)
     992                    .dwattr $C$DW$60, DW_AT_TI_symbol_name("UART_getLine")
     993                    .dwattr $C$DW$60, DW_AT_external
     994                    .dwattr $C$DW$60, DW_AT_TI_begin_file("../lab09_P1.c")
     995                    .dwattr $C$DW$60, DW_AT_TI_begin_line(0x70)
     996                    .dwattr $C$DW$60, DW_AT_TI_begin_column(0x06)
     997                    .dwattr $C$DW$60, DW_AT_decl_file("../lab09_P1.c")
     998                    .dwattr $C$DW$60, DW_AT_decl_line(0x70)
     999                    .dwattr $C$DW$60, DW_AT_decl_column(0x06)
    1000                    .dwattr $C$DW$60, DW_AT_TI_max_frame_size(0x0c)
    1001                    .dwpsn  file "../lab09_P1.c",line 112,column 43,is_stmt,address UART_getLine,isa 0
    1002            
    1003                    .dwfde $C$DW$CIE, UART_getLine
    1004            $C$DW$61        .dwtag  DW_TAG_formal_parameter
    1005                    .dwattr $C$DW$61, DW_AT_name("buff")
    1006                    .dwattr $C$DW$61, DW_AT_TI_symbol_name("buff")
    1007                    .dwattr $C$DW$61, DW_AT_type(*$C$DW$T$43)
    1008                    .dwattr $C$DW$61, DW_AT_location[DW_OP_reg12]
    1009            
    1010            $C$DW$62        .dwtag  DW_TAG_formal_parameter
    1011                    .dwattr $C$DW$62, DW_AT_name("limit")
    1012                    .dwattr $C$DW$62, DW_AT_TI_symbol_name("limit")
    1013                    .dwattr $C$DW$62, DW_AT_type(*$C$DW$T$10)
    1014                    .dwattr $C$DW$62, DW_AT_location[DW_OP_reg13]
    1015            
    1016            
    1017            ;*****************************************************************************
    1018            ;* FUNCTION NAME: UART_getLine                                               *
    1019            ;*                                                                           *
    1020            ;*   Regs Modified     : SP,SR,r12,r14,r15                                   *
    1021            ;*   Regs Used         : SP,SR,r12,r13,r14,r15                               *
    1022            ;*   Local Frame Size  : 0 Args + 8 Auto + 0 Save = 8 byte                   *
    1023            ;*****************************************************************************
    1024 000000       UART_getLine:
    1025            ;* --------------------------------------------------------------------------*
    1026                    .dwcfi  cfa_offset, 4
    1027                    .dwcfi  save_reg_to_mem, 16, -4
    1028 000000 00B1          SUBA      #8,SP                 ; [] 
         000002 0008 
    1029                    .dwcfi  cfa_offset, 12
    1030            $C$DW$63        .dwtag  DW_TAG_variable
    1031                    .dwattr $C$DW$63, DW_AT_name("buff")
    1032                    .dwattr $C$DW$63, DW_AT_TI_symbol_name("buff")
    1033                    .dwattr $C$DW$63, DW_AT_type(*$C$DW$T$43)
    1034                    .dwattr $C$DW$63, DW_AT_location[DW_OP_breg1 0]
    1035            
MSP430 Assembler PC v21.6.0 Fri Mar 24 22:26:35 2023

Copyright (c) 2003-2018 Texas Instruments Incorporated
C:\Users\crs0074\AppData\Local\Temp\{1CDDF0A4-DD4F-44E4-962C-299E57A83445} PAGE   21

    1036            $C$DW$64        .dwtag  DW_TAG_variable
    1037                    .dwattr $C$DW$64, DW_AT_name("limit")
    1038                    .dwattr $C$DW$64, DW_AT_TI_symbol_name("limit")
    1039                    .dwattr $C$DW$64, DW_AT_type(*$C$DW$T$10)
    1040                    .dwattr $C$DW$64, DW_AT_location[DW_OP_breg1 4]
    1041            
    1042            $C$DW$65        .dwtag  DW_TAG_variable
    1043                    .dwattr $C$DW$65, DW_AT_name("i")
    1044                    .dwattr $C$DW$65, DW_AT_TI_symbol_name("i")
    1045                    .dwattr $C$DW$65, DW_AT_type(*$C$DW$T$10)
    1046                    .dwattr $C$DW$65, DW_AT_location[DW_OP_breg1 6]
    1047            
    1048 000004 4D81          MOV.W     r13,4(SP)             ; [] |112| 
         000006 0004 
    1049 000008 0C71          MOVX.A    r12,0(SP)             ; [] |112| 
         00000a 0000 
    1050                    .dwpsn  file "../lab09_P1.c",line 113,column 11,is_stmt,isa 0
    1051 00000c 4381          MOV.W     #0,6(SP)              ; [] |113| 
         00000e 0006 
    1052                    .dwpsn  file "../lab09_P1.c",line 114,column 5,is_stmt,isa 0
    1053 000010 43C2          MOV.B     #0,&UCA0TXBUF+0       ; [] |114| 
         000012 0000!
    1054                    .dwpsn  file "../lab09_P1.c",line 115,column 5,is_stmt,isa 0
    1055 000014 3C37          JMP       $C$L11                ; [] |115| 
    1056                                                      ; [] |115| 
    1057            ;* --------------------------------------------------------------------------*
    1058            ;* --------------------------------------------------------------------------*
    1059            ;*   BEGIN LOOP $C$L9
    1060            ;*
    1061            ;*   Loop source line                : 116
    1062            ;*   Loop closing brace source line  : 116
    1063            ;*   Known Minimum Trip Count        : 1
    1064            ;*   Known Maximum Trip Count        : 4294967295
    1065            ;*   Known Max Trip Count Factor     : 1
    1066            ;* --------------------------------------------------------------------------*
    1067 000016       $C$L9:    
    1068                    .dwpsn  file "../lab09_P1.c",line 116,column 15,is_stmt,isa 0
    1069 000016 B3D2          BIT.B     #1,&IFG2+0            ; [] |116| 
         000018 0000!
    1070 00001a 27FD          JEQ       $C$L9                 ; [] |116| 
    1071                                                      ; [] |116| 
    1072            ;* --------------------------------------------------------------------------*
    1073                    .dwpsn  file "../lab09_P1.c",line 117,column 9,is_stmt,isa 0
    1074            $C$DW$66        .dwtag  DW_TAG_TI_branch
    1075                    .dwattr $C$DW$66, DW_AT_low_pc(0x00)
    1076                    .dwattr $C$DW$66, DW_AT_name("UART_getCharacter")
    1077                    .dwattr $C$DW$66, DW_AT_TI_call
    1078            
    1079 00001c 13B0!         CALLA     #UART_getCharacter    ; [] |117| 
         00001e 0000 
    1080                                                      ; [] |117| 
    1081 000020 927C          CMP.B     #8,r12                ; [] |117| 
    1082 000022 2019          JNE       $C$L10                ; [] |117| 
    1083                                                      ; [] |117| 
    1084            ;* --------------------------------------------------------------------------*
MSP430 Assembler PC v21.6.0 Fri Mar 24 22:26:35 2023

Copyright (c) 2003-2018 Texas Instruments Incorporated
C:\Users\crs0074\AppData\Local\Temp\{1CDDF0A4-DD4F-44E4-962C-299E57A83445} PAGE   22

    1085                    .dwpsn  file "../lab09_P1.c",line 118,column 13,is_stmt,isa 0
    1086 000024 9391          CMP.W     #1,6(SP)              ; [] |118| 
         000026 0006 
    1087 000028 382D          JL        $C$L11                ; [] |118| 
    1088                                                      ; [] |118| 
    1089            ;* --------------------------------------------------------------------------*
    1090                    .dwpsn  file "../lab09_P1.c",line 119,column 17,is_stmt,isa 0
    1091 00002a 8391          SUB.W     #1,6(SP)              ; [] |119| 
         00002c 0006 
    1092                    .dwpsn  file "../lab09_P1.c",line 120,column 17,is_stmt,isa 0
    1093 00002e 411F          MOV.W     6(SP),r15             ; [] |120| 
         000030 0006 
    1094 000032 0E4F          RLAM.A    #4,r15                ; [] |120| 
    1095 000034 0D4F          RRAM.A    #4,r15                ; [] |120| 
    1096 000036 1800          ADDX.A    0(SP),r15             ; [] |120| 
         000038 515F 
         00003a 0000 
    1097 00003c 43CF          MOV.B     #0,0(r15)             ; [] |120| 
         00003e 0000 
    1098                    .dwpsn  file "../lab09_P1.c",line 121,column 17,is_stmt,isa 0
    1099 000040 427C          MOV.B     #8,r12                ; [] |121| 
    1100            $C$DW$67        .dwtag  DW_TAG_TI_branch
    1101                    .dwattr $C$DW$67, DW_AT_low_pc(0x00)
    1102                    .dwattr $C$DW$67, DW_AT_name("UART_sendCharacter")
    1103                    .dwattr $C$DW$67, DW_AT_TI_call
    1104            
    1105 000042 13B0!         CALLA     #UART_sendCharacter   ; [] |121| 
         000044 0000 
    1106                                                      ; [] |121| 
    1107                    .dwpsn  file "../lab09_P1.c",line 122,column 17,is_stmt,isa 0
    1108 000046 407C          MOV.B     #32,r12               ; [] |122| 
         000048 0020 
    1109            $C$DW$68        .dwtag  DW_TAG_TI_branch
    1110                    .dwattr $C$DW$68, DW_AT_low_pc(0x00)
    1111                    .dwattr $C$DW$68, DW_AT_name("UART_sendCharacter")
    1112                    .dwattr $C$DW$68, DW_AT_TI_call
    1113            
    1114 00004a 13B0!         CALLA     #UART_sendCharacter   ; [] |122| 
         00004c 0000 
    1115                                                      ; [] |122| 
    1116                    .dwpsn  file "../lab09_P1.c",line 123,column 17,is_stmt,isa 0
    1117 00004e 427C          MOV.B     #8,r12                ; [] |123| 
    1118            $C$DW$69        .dwtag  DW_TAG_TI_branch
    1119                    .dwattr $C$DW$69, DW_AT_low_pc(0x00)
    1120                    .dwattr $C$DW$69, DW_AT_name("UART_sendCharacter")
    1121                    .dwattr $C$DW$69, DW_AT_TI_call
    1122            
    1123 000050 13B0!         CALLA     #UART_sendCharacter   ; [] |123| 
         000052 0000 
    1124                                                      ; [] |123| 
    1125 000054 3C17          JMP       $C$L11                ; [] 
    1126                                                      ; [] 
    1127            ;* --------------------------------------------------------------------------*
    1128 000056       $C$L10:    
    1129                    .dwpsn  file "../lab09_P1.c",line 127,column 13,is_stmt,isa 0
MSP430 Assembler PC v21.6.0 Fri Mar 24 22:26:35 2023

Copyright (c) 2003-2018 Texas Instruments Incorporated
C:\Users\crs0074\AppData\Local\Temp\{1CDDF0A4-DD4F-44E4-962C-299E57A83445} PAGE   23

    1130            $C$DW$70        .dwtag  DW_TAG_TI_branch
    1131                    .dwattr $C$DW$70, DW_AT_low_pc(0x00)
    1132                    .dwattr $C$DW$70, DW_AT_name("UART_getCharacter")
    1133                    .dwattr $C$DW$70, DW_AT_TI_call
    1134            
    1135 000056 13B0!         CALLA     #UART_getCharacter    ; [] |127| 
         000058 0000 
    1136                                                      ; [] |127| 
    1137 00005a 411F          MOV.W     6(SP),r15             ; [] |127| 
         00005c 0006 
    1138 00005e 0E4F          RLAM.A    #4,r15                ; [] |127| 
    1139 000060 0D4F          RRAM.A    #4,r15                ; [] |127| 
    1140 000062 1800          ADDX.A    0(SP),r15             ; [] |127| 
         000064 515F 
         000066 0000 
    1141 000068 4CCF          MOV.B     r12,0(r15)            ; [] |127| 
         00006a 0000 
    1142                    .dwpsn  file "../lab09_P1.c",line 128,column 13,is_stmt,isa 0
    1143 00006c 411F          MOV.W     6(SP),r15             ; [] |128| 
         00006e 0006 
    1144 000070 0E4F          RLAM.A    #4,r15                ; [] |128| 
    1145 000072 0D4F          RRAM.A    #4,r15                ; [] |128| 
    1146 000074 1800          ADDX.A    0(SP),r15             ; [] |128| 
         000076 515F 
         000078 0000 
    1147 00007a 4F6C          MOV.B     @r15,r12              ; [] |128| 
    1148            $C$DW$71        .dwtag  DW_TAG_TI_branch
    1149                    .dwattr $C$DW$71, DW_AT_low_pc(0x00)
    1150                    .dwattr $C$DW$71, DW_AT_name("UART_sendCharacter")
    1151                    .dwattr $C$DW$71, DW_AT_TI_call
    1152            
    1153 00007c 13B0!         CALLA     #UART_sendCharacter   ; [] |128| 
         00007e 0000 
    1154                                                      ; [] |128| 
    1155                    .dwpsn  file "../lab09_P1.c",line 129,column 13,is_stmt,isa 0
    1156 000080 5391          ADD.W     #1,6(SP)              ; [] |129| 
         000082 0006 
    1157            ;* --------------------------------------------------------------------------*
    1158            ;*   BEGIN LOOP $C$L11
    1159            ;* --------------------------------------------------------------------------*
    1160 000084       $C$L11:    
    1161                    .dwpsn  file "../lab09_P1.c",line 115,column 12,is_stmt,isa 0
    1162 000084 90F2          CMP.B     #13,&UCA0TXBUF+0      ; [] |115| 
         000086 000D 
         000088 0000!
    1163 00008a 2404          JEQ       $C$L12                ; [] |115| 
    1164                                                      ; [] |115| 
    1165            ;* --------------------------------------------------------------------------*
    1166 00008c 9191          CMP.W     4(SP),6(SP)           ; [] |115| 
         00008e 0004 
         000090 0006 
    1167 000092 3BC1          JL        $C$L9                 ; [] |115| 
    1168                                                      ; [] |115| 
    1169            ;* --------------------------------------------------------------------------*
    1170 000094       $C$L12:    
MSP430 Assembler PC v21.6.0 Fri Mar 24 22:26:35 2023

Copyright (c) 2003-2018 Texas Instruments Incorporated
C:\Users\crs0074\AppData\Local\Temp\{1CDDF0A4-DD4F-44E4-962C-299E57A83445} PAGE   24

    1171                    .dwpsn  file "../lab09_P1.c",line 132,column 5,is_stmt,isa 0
    1172 000094 9191          CMP.W     4(SP),6(SP)           ; [] |132| 
         000096 0004 
         000098 0006 
    1173 00009a 380A          JL        $C$L13                ; [] |132| 
    1174                                                      ; [] |132| 
    1175            ;* --------------------------------------------------------------------------*
    1176                    .dwpsn  file "../lab09_P1.c",line 133,column 9,is_stmt,isa 0
    1177 00009c 431F          MOV.W     #1,r15                ; [] |133| 
    1178 00009e 511F          ADD.W     6(SP),r15             ; [] |133| 
         0000a0 0006 
    1179 0000a2 0E4F          RLAM.A    #4,r15                ; [] |133| 
    1180 0000a4 0D4F          RRAM.A    #4,r15                ; [] |133| 
    1181 0000a6 1800          ADDX.A    0(SP),r15             ; [] |133| 
         0000a8 515F 
         0000aa 0000 
    1182 0000ac 43CF          MOV.B     #0,0(r15)             ; [] |133| 
         0000ae 0000 
    1183            ;* --------------------------------------------------------------------------*
    1184 0000b0       $C$L13:    
    1185                    .dwpsn  file "../lab09_P1.c",line 135,column 5,is_stmt,isa 0
    1186 0000b0 403E          MOV.W     #13,r14               ; [] |135| 
         0000b2 000D 
    1187 0000b4 411F          MOV.W     6(SP),r15             ; [] |135| 
         0000b6 0006 
    1188 0000b8 831F          SUB.W     #1,r15                ; [] |135| 
    1189 0000ba 0E4F          RLAM.A    #4,r15                ; [] |135| 
    1190 0000bc 0D4F          RRAM.A    #4,r15                ; [] |135| 
    1191 0000be 1800          ADDX.A    0(SP),r15             ; [] |135| 
         0000c0 515F 
         0000c2 0000 
    1192 0000c4 9F6E          CMP.B     @r15,r14              ; [] |135| 
    1193 0000c6 200A          JNE       $C$L14                ; [] |135| 
    1194                                                      ; [] |135| 
    1195            ;* --------------------------------------------------------------------------*
    1196                    .dwpsn  file "../lab09_P1.c",line 136,column 9,is_stmt,isa 0
    1197 0000c8 411F          MOV.W     6(SP),r15             ; [] |136| 
         0000ca 0006 
    1198 0000cc 831F          SUB.W     #1,r15                ; [] |136| 
    1199 0000ce 0E4F          RLAM.A    #4,r15                ; [] |136| 
    1200 0000d0 0D4F          RRAM.A    #4,r15                ; [] |136| 
    1201 0000d2 1800          ADDX.A    0(SP),r15             ; [] |136| 
         0000d4 515F 
         0000d6 0000 
    1202 0000d8 43CF          MOV.B     #0,0(r15)             ; [] |136| 
         0000da 0000 
    1203            ;* --------------------------------------------------------------------------*
    1204 0000dc       $C$L14:    
    1205                    .dwpsn  file "../lab09_P1.c",line 138,column 5,is_stmt,isa 0
    1206 0000dc 008C!         MOVX.A    #$C$FSL1+0,r12        ; [] |138| 
         0000de 0000 
    1207            $C$DW$72        .dwtag  DW_TAG_TI_branch
    1208                    .dwattr $C$DW$72, DW_AT_low_pc(0x00)
    1209                    .dwattr $C$DW$72, DW_AT_name("UART_sendString")
    1210                    .dwattr $C$DW$72, DW_AT_TI_call
MSP430 Assembler PC v21.6.0 Fri Mar 24 22:26:35 2023

Copyright (c) 2003-2018 Texas Instruments Incorporated
C:\Users\crs0074\AppData\Local\Temp\{1CDDF0A4-DD4F-44E4-962C-299E57A83445} PAGE   25

    1211            
    1212 0000e0 13B0!         CALLA     #UART_sendString      ; [] |138| 
         0000e2 0000 
    1213                                                      ; [] |138| 
    1214                    .dwpsn  file "../lab09_P1.c",line 139,column 1,is_stmt,isa 0
    1215 0000e4 00A1          ADDA      #8,SP                 ; [] 
         0000e6 0008 
    1216                    .dwcfi  cfa_offset, 4
    1217            $C$DW$73        .dwtag  DW_TAG_TI_branch
    1218                    .dwattr $C$DW$73, DW_AT_low_pc(0x00)
    1219                    .dwattr $C$DW$73, DW_AT_TI_return
    1220            
    1221 0000e8 0110          RETA      ; [] 
    1222                    ; [] 
    1223                    .dwattr $C$DW$60, DW_AT_TI_end_file("../lab09_P1.c")
    1224                    .dwattr $C$DW$60, DW_AT_TI_end_line(0x8b)
    1225                    .dwattr $C$DW$60, DW_AT_TI_end_column(0x01)
    1226                    .dwendentry
    1227                    .dwendtag $C$DW$60
    1228            
    1229 000000               .sect   ".text:main"
    1230                    .clink
    1231                    .global main
    1232            
    1233            $C$DW$74        .dwtag  DW_TAG_subprogram
    1234                    .dwattr $C$DW$74, DW_AT_name("main")
    1235                    .dwattr $C$DW$74, DW_AT_low_pc(main)
    1236                    .dwattr $C$DW$74, DW_AT_high_pc(0x00)
    1237                    .dwattr $C$DW$74, DW_AT_TI_symbol_name("main")
    1238                    .dwattr $C$DW$74, DW_AT_external
    1239                    .dwattr $C$DW$74, DW_AT_TI_begin_file("../lab09_P1.c")
    1240                    .dwattr $C$DW$74, DW_AT_TI_begin_line(0x8d)
    1241                    .dwattr $C$DW$74, DW_AT_TI_begin_column(0x06)
    1242                    .dwattr $C$DW$74, DW_AT_decl_file("../lab09_P1.c")
    1243                    .dwattr $C$DW$74, DW_AT_decl_line(0x8d)
    1244                    .dwattr $C$DW$74, DW_AT_decl_column(0x06)
    1245                    .dwattr $C$DW$74, DW_AT_TI_max_frame_size(0x06)
    1246                    .dwpsn  file "../lab09_P1.c",line 141,column 17,is_stmt,address main,isa 0
    1247            
    1248                    .dwfde $C$DW$CIE, main
    1249            
    1250            ;*****************************************************************************
    1251            ;* FUNCTION NAME: main                                                       *
    1252            ;*                                                                           *
    1253            ;*   Regs Modified     : SP,SR,r11,r12,r13,r14,r15                           *
    1254            ;*   Regs Used         : SP,SR,r11,r12,r13,r14,r15                           *
    1255            ;*   Local Frame Size  : 0 Args + 2 Auto + 0 Save = 2 byte                   *
    1256            ;*****************************************************************************
    1257 000000       main:
    1258            ;* --------------------------------------------------------------------------*
    1259                    .dwcfi  cfa_offset, 4
    1260                    .dwcfi  save_reg_to_mem, 16, -4
    1261 000000 03F1          SUBA      #2,SP                 ; [] 
    1262                    .dwcfi  cfa_offset, 6
    1263            $C$DW$75        .dwtag  DW_TAG_label
MSP430 Assembler PC v21.6.0 Fri Mar 24 22:26:35 2023

Copyright (c) 2003-2018 Texas Instruments Incorporated
C:\Users\crs0074\AppData\Local\Temp\{1CDDF0A4-DD4F-44E4-962C-299E57A83445} PAGE   26

    1264                    .dwattr $C$DW$75, DW_AT_name("loop")
    1265                    .dwattr $C$DW$75, DW_AT_low_pc($C$L15)
    1266                    .dwattr $C$DW$75, DW_AT_TI_symbol_name("loop")
    1267            
    1268                    .dwpsn  file "../lab09_P1.c",line 142,column 5,is_stmt,isa 0
    1269 000002 40B2          MOV.W     #23168,&WDTCTL+0      ; [] |142| 
         000004 5A80 
         000006 0000!
    1270                    .dwpsn  file "../lab09_P1.c",line 143,column 5,is_stmt,isa 0
    1271            $C$DW$76        .dwtag  DW_TAG_TI_branch
    1272                    .dwattr $C$DW$76, DW_AT_low_pc(0x00)
    1273                    .dwattr $C$DW$76, DW_AT_name("UART_setup")
    1274                    .dwattr $C$DW$76, DW_AT_TI_call
    1275            
    1276 000008 13B0!         CALLA     #UART_setup           ; [] |143| 
         00000a 0000 
    1277                                                      ; [] |143| 
    1278                    .dwpsn  file "../lab09_P1.c",line 144,column 5,is_stmt,isa 0
    1279            $C$DW$77        .dwtag  DW_TAG_TI_branch
    1280                    .dwattr $C$DW$77, DW_AT_low_pc(0x00)
    1281                    .dwattr $C$DW$77, DW_AT_name("SPI_setup")
    1282                    .dwattr $C$DW$77, DW_AT_TI_call
    1283            
    1284 00000c 13B0!         CALLA     #SPI_setup            ; [] |144| 
         00000e 0000 
    1285                                                      ; [] |144| 
    1286                    .dwpsn  file "../lab09_P1.c",line 145,column 5,is_stmt,isa 0
    1287            $C$DW$78        .dwtag  DW_TAG_TI_branch
    1288                    .dwattr $C$DW$78, DW_AT_low_pc(0x00)
    1289                    .dwattr $C$DW$78, DW_AT_name("DMA_setup")
    1290                    .dwattr $C$DW$78, DW_AT_TI_call
    1291            
    1292 000010 13B0!         CALLA     #DMA_setup            ; [] |145| 
         000012 0000 
    1293                                                      ; [] |145| 
    1294            ;* --------------------------------------------------------------------------*
    1295            ;*   BEGIN LOOP $C$L15
    1296            ;* --------------------------------------------------------------------------*
    1297 000014       $C$L15:    
    1298                    .dwpsn  file "../lab09_P1.c",line 148,column 5,is_stmt,isa 0
    1299 000014 008C!         MOVX.A    #$C$FSL2+0,r12        ; [] |148| 
         000016 0000 
    1300            $C$DW$79        .dwtag  DW_TAG_TI_branch
    1301                    .dwattr $C$DW$79, DW_AT_low_pc(0x00)
    1302                    .dwattr $C$DW$79, DW_AT_name("UART_sendString")
    1303                    .dwattr $C$DW$79, DW_AT_TI_call
    1304            
    1305 000018 13B0!         CALLA     #UART_sendString      ; [] |148| 
         00001a 0000 
    1306                                                      ; [] |148| 
    1307                    .dwpsn  file "../lab09_P1.c",line 149,column 5,is_stmt,isa 0
    1308 00001c 008C!         MOVX.A    #pause+0,r12          ; [] |149| 
         00001e 0000 
    1309 000020 403D          MOV.W     #3,r13                ; [] |149| 
         000022 0003 
MSP430 Assembler PC v21.6.0 Fri Mar 24 22:26:35 2023

Copyright (c) 2003-2018 Texas Instruments Incorporated
C:\Users\crs0074\AppData\Local\Temp\{1CDDF0A4-DD4F-44E4-962C-299E57A83445} PAGE   27

    1310            $C$DW$80        .dwtag  DW_TAG_TI_branch
    1311                    .dwattr $C$DW$80, DW_AT_low_pc(0x00)
    1312                    .dwattr $C$DW$80, DW_AT_name("UART_getLine")
    1313                    .dwattr $C$DW$80, DW_AT_TI_call
    1314            
    1315 000024 13B0!         CALLA     #UART_getLine         ; [] |149| 
         000026 0000 
    1316                                                      ; [] |149| 
    1317                    .dwpsn  file "../lab09_P1.c",line 151,column 5,is_stmt,isa 0
    1318 000028 008C!         MOVX.A    #$C$FSL3+0,r12        ; [] |151| 
         00002a 0000 
    1319 00002c 008D!         MOVX.A    #pause+0,r13          ; [] |151| 
         00002e 0000 
    1320            $C$DW$81        .dwtag  DW_TAG_TI_branch
    1321                    .dwattr $C$DW$81, DW_AT_low_pc(0x00)
    1322                    .dwattr $C$DW$81, DW_AT_name("strcmp")
    1323                    .dwattr $C$DW$81, DW_AT_TI_call
    1324            
    1325 000030 13B0!         CALLA     #strcmp               ; [] |151| 
         000032 0000 
    1326                                                      ; [] |151| 
    1327 000034 930C          TST.W     r12                   ; [] |151| 
    1328 000036 2012          JNE       $C$L16                ; [] |151| 
    1329                                                      ; [] |151| 
    1330            ;* --------------------------------------------------------------------------*
    1331                    .dwpsn  file "../lab09_P1.c",line 152,column 9,is_stmt,isa 0
    1332 000038 43F2          MOV.B     #255,&P+0             ; [] |152| 
         00003a 0000!
    1333                    .dwpsn  file "../lab09_P1.c",line 153,column 9,is_stmt,isa 0
    1334 00003c 40F2          MOV.B     #50,&pause+0          ; [] |153| 
         00003e 0032 
         000040 0000!
    1335                    .dwpsn  file "../lab09_P1.c",line 154,column 9,is_stmt,isa 0
    1336 000042 40F2          MOV.B     #53,&pause+1          ; [] |154| 
         000044 0035 
         000046 0001!
    1337                    .dwpsn  file "../lab09_P1.c",line 155,column 9,is_stmt,isa 0
    1338 000048 40F2          MOV.B     #53,&pause+2          ; [] |155| 
         00004a 0035 
         00004c 0002!
    1339                    .dwpsn  file "../lab09_P1.c",line 156,column 9,is_stmt,isa 0
    1340 00004e 43C2          MOV.B     #0,&pause+3           ; [] |156| 
         000050 0003!
    1341                    .dwpsn  file "../lab09_P1.c",line 157,column 9,is_stmt,isa 0
    1342 000052 425C          MOV.B     &P+0,r12              ; [] |157| 
         000054 0000!
    1343            $C$DW$82        .dwtag  DW_TAG_TI_branch
    1344                    .dwattr $C$DW$82, DW_AT_low_pc(0x00)
    1345                    .dwattr $C$DW$82, DW_AT_name("SPI_setState")
    1346                    .dwattr $C$DW$82, DW_AT_TI_call
    1347            
    1348 000056 13B0!         CALLA     #SPI_setState         ; [] |157| 
         000058 0000 
    1349                                                      ; [] |157| 
    1350 00005a 3FDC          JMP       $C$L15                ; [] 
MSP430 Assembler PC v21.6.0 Fri Mar 24 22:26:35 2023

Copyright (c) 2003-2018 Texas Instruments Incorporated
C:\Users\crs0074\AppData\Local\Temp\{1CDDF0A4-DD4F-44E4-962C-299E57A83445} PAGE   28

    1351                                                      ; [] 
    1352            ;* --------------------------------------------------------------------------*
    1353 00005c       $C$L16:    
    1354                    .dwpsn  file "../lab09_P1.c",line 159,column 10,is_stmt,isa 0
    1355 00005c 008C!         MOVX.A    #$C$FSL4+0,r12        ; [] |159| 
         00005e 0000 
    1356 000060 008D!         MOVX.A    #pause+0,r13          ; [] |159| 
         000062 0000 
    1357            $C$DW$83        .dwtag  DW_TAG_TI_branch
    1358                    .dwattr $C$DW$83, DW_AT_low_pc(0x00)
    1359                    .dwattr $C$DW$83, DW_AT_name("strcmp")
    1360                    .dwattr $C$DW$83, DW_AT_TI_call
    1361            
    1362 000064 13B0!         CALLA     #strcmp               ; [] |159| 
         000066 0000 
    1363                                                      ; [] |159| 
    1364 000068 930C          TST.W     r12                   ; [] |159| 
    1365 00006a 2063          JNE       $C$L20                ; [] |159| 
    1366                                                      ; [] |159| 
    1367            ;* --------------------------------------------------------------------------*
    1368            
    1369            $C$DW$84        .dwtag  DW_TAG_lexical_block
    1370                    .dwattr $C$DW$84, DW_AT_low_pc(0x00)
    1371                    .dwattr $C$DW$84, DW_AT_high_pc(0x00)
    1372            $C$DW$85        .dwtag  DW_TAG_variable
    1373                    .dwattr $C$DW$85, DW_AT_name("temp_p")
    1374                    .dwattr $C$DW$85, DW_AT_TI_symbol_name("temp_p")
    1375                    .dwattr $C$DW$85, DW_AT_type(*$C$DW$T$6)
    1376                    .dwattr $C$DW$85, DW_AT_location[DW_OP_breg1 0]
    1377            
    1378                    .dwpsn  file "../lab09_P1.c",line 160,column 9,is_stmt,isa 0
    1379            $C$DW$86        .dwtag  DW_TAG_TI_branch
    1380                    .dwattr $C$DW$86, DW_AT_low_pc(0x00)
    1381                    .dwattr $C$DW$86, DW_AT_name("SPI_getState")
    1382                    .dwattr $C$DW$86, DW_AT_TI_call
    1383            
    1384 00006c 13B0!         CALLA     #SPI_getState         ; [] |160| 
         00006e 0000 
    1385                                                      ; [] |160| 
    1386 000070 4CC2          MOV.B     r12,&P+0              ; [] |160| 
         000072 0000!
    1387                    .dwpsn  file "../lab09_P1.c",line 161,column 21,is_stmt,isa 0
    1388 000074 42D1          MOV.B     &P+0,0(SP)            ; [] |161| 
         000076 0000!
         000078 0000 
    1389                    .dwpsn  file "../lab09_P1.c",line 162,column 9,is_stmt,isa 0
    1390 00007a 90F2          CMP.B     #100,&P+0             ; [] |162| 
         00007c 0064 
         00007e 0000!
    1391 000080 2828          JLO       $C$L17                ; [] |162| 
    1392                                                      ; [] |162| 
    1393            ;* --------------------------------------------------------------------------*
    1394                    .dwpsn  file "../lab09_P1.c",line 163,column 13,is_stmt,isa 0
    1395 000082 43C2          MOV.B     #0,&pause+3           ; [] |163| 
         000084 0003!
MSP430 Assembler PC v21.6.0 Fri Mar 24 22:26:35 2023

Copyright (c) 2003-2018 Texas Instruments Incorporated
C:\Users\crs0074\AppData\Local\Temp\{1CDDF0A4-DD4F-44E4-962C-299E57A83445} PAGE   29

    1396                    .dwpsn  file "../lab09_P1.c",line 164,column 13,is_stmt,isa 0
    1397 000086 416C          MOV.B     0(SP),r12             ; [] |164| 
    1398 000088 403D          MOV.W     #10,r13               ; [] |164| 
         00008a 000A 
    1399            $C$DW$87        .dwtag  DW_TAG_TI_branch
    1400                    .dwattr $C$DW$87, DW_AT_low_pc(0x00)
    1401                    .dwattr $C$DW$87, DW_AT_name("__mspabi_remi")
    1402                    .dwattr $C$DW$87, DW_AT_TI_call
    1403            
    1404 00008c 13B0!         CALLA     #__mspabi_remi        ; [] |164| 
         00008e 0000 
    1405                                                      ; [] |164| 
    1406 000090 507E          ADD.B     #48,r14               ; [] |164| 
         000092 0030 
    1407 000094 4EC2          MOV.B     r14,&pause+2          ; [] |164| 
         000096 0002!
    1408                    .dwpsn  file "../lab09_P1.c",line 165,column 13,is_stmt,isa 0
    1409 000098 416C          MOV.B     0(SP),r12             ; [] |165| 
    1410 00009a 403D          MOV.W     #10,r13               ; [] |165| 
         00009c 000A 
    1411            $C$DW$88        .dwtag  DW_TAG_TI_branch
    1412                    .dwattr $C$DW$88, DW_AT_low_pc(0x00)
    1413                    .dwattr $C$DW$88, DW_AT_name("__mspabi_divi")
    1414                    .dwattr $C$DW$88, DW_AT_TI_call
    1415            
    1416 00009e 13B0!         CALLA     #__mspabi_divi        ; [] |165| 
         0000a0 0000 
    1417                                                      ; [] |165| 
    1418 0000a2 4CC1          MOV.B     r12,0(SP)             ; [] |165| 
         0000a4 0000 
    1419                    .dwpsn  file "../lab09_P1.c",line 166,column 13,is_stmt,isa 0
    1420 0000a6 416C          MOV.B     0(SP),r12             ; [] |166| 
    1421 0000a8 403D          MOV.W     #10,r13               ; [] |166| 
         0000aa 000A 
    1422            $C$DW$89        .dwtag  DW_TAG_TI_branch
    1423                    .dwattr $C$DW$89, DW_AT_low_pc(0x00)
    1424                    .dwattr $C$DW$89, DW_AT_name("__mspabi_remi")
    1425                    .dwattr $C$DW$89, DW_AT_TI_call
    1426            
    1427 0000ac 13B0!         CALLA     #__mspabi_remi        ; [] |166| 
         0000ae 0000 
    1428                                                      ; [] |166| 
    1429 0000b0 507E          ADD.B     #48,r14               ; [] |166| 
         0000b2 0030 
    1430 0000b4 4EC2          MOV.B     r14,&pause+1          ; [] |166| 
         0000b6 0001!
    1431                    .dwpsn  file "../lab09_P1.c",line 167,column 13,is_stmt,isa 0
    1432 0000b8 416C          MOV.B     0(SP),r12             ; [] |167| 
    1433 0000ba 403D          MOV.W     #10,r13               ; [] |167| 
         0000bc 000A 
    1434            $C$DW$90        .dwtag  DW_TAG_TI_branch
    1435                    .dwattr $C$DW$90, DW_AT_low_pc(0x00)
    1436                    .dwattr $C$DW$90, DW_AT_name("__mspabi_divi")
    1437                    .dwattr $C$DW$90, DW_AT_TI_call
    1438            
MSP430 Assembler PC v21.6.0 Fri Mar 24 22:26:35 2023

Copyright (c) 2003-2018 Texas Instruments Incorporated
C:\Users\crs0074\AppData\Local\Temp\{1CDDF0A4-DD4F-44E4-962C-299E57A83445} PAGE   30

    1439 0000be 13B0!         CALLA     #__mspabi_divi        ; [] |167| 
         0000c0 0000 
    1440                                                      ; [] |167| 
    1441 0000c2 4CC1          MOV.B     r12,0(SP)             ; [] |167| 
         0000c4 0000 
    1442                    .dwpsn  file "../lab09_P1.c",line 168,column 13,is_stmt,isa 0
    1443 0000c6 403F          MOV.W     #48,r15               ; [] |168| 
         0000c8 0030 
    1444 0000ca 516F          ADD.B     0(SP),r15             ; [] |168| 
    1445 0000cc 4FC2          MOV.B     r15,&pause+0          ; [] |168| 
         0000ce 0000!
    1446 0000d0 3C23          JMP       $C$L19                ; [] 
    1447                                                      ; [] 
    1448            ;* --------------------------------------------------------------------------*
    1449 0000d2       $C$L17:    
    1450                    .dwpsn  file "../lab09_P1.c",line 170,column 14,is_stmt,isa 0
    1451 0000d2 90F2          CMP.B     #10,&P+0              ; [] |170| 
         0000d4 000A 
         0000d6 0000!
    1452 0000d8 2818          JLO       $C$L18                ; [] |170| 
    1453                                                      ; [] |170| 
    1454            ;* --------------------------------------------------------------------------*
    1455                    .dwpsn  file "../lab09_P1.c",line 171,column 13,is_stmt,isa 0
    1456 0000da 43C2          MOV.B     #0,&pause+2           ; [] |171| 
         0000dc 0002!
    1457                    .dwpsn  file "../lab09_P1.c",line 172,column 13,is_stmt,isa 0
    1458 0000de 416C          MOV.B     0(SP),r12             ; [] |172| 
    1459 0000e0 403D          MOV.W     #10,r13               ; [] |172| 
         0000e2 000A 
    1460            $C$DW$91        .dwtag  DW_TAG_TI_branch
    1461                    .dwattr $C$DW$91, DW_AT_low_pc(0x00)
    1462                    .dwattr $C$DW$91, DW_AT_name("__mspabi_remi")
    1463                    .dwattr $C$DW$91, DW_AT_TI_call
    1464            
    1465 0000e4 13B0!         CALLA     #__mspabi_remi        ; [] |172| 
         0000e6 0000 
    1466                                                      ; [] |172| 
    1467 0000e8 507E          ADD.B     #48,r14               ; [] |172| 
         0000ea 0030 
    1468 0000ec 4EC2          MOV.B     r14,&pause+1          ; [] |172| 
         0000ee 0001!
    1469                    .dwpsn  file "../lab09_P1.c",line 173,column 13,is_stmt,isa 0
    1470 0000f0 416C          MOV.B     0(SP),r12             ; [] |173| 
    1471 0000f2 403D          MOV.W     #10,r13               ; [] |173| 
         0000f4 000A 
    1472            $C$DW$92        .dwtag  DW_TAG_TI_branch
    1473                    .dwattr $C$DW$92, DW_AT_low_pc(0x00)
    1474                    .dwattr $C$DW$92, DW_AT_name("__mspabi_divi")
    1475                    .dwattr $C$DW$92, DW_AT_TI_call
    1476            
    1477 0000f6 13B0!         CALLA     #__mspabi_divi        ; [] |173| 
         0000f8 0000 
    1478                                                      ; [] |173| 
    1479 0000fa 4CC1          MOV.B     r12,0(SP)             ; [] |173| 
         0000fc 0000 
MSP430 Assembler PC v21.6.0 Fri Mar 24 22:26:35 2023

Copyright (c) 2003-2018 Texas Instruments Incorporated
C:\Users\crs0074\AppData\Local\Temp\{1CDDF0A4-DD4F-44E4-962C-299E57A83445} PAGE   31

    1480                    .dwpsn  file "../lab09_P1.c",line 174,column 13,is_stmt,isa 0
    1481 0000fe 403F          MOV.W     #48,r15               ; [] |174| 
         000100 0030 
    1482 000102 516F          ADD.B     0(SP),r15             ; [] |174| 
    1483 000104 4FC2          MOV.B     r15,&pause+0          ; [] |174| 
         000106 0000!
    1484 000108 3C07          JMP       $C$L19                ; [] 
    1485                                                      ; [] 
    1486            ;* --------------------------------------------------------------------------*
    1487 00010a       $C$L18:    
    1488                    .dwpsn  file "../lab09_P1.c",line 177,column 13,is_stmt,isa 0
    1489 00010a 43C2          MOV.B     #0,&pause+1           ; [] |177| 
         00010c 0001!
    1490                    .dwpsn  file "../lab09_P1.c",line 178,column 13,is_stmt,isa 0
    1491 00010e 403F          MOV.W     #48,r15               ; [] |178| 
         000110 0030 
    1492 000112 516F          ADD.B     0(SP),r15             ; [] |178| 
    1493 000114 4FC2          MOV.B     r15,&pause+0          ; [] |178| 
         000116 0000!
    1494            ;* --------------------------------------------------------------------------*
    1495 000118       $C$L19:    
    1496                    .dwpsn  file "../lab09_P1.c",line 180,column 9,is_stmt,isa 0
    1497 000118 008C!         MOVX.A    #$C$FSL5+0,r12        ; [] |180| 
         00011a 0000 
    1498            $C$DW$93        .dwtag  DW_TAG_TI_branch
    1499                    .dwattr $C$DW$93, DW_AT_low_pc(0x00)
    1500                    .dwattr $C$DW$93, DW_AT_name("UART_sendString")
    1501                    .dwattr $C$DW$93, DW_AT_TI_call
    1502            
    1503 00011c 13B0!         CALLA     #UART_sendString      ; [] |180| 
         00011e 0000 
    1504                                                      ; [] |180| 
    1505                    .dwpsn  file "../lab09_P1.c",line 181,column 9,is_stmt,isa 0
    1506 000120 008C!         MOVX.A    #pause+0,r12          ; [] |181| 
         000122 0000 
    1507            $C$DW$94        .dwtag  DW_TAG_TI_branch
    1508                    .dwattr $C$DW$94, DW_AT_low_pc(0x00)
    1509                    .dwattr $C$DW$94, DW_AT_name("UART_sendString")
    1510                    .dwattr $C$DW$94, DW_AT_TI_call
    1511            
    1512 000124 13B0!         CALLA     #UART_sendString      ; [] |181| 
         000126 0000 
    1513                                                      ; [] |181| 
    1514                    .dwpsn  file "../lab09_P1.c",line 182,column 9,is_stmt,isa 0
    1515 000128 008C!         MOVX.A    #$C$FSL6+0,r12        ; [] |182| 
         00012a 0000 
    1516            $C$DW$95        .dwtag  DW_TAG_TI_branch
    1517                    .dwattr $C$DW$95, DW_AT_low_pc(0x00)
    1518                    .dwattr $C$DW$95, DW_AT_name("UART_sendString")
    1519                    .dwattr $C$DW$95, DW_AT_TI_call
    1520            
    1521 00012c 13B0!         CALLA     #UART_sendString      ; [] |182| 
         00012e 0000 
    1522                                                      ; [] |182| 
    1523                    .dwendtag $C$DW$84
MSP430 Assembler PC v21.6.0 Fri Mar 24 22:26:35 2023

Copyright (c) 2003-2018 Texas Instruments Incorporated
C:\Users\crs0074\AppData\Local\Temp\{1CDDF0A4-DD4F-44E4-962C-299E57A83445} PAGE   32

    1524            
    1525 000130 3F71          JMP       $C$L15                ; [] 
    1526                                                      ; [] 
    1527            ;* --------------------------------------------------------------------------*
    1528            $C$L20:    
    1529            
    1530            $C$DW$96        .dwtag  DW_TAG_lexical_block
    1531                    .dwattr $C$DW$96, DW_AT_low_pc(0x00)
    1532                    .dwattr $C$DW$96, DW_AT_high_pc(0x00)
    1533            $C$DW$97        .dwtag  DW_TAG_variable
    1534                    .dwattr $C$DW$97, DW_AT_name("temp_p")
    1535                    .dwattr $C$DW$97, DW_AT_TI_symbol_name("temp_p")
    1536                    .dwattr $C$DW$97, DW_AT_type(*$C$DW$T$6)
    1537                    .dwattr $C$DW$97, DW_AT_location[DW_OP_breg1 0]
    1538            
    1539                    .dwpsn  file "../lab09_P1.c",line 185,column 21,is_stmt,isa 0
    1540 000132 42D1          MOV.B     &P+0,0(SP)            ; [] |185| 
         000134 0000!
         000136 0000 
    1541                    .dwpsn  file "../lab09_P1.c",line 186,column 9,is_stmt,isa 0
    1542 000138 008C!         MOVX.A    #pause+0,r12          ; [] |186| 
         00013a 0000 
    1543            $C$DW$98        .dwtag  DW_TAG_TI_branch
    1544                    .dwattr $C$DW$98, DW_AT_low_pc(0x00)
    1545                    .dwattr $C$DW$98, DW_AT_name("atoi")
    1546                    .dwattr $C$DW$98, DW_AT_TI_call
    1547            
    1548 00013c 13B0!         CALLA     #atoi                 ; [] |186| 
         00013e 0000 
    1549                                                      ; [] |186| 
    1550 000140 4CC2          MOV.B     r12,&P+0              ; [] |186| 
         000142 0000!
    1551                    .dwpsn  file "../lab09_P1.c",line 187,column 9,is_stmt,isa 0
    1552 000144 90F2          CMP.B     #101,&P+0             ; [] |187| 
         000146 0065 
         000148 0000!
    1553 00014a 2C06          JHS       $C$L21                ; [] |187| 
    1554                                                      ; [] |187| 
    1555            ;* --------------------------------------------------------------------------*
    1556 00014c 93D2          CMP.B     #1,&P+0               ; [] |187| 
         00014e 0000!
    1557 000150 2803          JLO       $C$L21                ; [] |187| 
    1558                                                      ; [] |187| 
    1559            ;* --------------------------------------------------------------------------*
    1560                    .dwpsn  file "../lab09_P1.c",line 188,column 13,is_stmt,isa 0
    1561            $C$DW$99        .dwtag  DW_TAG_TI_branch
    1562                    .dwattr $C$DW$99, DW_AT_low_pc(0x00)
    1563                    .dwattr $C$DW$99, DW_AT_name("SPI_setState")
    1564                    .dwattr $C$DW$99, DW_AT_TI_call
    1565            
    1566 000152 13B0!         CALLA     #SPI_setState         ; [] |188| 
         000154 0000 
    1567                                                      ; [] |188| 
    1568 000156 3F5E          JMP       $C$L15                ; [] 
    1569                                                      ; [] 
MSP430 Assembler PC v21.6.0 Fri Mar 24 22:26:35 2023

Copyright (c) 2003-2018 Texas Instruments Incorporated
C:\Users\crs0074\AppData\Local\Temp\{1CDDF0A4-DD4F-44E4-962C-299E57A83445} PAGE   33

    1570            ;* --------------------------------------------------------------------------*
    1571 000158       $C$L21:    
    1572                    .dwpsn  file "../lab09_P1.c",line 191,column 13,is_stmt,isa 0
    1573 000158 41E2          MOV.B     0(SP),&P+0            ; [] |191| 
         00015a 0000!
    1574                    .dwpsn  file "../lab09_P1.c",line 192,column 13,is_stmt,isa 0
    1575 00015c 008C!         MOVX.A    #$C$FSL7+0,r12        ; [] |192| 
         00015e 0000 
    1576            $C$DW$100       .dwtag  DW_TAG_TI_branch
    1577                    .dwattr $C$DW$100, DW_AT_low_pc(0x00)
    1578                    .dwattr $C$DW$100, DW_AT_name("UART_sendString")
    1579                    .dwattr $C$DW$100, DW_AT_TI_call
    1580            
    1581 000160 13B0!         CALLA     #UART_sendString      ; [] |192| 
         000162 0000 
    1582                                                      ; [] |192| 
    1583                    .dwendtag $C$DW$96
    1584            
    1585                    .dwpsn  file "../lab09_P1.c",line 195,column 5,is_stmt,isa 0
    1586 000164 3F57          JMP       $C$L15                ; [] |195| 
    1587                                                      ; [] |195| 
    1588            ;* --------------------------------------------------------------------------*
    1589                    .dwattr $C$DW$74, DW_AT_TI_end_file("../lab09_P1.c")
    1590                    .dwattr $C$DW$74, DW_AT_TI_end_line(0xc4)
    1591                    .dwattr $C$DW$74, DW_AT_TI_end_column(0x01)
    1592                    .dwendentry
    1593                    .dwendtag $C$DW$74
    1594            
    1595            ;******************************************************************************
    1596            ;* FAR STRINGS                                                                *
    1597            ;******************************************************************************
    1598 000000               .sect   ".const:.string"
    1599                    .align  2
    1600 000000 000A  $C$FSL1:        .string 10,13,0
         000001 000D 
         000002 0000 
    1601                    .align  2
    1602 000004 0042  $C$FSL2:        .string "Beacon Pause:  ",0
         000005 0065 
         000006 0061 
         000007 0063 
         000008 006F 
         000009 006E 
         00000a 0020 
         00000b 0050 
         00000c 0061 
         00000d 0075 
         00000e 0073 
         00000f 0065 
         000010 003A 
         000011 0020 
         000012 0020 
         000013 0000 
    1603                    .align  2
    1604 000014 002D  $C$FSL3:        .string "-",0
MSP430 Assembler PC v21.6.0 Fri Mar 24 22:26:35 2023

Copyright (c) 2003-2018 Texas Instruments Incorporated
C:\Users\crs0074\AppData\Local\Temp\{1CDDF0A4-DD4F-44E4-962C-299E57A83445} PAGE   34

         000015 0000 
    1605                    .align  2
    1606 000016 003F  $C$FSL4:        .string "?",0
         000017 0000 
    1607                    .align  2
    1608 000018 0043  $C$FSL5:        .string "Current Pause: ",0
         000019 0075 
         00001a 0072 
         00001b 0072 
         00001c 0065 
         00001d 006E 
         00001e 0074 
         00001f 0020 
         000020 0050 
         000021 0061 
         000022 0075 
         000023 0073 
         000024 0065 
         000025 003A 
         000026 0020 
         000027 0000 
    1609                    .align  2
    1610 000028 000D  $C$FSL6:        .string 13,10,0
         000029 000A 
         00002a 0000 
    1611                    .align  2
    1612 00002c 0049  $C$FSL7:        .string "Invalid Pause entered",13,10,0
         00002d 006E 
         00002e 0076 
         00002f 0061 
         000030 006C 
         000031 0069 
         000032 0064 
         000033 0020 
         000034 0050 
         000035 0061 
         000036 0075 
         000037 0073 
         000038 0065 
         000039 0020 
         00003a 0065 
         00003b 006E 
         00003c 0074 
         00003d 0065 
         00003e 0072 
         00003f 0065 
         000040 0064 
         000041 000D 
         000042 000A 
         000043 0000 
    1613            ;*****************************************************************************
    1614            ;* UNDEFINED EXTERNAL REFERENCES                                             *
    1615            ;*****************************************************************************
    1616                    .global IFG2
    1617                    .global DMACTL0
MSP430 Assembler PC v21.6.0 Fri Mar 24 22:26:35 2023

Copyright (c) 2003-2018 Texas Instruments Incorporated
C:\Users\crs0074\AppData\Local\Temp\{1CDDF0A4-DD4F-44E4-962C-299E57A83445} PAGE   35

    1618                    .global DMA0CTL
    1619                    .global DMA0SA
    1620                    .global DMA0DA
    1621                    .global DMA0SZ
    1622                    .global P2SEL
    1623                    .global P3IN
    1624                    .global P3SEL
    1625                    .global UCA0CTL0
    1626                    .global UCA0CTL1
    1627                    .global UCA0BR0
    1628                    .global UCA0BR1
    1629                    .global UCA0MCTL
    1630                    .global UCA0RXBUF
    1631                    .global UCA0TXBUF
    1632                    .global UCB0CTL0
    1633                    .global UCB0CTL1
    1634                    .global UCB0BR0
    1635                    .global UCB0BR1
    1636                    .global UCB0RXBUF
    1637                    .global UCB0TXBUF
    1638                    .global WDTCTL
    1639                    .global strcmp
    1640                    .global atoi
    1641                    .global __mspabi_remi
    1642                    .global __mspabi_divi
    1643            
    1644            ;******************************************************************************
    1645            ;* BUILD ATTRIBUTES                                                           *
    1646            ;******************************************************************************
    1647                    .battr "TI", Tag_File, 1, Tag_LPM_INFO(1)
    1648                    .battr "TI", Tag_File, 1, Tag_PORTS_INIT_INFO("012345678901ABCDEFGHIJ0111111111101100000000001
    1649                    .battr "TI", Tag_File, 1, Tag_LEA_INFO(1)
    1650                    .battr "TI", Tag_File, 1, Tag_HW_MPY32_INFO(1)
    1651                    .battr "TI", Tag_File, 1, Tag_HW_MPY_ISR_INFO(1)
    1652                    .battr "TI", Tag_File, 1, Tag_HW_MPY_INLINE_INFO(1)
    1653                    .battr "mspabi", Tag_File, 1, Tag_enum_size(3)
    1654            
    1655            ;******************************************************************************
    1656            ;* TYPE INFORMATION                                                           *
    1657            ;******************************************************************************
    1658            
    1659            $C$DW$T$22      .dwtag  DW_TAG_structure_type
    1660                    .dwattr $C$DW$T$22, DW_AT_byte_size(0x10)
    1661            $C$DW$101       .dwtag  DW_TAG_member
    1662                    .dwattr $C$DW$101, DW_AT_type(*$C$DW$T$14)
    1663                    .dwattr $C$DW$101, DW_AT_name("__max_align1")
    1664                    .dwattr $C$DW$101, DW_AT_TI_symbol_name("__max_align1")
    1665                    .dwattr $C$DW$101, DW_AT_data_member_location[DW_OP_plus_uconst 0x0]
    1666                    .dwattr $C$DW$101, DW_AT_accessibility(DW_ACCESS_public)
    1667                    .dwattr $C$DW$101, DW_AT_decl_file("C:/ti/ccs1200/ccs/tools/compiler/ti-cgt-msp430_21.6.0.LTS/
    1668                    .dwattr $C$DW$101, DW_AT_decl_line(0x7b)
    1669                    .dwattr $C$DW$101, DW_AT_decl_column(0x0c)
    1670            
    1671            $C$DW$102       .dwtag  DW_TAG_member
    1672                    .dwattr $C$DW$102, DW_AT_type(*$C$DW$T$18)
MSP430 Assembler PC v21.6.0 Fri Mar 24 22:26:35 2023

Copyright (c) 2003-2018 Texas Instruments Incorporated
C:\Users\crs0074\AppData\Local\Temp\{1CDDF0A4-DD4F-44E4-962C-299E57A83445} PAGE   36

    1673                    .dwattr $C$DW$102, DW_AT_name("__max_align2")
    1674                    .dwattr $C$DW$102, DW_AT_TI_symbol_name("__max_align2")
    1675                    .dwattr $C$DW$102, DW_AT_data_member_location[DW_OP_plus_uconst 0x8]
    1676                    .dwattr $C$DW$102, DW_AT_accessibility(DW_ACCESS_public)
    1677                    .dwattr $C$DW$102, DW_AT_decl_file("C:/ti/ccs1200/ccs/tools/compiler/ti-cgt-msp430_21.6.0.LTS/
    1678                    .dwattr $C$DW$102, DW_AT_decl_line(0x7c)
    1679                    .dwattr $C$DW$102, DW_AT_decl_column(0x0e)
    1680            
    1681                    .dwattr $C$DW$T$22, DW_AT_decl_file("C:/ti/ccs1200/ccs/tools/compiler/ti-cgt-msp430_21.6.0.LTS
    1682                    .dwattr $C$DW$T$22, DW_AT_decl_line(0x7a)
    1683                    .dwattr $C$DW$T$22, DW_AT_decl_column(0x10)
    1684                    .dwendtag $C$DW$T$22
    1685            
    1686            $C$DW$T$28      .dwtag  DW_TAG_typedef
    1687                    .dwattr $C$DW$T$28, DW_AT_name("__max_align_t")
    1688                    .dwattr $C$DW$T$28, DW_AT_type(*$C$DW$T$22)
    1689                    .dwattr $C$DW$T$28, DW_AT_language(DW_LANG_C)
    1690                    .dwattr $C$DW$T$28, DW_AT_decl_file("C:/ti/ccs1200/ccs/tools/compiler/ti-cgt-msp430_21.6.0.LTS
    1691                    .dwattr $C$DW$T$28, DW_AT_decl_line(0x7d)
    1692                    .dwattr $C$DW$T$28, DW_AT_decl_column(0x03)
    1693            
    1694            
    1695            $C$DW$T$23      .dwtag  DW_TAG_structure_type
    1696                    .dwattr $C$DW$T$23, DW_AT_byte_size(0x04)
    1697            $C$DW$103       .dwtag  DW_TAG_member
    1698                    .dwattr $C$DW$103, DW_AT_type(*$C$DW$T$10)
    1699                    .dwattr $C$DW$103, DW_AT_name("quot")
    1700                    .dwattr $C$DW$103, DW_AT_TI_symbol_name("quot")
    1701                    .dwattr $C$DW$103, DW_AT_data_member_location[DW_OP_plus_uconst 0x0]
    1702                    .dwattr $C$DW$103, DW_AT_accessibility(DW_ACCESS_public)
    1703                    .dwattr $C$DW$103, DW_AT_decl_file("C:/ti/ccs1200/ccs/tools/compiler/ti-cgt-msp430_21.6.0.LTS/
    1704                    .dwattr $C$DW$103, DW_AT_decl_line(0x56)
    1705                    .dwattr $C$DW$103, DW_AT_decl_column(0x16)
    1706            
    1707            $C$DW$104       .dwtag  DW_TAG_member
    1708                    .dwattr $C$DW$104, DW_AT_type(*$C$DW$T$10)
    1709                    .dwattr $C$DW$104, DW_AT_name("rem")
    1710                    .dwattr $C$DW$104, DW_AT_TI_symbol_name("rem")
    1711                    .dwattr $C$DW$104, DW_AT_data_member_location[DW_OP_plus_uconst 0x2]
    1712                    .dwattr $C$DW$104, DW_AT_accessibility(DW_ACCESS_public)
    1713                    .dwattr $C$DW$104, DW_AT_decl_file("C:/ti/ccs1200/ccs/tools/compiler/ti-cgt-msp430_21.6.0.LTS/
    1714                    .dwattr $C$DW$104, DW_AT_decl_line(0x56)
    1715                    .dwattr $C$DW$104, DW_AT_decl_column(0x1c)
    1716            
    1717                    .dwattr $C$DW$T$23, DW_AT_decl_file("C:/ti/ccs1200/ccs/tools/compiler/ti-cgt-msp430_21.6.0.LTS
    1718                    .dwattr $C$DW$T$23, DW_AT_decl_line(0x56)
    1719                    .dwattr $C$DW$T$23, DW_AT_decl_column(0x10)
    1720                    .dwendtag $C$DW$T$23
    1721            
    1722            $C$DW$T$29      .dwtag  DW_TAG_typedef
    1723                    .dwattr $C$DW$T$29, DW_AT_name("div_t")
    1724                    .dwattr $C$DW$T$29, DW_AT_type(*$C$DW$T$23)
    1725                    .dwattr $C$DW$T$29, DW_AT_language(DW_LANG_C)
    1726                    .dwattr $C$DW$T$29, DW_AT_decl_file("C:/ti/ccs1200/ccs/tools/compiler/ti-cgt-msp430_21.6.0.LTS
    1727                    .dwattr $C$DW$T$29, DW_AT_decl_line(0x56)
MSP430 Assembler PC v21.6.0 Fri Mar 24 22:26:35 2023

Copyright (c) 2003-2018 Texas Instruments Incorporated
C:\Users\crs0074\AppData\Local\Temp\{1CDDF0A4-DD4F-44E4-962C-299E57A83445} PAGE   37

    1728                    .dwattr $C$DW$T$29, DW_AT_decl_column(0x23)
    1729            
    1730            
    1731            $C$DW$T$24      .dwtag  DW_TAG_structure_type
    1732                    .dwattr $C$DW$T$24, DW_AT_byte_size(0x08)
    1733            $C$DW$105       .dwtag  DW_TAG_member
    1734                    .dwattr $C$DW$105, DW_AT_type(*$C$DW$T$12)
    1735                    .dwattr $C$DW$105, DW_AT_name("quot")
    1736                    .dwattr $C$DW$105, DW_AT_TI_symbol_name("quot")
    1737                    .dwattr $C$DW$105, DW_AT_data_member_location[DW_OP_plus_uconst 0x0]
    1738                    .dwattr $C$DW$105, DW_AT_accessibility(DW_ACCESS_public)
    1739                    .dwattr $C$DW$105, DW_AT_decl_file("C:/ti/ccs1200/ccs/tools/compiler/ti-cgt-msp430_21.6.0.LTS/
    1740                    .dwattr $C$DW$105, DW_AT_decl_line(0x59)
    1741                    .dwattr $C$DW$105, DW_AT_decl_column(0x17)
    1742            
    1743            $C$DW$106       .dwtag  DW_TAG_member
    1744                    .dwattr $C$DW$106, DW_AT_type(*$C$DW$T$12)
    1745                    .dwattr $C$DW$106, DW_AT_name("rem")
    1746                    .dwattr $C$DW$106, DW_AT_TI_symbol_name("rem")
    1747                    .dwattr $C$DW$106, DW_AT_data_member_location[DW_OP_plus_uconst 0x4]
    1748                    .dwattr $C$DW$106, DW_AT_accessibility(DW_ACCESS_public)
    1749                    .dwattr $C$DW$106, DW_AT_decl_file("C:/ti/ccs1200/ccs/tools/compiler/ti-cgt-msp430_21.6.0.LTS/
    1750                    .dwattr $C$DW$106, DW_AT_decl_line(0x59)
    1751                    .dwattr $C$DW$106, DW_AT_decl_column(0x1d)
    1752            
    1753                    .dwattr $C$DW$T$24, DW_AT_decl_file("C:/ti/ccs1200/ccs/tools/compiler/ti-cgt-msp430_21.6.0.LTS
    1754                    .dwattr $C$DW$T$24, DW_AT_decl_line(0x59)
    1755                    .dwattr $C$DW$T$24, DW_AT_decl_column(0x10)
    1756                    .dwendtag $C$DW$T$24
    1757            
    1758            $C$DW$T$30      .dwtag  DW_TAG_typedef
    1759                    .dwattr $C$DW$T$30, DW_AT_name("ldiv_t")
    1760                    .dwattr $C$DW$T$30, DW_AT_type(*$C$DW$T$24)
    1761                    .dwattr $C$DW$T$30, DW_AT_language(DW_LANG_C)
    1762                    .dwattr $C$DW$T$30, DW_AT_decl_file("C:/ti/ccs1200/ccs/tools/compiler/ti-cgt-msp430_21.6.0.LTS
    1763                    .dwattr $C$DW$T$30, DW_AT_decl_line(0x59)
    1764                    .dwattr $C$DW$T$30, DW_AT_decl_column(0x24)
    1765            
    1766            
    1767            $C$DW$T$25      .dwtag  DW_TAG_structure_type
    1768                    .dwattr $C$DW$T$25, DW_AT_byte_size(0x10)
    1769            $C$DW$107       .dwtag  DW_TAG_member
    1770                    .dwattr $C$DW$107, DW_AT_type(*$C$DW$T$14)
    1771                    .dwattr $C$DW$107, DW_AT_name("quot")
    1772                    .dwattr $C$DW$107, DW_AT_TI_symbol_name("quot")
    1773                    .dwattr $C$DW$107, DW_AT_data_member_location[DW_OP_plus_uconst 0x0]
    1774                    .dwattr $C$DW$107, DW_AT_accessibility(DW_ACCESS_public)
    1775                    .dwattr $C$DW$107, DW_AT_decl_file("C:/ti/ccs1200/ccs/tools/compiler/ti-cgt-msp430_21.6.0.LTS/
    1776                    .dwattr $C$DW$107, DW_AT_decl_line(0x63)
    1777                    .dwattr $C$DW$107, DW_AT_decl_column(0x1c)
    1778            
    1779            $C$DW$108       .dwtag  DW_TAG_member
    1780                    .dwattr $C$DW$108, DW_AT_type(*$C$DW$T$14)
    1781                    .dwattr $C$DW$108, DW_AT_name("rem")
    1782                    .dwattr $C$DW$108, DW_AT_TI_symbol_name("rem")
MSP430 Assembler PC v21.6.0 Fri Mar 24 22:26:35 2023

Copyright (c) 2003-2018 Texas Instruments Incorporated
C:\Users\crs0074\AppData\Local\Temp\{1CDDF0A4-DD4F-44E4-962C-299E57A83445} PAGE   38

    1783                    .dwattr $C$DW$108, DW_AT_data_member_location[DW_OP_plus_uconst 0x8]
    1784                    .dwattr $C$DW$108, DW_AT_accessibility(DW_ACCESS_public)
    1785                    .dwattr $C$DW$108, DW_AT_decl_file("C:/ti/ccs1200/ccs/tools/compiler/ti-cgt-msp430_21.6.0.LTS/
    1786                    .dwattr $C$DW$108, DW_AT_decl_line(0x63)
    1787                    .dwattr $C$DW$108, DW_AT_decl_column(0x22)
    1788            
    1789                    .dwattr $C$DW$T$25, DW_AT_decl_file("C:/ti/ccs1200/ccs/tools/compiler/ti-cgt-msp430_21.6.0.LTS
    1790                    .dwattr $C$DW$T$25, DW_AT_decl_line(0x63)
    1791                    .dwattr $C$DW$T$25, DW_AT_decl_column(0x10)
    1792                    .dwendtag $C$DW$T$25
    1793            
    1794            $C$DW$T$31      .dwtag  DW_TAG_typedef
    1795                    .dwattr $C$DW$T$31, DW_AT_name("lldiv_t")
    1796                    .dwattr $C$DW$T$31, DW_AT_type(*$C$DW$T$25)
    1797                    .dwattr $C$DW$T$31, DW_AT_language(DW_LANG_C)
    1798                    .dwattr $C$DW$T$31, DW_AT_decl_file("C:/ti/ccs1200/ccs/tools/compiler/ti-cgt-msp430_21.6.0.LTS
    1799                    .dwattr $C$DW$T$31, DW_AT_decl_line(0x63)
    1800                    .dwattr $C$DW$T$31, DW_AT_decl_column(0x29)
    1801            
    1802            $C$DW$T$2       .dwtag  DW_TAG_unspecified_type
    1803                    .dwattr $C$DW$T$2, DW_AT_name("void")
    1804            
    1805            
    1806            $C$DW$T$32      .dwtag  DW_TAG_subroutine_type
    1807                    .dwattr $C$DW$T$32, DW_AT_language(DW_LANG_C)
    1808                    .dwendtag $C$DW$T$32
    1809            
    1810            $C$DW$T$33      .dwtag  DW_TAG_pointer_type
    1811                    .dwattr $C$DW$T$33, DW_AT_type(*$C$DW$T$32)
    1812                    .dwattr $C$DW$T$33, DW_AT_address_class(0x14)
    1813            
    1814            $C$DW$T$34      .dwtag  DW_TAG_typedef
    1815                    .dwattr $C$DW$T$34, DW_AT_name("__TI_atexit_fn")
    1816                    .dwattr $C$DW$T$34, DW_AT_type(*$C$DW$T$33)
    1817                    .dwattr $C$DW$T$34, DW_AT_language(DW_LANG_C)
    1818                    .dwattr $C$DW$T$34, DW_AT_decl_file("C:/ti/ccs1200/ccs/tools/compiler/ti-cgt-msp430_21.6.0.LTS
    1819                    .dwattr $C$DW$T$34, DW_AT_decl_line(0xcf)
    1820                    .dwattr $C$DW$T$34, DW_AT_decl_column(0x14)
    1821            
    1822            
    1823            $C$DW$T$37      .dwtag  DW_TAG_subroutine_type
    1824                    .dwattr $C$DW$T$37, DW_AT_language(DW_LANG_C)
    1825                    .dwendtag $C$DW$T$37
    1826            
    1827            $C$DW$T$38      .dwtag  DW_TAG_pointer_type
    1828                    .dwattr $C$DW$T$38, DW_AT_type(*$C$DW$T$37)
    1829                    .dwattr $C$DW$T$38, DW_AT_address_class(0x14)
    1830            
    1831            $C$DW$T$39      .dwtag  DW_TAG_typedef
    1832                    .dwattr $C$DW$T$39, DW_AT_name("__SFR_FARPTR")
    1833                    .dwattr $C$DW$T$39, DW_AT_type(*$C$DW$T$38)
    1834                    .dwattr $C$DW$T$39, DW_AT_language(DW_LANG_C)
    1835                    .dwattr $C$DW$T$39, DW_AT_decl_file("C:/ti/ccs1200/ccs/ccs_base/msp430/include/msp430FG4618.h"
    1836                    .dwattr $C$DW$T$39, DW_AT_decl_line(0x4d)
    1837                    .dwattr $C$DW$T$39, DW_AT_decl_column(0x11)
MSP430 Assembler PC v21.6.0 Fri Mar 24 22:26:35 2023

Copyright (c) 2003-2018 Texas Instruments Incorporated
C:\Users\crs0074\AppData\Local\Temp\{1CDDF0A4-DD4F-44E4-962C-299E57A83445} PAGE   39

    1838            
    1839            $C$DW$109       .dwtag  DW_TAG_TI_far_type
    1840                    .dwattr $C$DW$109, DW_AT_type(*$C$DW$T$2)
    1841            
    1842            $C$DW$T$48      .dwtag  DW_TAG_const_type
    1843                    .dwattr $C$DW$T$48, DW_AT_type(*$C$DW$109)
    1844            
    1845            $C$DW$T$49      .dwtag  DW_TAG_pointer_type
    1846                    .dwattr $C$DW$T$49, DW_AT_type(*$C$DW$T$48)
    1847                    .dwattr $C$DW$T$49, DW_AT_address_class(0x14)
    1848            
    1849            $C$DW$T$4       .dwtag  DW_TAG_base_type
    1850                    .dwattr $C$DW$T$4, DW_AT_encoding(DW_ATE_boolean)
    1851                    .dwattr $C$DW$T$4, DW_AT_name("bool")
    1852                    .dwattr $C$DW$T$4, DW_AT_byte_size(0x01)
    1853            
    1854            $C$DW$T$5       .dwtag  DW_TAG_base_type
    1855                    .dwattr $C$DW$T$5, DW_AT_encoding(DW_ATE_signed_char)
    1856                    .dwattr $C$DW$T$5, DW_AT_name("signed char")
    1857                    .dwattr $C$DW$T$5, DW_AT_byte_size(0x01)
    1858            
    1859            $C$DW$T$50      .dwtag  DW_TAG_typedef
    1860                    .dwattr $C$DW$T$50, DW_AT_name("__int8_t")
    1861                    .dwattr $C$DW$T$50, DW_AT_type(*$C$DW$T$5)
    1862                    .dwattr $C$DW$T$50, DW_AT_language(DW_LANG_C)
    1863                    .dwattr $C$DW$T$50, DW_AT_decl_file("C:/ti/ccs1200/ccs/tools/compiler/ti-cgt-msp430_21.6.0.LTS
    1864                    .dwattr $C$DW$T$50, DW_AT_decl_line(0x36)
    1865                    .dwattr $C$DW$T$50, DW_AT_decl_column(0x16)
    1866            
    1867            $C$DW$T$51      .dwtag  DW_TAG_typedef
    1868                    .dwattr $C$DW$T$51, DW_AT_name("__int_least8_t")
    1869                    .dwattr $C$DW$T$51, DW_AT_type(*$C$DW$T$50)
    1870                    .dwattr $C$DW$T$51, DW_AT_language(DW_LANG_C)
    1871                    .dwattr $C$DW$T$51, DW_AT_decl_file("C:/ti/ccs1200/ccs/tools/compiler/ti-cgt-msp430_21.6.0.LTS
    1872                    .dwattr $C$DW$T$51, DW_AT_decl_line(0x5a)
    1873                    .dwattr $C$DW$T$51, DW_AT_decl_column(0x12)
    1874            
    1875            $C$DW$T$52      .dwtag  DW_TAG_typedef
    1876                    .dwattr $C$DW$T$52, DW_AT_name("int_least8_t")
    1877                    .dwattr $C$DW$T$52, DW_AT_type(*$C$DW$T$51)
    1878                    .dwattr $C$DW$T$52, DW_AT_language(DW_LANG_C)
    1879                    .dwattr $C$DW$T$52, DW_AT_decl_file("C:/ti/ccs1200/ccs/tools/compiler/ti-cgt-msp430_21.6.0.LTS
    1880                    .dwattr $C$DW$T$52, DW_AT_decl_line(0x2a)
    1881                    .dwattr $C$DW$T$52, DW_AT_decl_column(0x19)
    1882            
    1883            $C$DW$T$53      .dwtag  DW_TAG_typedef
    1884                    .dwattr $C$DW$T$53, DW_AT_name("int8_t")
    1885                    .dwattr $C$DW$T$53, DW_AT_type(*$C$DW$T$50)
    1886                    .dwattr $C$DW$T$53, DW_AT_language(DW_LANG_C)
    1887                    .dwattr $C$DW$T$53, DW_AT_decl_file("C:/ti/ccs1200/ccs/tools/compiler/ti-cgt-msp430_21.6.0.LTS
    1888                    .dwattr $C$DW$T$53, DW_AT_decl_line(0x25)
    1889                    .dwattr $C$DW$T$53, DW_AT_decl_column(0x13)
    1890            
    1891            $C$DW$T$6       .dwtag  DW_TAG_base_type
    1892                    .dwattr $C$DW$T$6, DW_AT_encoding(DW_ATE_unsigned_char)
MSP430 Assembler PC v21.6.0 Fri Mar 24 22:26:35 2023

Copyright (c) 2003-2018 Texas Instruments Incorporated
C:\Users\crs0074\AppData\Local\Temp\{1CDDF0A4-DD4F-44E4-962C-299E57A83445} PAGE   40

    1893                    .dwattr $C$DW$T$6, DW_AT_name("unsigned char")
    1894                    .dwattr $C$DW$T$6, DW_AT_byte_size(0x01)
    1895            
    1896            $C$DW$T$26      .dwtag  DW_TAG_pointer_type
    1897                    .dwattr $C$DW$T$26, DW_AT_type(*$C$DW$T$6)
    1898                    .dwattr $C$DW$T$26, DW_AT_address_class(0x14)
    1899            
    1900            $C$DW$110       .dwtag  DW_TAG_TI_far_type
    1901                    .dwattr $C$DW$110, DW_AT_type(*$C$DW$T$6)
    1902            
    1903            $C$DW$T$56      .dwtag  DW_TAG_volatile_type
    1904                    .dwattr $C$DW$T$56, DW_AT_type(*$C$DW$110)
    1905            
    1906            $C$DW$T$58      .dwtag  DW_TAG_typedef
    1907                    .dwattr $C$DW$T$58, DW_AT_name("__uint8_t")
    1908                    .dwattr $C$DW$T$58, DW_AT_type(*$C$DW$T$6)
    1909                    .dwattr $C$DW$T$58, DW_AT_language(DW_LANG_C)
    1910                    .dwattr $C$DW$T$58, DW_AT_decl_file("C:/ti/ccs1200/ccs/tools/compiler/ti-cgt-msp430_21.6.0.LTS
    1911                    .dwattr $C$DW$T$58, DW_AT_decl_line(0x37)
    1912                    .dwattr $C$DW$T$58, DW_AT_decl_column(0x18)
    1913            
    1914            $C$DW$T$59      .dwtag  DW_TAG_typedef
    1915                    .dwattr $C$DW$T$59, DW_AT_name("__sa_family_t")
    1916                    .dwattr $C$DW$T$59, DW_AT_type(*$C$DW$T$58)
    1917                    .dwattr $C$DW$T$59, DW_AT_language(DW_LANG_C)
    1918                    .dwattr $C$DW$T$59, DW_AT_decl_file("C:/ti/ccs1200/ccs/tools/compiler/ti-cgt-msp430_21.6.0.LTS
    1919                    .dwattr $C$DW$T$59, DW_AT_decl_line(0x47)
    1920                    .dwattr $C$DW$T$59, DW_AT_decl_column(0x13)
    1921            
    1922            $C$DW$T$60      .dwtag  DW_TAG_typedef
    1923                    .dwattr $C$DW$T$60, DW_AT_name("__uint_least8_t")
    1924                    .dwattr $C$DW$T$60, DW_AT_type(*$C$DW$T$58)
    1925                    .dwattr $C$DW$T$60, DW_AT_language(DW_LANG_C)
    1926                    .dwattr $C$DW$T$60, DW_AT_decl_file("C:/ti/ccs1200/ccs/tools/compiler/ti-cgt-msp430_21.6.0.LTS
    1927                    .dwattr $C$DW$T$60, DW_AT_decl_line(0x74)
    1928                    .dwattr $C$DW$T$60, DW_AT_decl_column(0x13)
    1929            
    1930            $C$DW$T$61      .dwtag  DW_TAG_typedef
    1931                    .dwattr $C$DW$T$61, DW_AT_name("uint_least8_t")
    1932                    .dwattr $C$DW$T$61, DW_AT_type(*$C$DW$T$60)
    1933                    .dwattr $C$DW$T$61, DW_AT_language(DW_LANG_C)
    1934                    .dwattr $C$DW$T$61, DW_AT_decl_file("C:/ti/ccs1200/ccs/tools/compiler/ti-cgt-msp430_21.6.0.LTS
    1935                    .dwattr $C$DW$T$61, DW_AT_decl_line(0x2f)
    1936                    .dwattr $C$DW$T$61, DW_AT_decl_column(0x1a)
    1937            
    1938            $C$DW$T$62      .dwtag  DW_TAG_typedef
    1939                    .dwattr $C$DW$T$62, DW_AT_name("uint8_t")
    1940                    .dwattr $C$DW$T$62, DW_AT_type(*$C$DW$T$58)
    1941                    .dwattr $C$DW$T$62, DW_AT_language(DW_LANG_C)
    1942                    .dwattr $C$DW$T$62, DW_AT_decl_file("C:/ti/ccs1200/ccs/tools/compiler/ti-cgt-msp430_21.6.0.LTS
    1943                    .dwattr $C$DW$T$62, DW_AT_decl_line(0x3b)
    1944                    .dwattr $C$DW$T$62, DW_AT_decl_column(0x14)
    1945            
    1946            $C$DW$T$7       .dwtag  DW_TAG_base_type
    1947                    .dwattr $C$DW$T$7, DW_AT_encoding(DW_ATE_signed_char)
MSP430 Assembler PC v21.6.0 Fri Mar 24 22:26:35 2023

Copyright (c) 2003-2018 Texas Instruments Incorporated
C:\Users\crs0074\AppData\Local\Temp\{1CDDF0A4-DD4F-44E4-962C-299E57A83445} PAGE   41

    1948                    .dwattr $C$DW$T$7, DW_AT_name("wchar_t")
    1949                    .dwattr $C$DW$T$7, DW_AT_byte_size(0x02)
    1950            
    1951            $C$DW$T$8       .dwtag  DW_TAG_base_type
    1952                    .dwattr $C$DW$T$8, DW_AT_encoding(DW_ATE_signed)
    1953                    .dwattr $C$DW$T$8, DW_AT_name("short")
    1954                    .dwattr $C$DW$T$8, DW_AT_byte_size(0x02)
    1955            
    1956            $C$DW$T$9       .dwtag  DW_TAG_base_type
    1957                    .dwattr $C$DW$T$9, DW_AT_encoding(DW_ATE_unsigned)
    1958                    .dwattr $C$DW$T$9, DW_AT_name("unsigned short")
    1959                    .dwattr $C$DW$T$9, DW_AT_byte_size(0x02)
    1960            
    1961            $C$DW$T$10      .dwtag  DW_TAG_base_type
    1962                    .dwattr $C$DW$T$10, DW_AT_encoding(DW_ATE_signed)
    1963                    .dwattr $C$DW$T$10, DW_AT_name("int")
    1964                    .dwattr $C$DW$T$10, DW_AT_byte_size(0x02)
    1965            
    1966            $C$DW$T$63      .dwtag  DW_TAG_typedef
    1967                    .dwattr $C$DW$T$63, DW_AT_name("_Mbstatet")
    1968                    .dwattr $C$DW$T$63, DW_AT_type(*$C$DW$T$10)
    1969                    .dwattr $C$DW$T$63, DW_AT_language(DW_LANG_C)
    1970                    .dwattr $C$DW$T$63, DW_AT_decl_file("C:/ti/ccs1200/ccs/tools/compiler/ti-cgt-msp430_21.6.0.LTS
    1971                    .dwattr $C$DW$T$63, DW_AT_decl_line(0x8f)
    1972                    .dwattr $C$DW$T$63, DW_AT_decl_column(0x0d)
    1973            
    1974            $C$DW$T$64      .dwtag  DW_TAG_typedef
    1975                    .dwattr $C$DW$T$64, DW_AT_name("__mbstate_t")
    1976                    .dwattr $C$DW$T$64, DW_AT_type(*$C$DW$T$63)
    1977                    .dwattr $C$DW$T$64, DW_AT_language(DW_LANG_C)
    1978                    .dwattr $C$DW$T$64, DW_AT_decl_file("C:/ti/ccs1200/ccs/tools/compiler/ti-cgt-msp430_21.6.0.LTS
    1979                    .dwattr $C$DW$T$64, DW_AT_decl_line(0x92)
    1980                    .dwattr $C$DW$T$64, DW_AT_decl_column(0x13)
    1981            
    1982            $C$DW$T$65      .dwtag  DW_TAG_typedef
    1983                    .dwattr $C$DW$T$65, DW_AT_name("__accmode_t")
    1984                    .dwattr $C$DW$T$65, DW_AT_type(*$C$DW$T$10)
    1985                    .dwattr $C$DW$T$65, DW_AT_language(DW_LANG_C)
    1986                    .dwattr $C$DW$T$65, DW_AT_decl_file("C:/ti/ccs1200/ccs/tools/compiler/ti-cgt-msp430_21.6.0.LTS
    1987                    .dwattr $C$DW$T$65, DW_AT_decl_line(0x3b)
    1988                    .dwattr $C$DW$T$65, DW_AT_decl_column(0x0e)
    1989            
    1990            
    1991            $C$DW$T$72      .dwtag  DW_TAG_subroutine_type
    1992                    .dwattr $C$DW$T$72, DW_AT_type(*$C$DW$T$10)
    1993                    .dwattr $C$DW$T$72, DW_AT_language(DW_LANG_C)
    1994            $C$DW$111       .dwtag  DW_TAG_formal_parameter
    1995                    .dwattr $C$DW$111, DW_AT_type(*$C$DW$T$49)
    1996            
    1997            $C$DW$112       .dwtag  DW_TAG_formal_parameter
    1998                    .dwattr $C$DW$112, DW_AT_type(*$C$DW$T$49)
    1999            
    2000                    .dwendtag $C$DW$T$72
    2001            
    2002            $C$DW$T$73      .dwtag  DW_TAG_pointer_type
MSP430 Assembler PC v21.6.0 Fri Mar 24 22:26:35 2023

Copyright (c) 2003-2018 Texas Instruments Incorporated
C:\Users\crs0074\AppData\Local\Temp\{1CDDF0A4-DD4F-44E4-962C-299E57A83445} PAGE   42

    2003                    .dwattr $C$DW$T$73, DW_AT_type(*$C$DW$T$72)
    2004                    .dwattr $C$DW$T$73, DW_AT_address_class(0x14)
    2005            
    2006            $C$DW$T$74      .dwtag  DW_TAG_typedef
    2007                    .dwattr $C$DW$T$74, DW_AT_name("__TI_compar_fn")
    2008                    .dwattr $C$DW$T$74, DW_AT_type(*$C$DW$T$73)
    2009                    .dwattr $C$DW$T$74, DW_AT_language(DW_LANG_C)
    2010                    .dwattr $C$DW$T$74, DW_AT_decl_file("C:/ti/ccs1200/ccs/tools/compiler/ti-cgt-msp430_21.6.0.LTS
    2011                    .dwattr $C$DW$T$74, DW_AT_decl_line(0xd2)
    2012                    .dwattr $C$DW$T$74, DW_AT_decl_column(0x13)
    2013            
    2014            $C$DW$T$75      .dwtag  DW_TAG_typedef
    2015                    .dwattr $C$DW$T$75, DW_AT_name("__cpulevel_t")
    2016                    .dwattr $C$DW$T$75, DW_AT_type(*$C$DW$T$10)
    2017                    .dwattr $C$DW$T$75, DW_AT_language(DW_LANG_C)
    2018                    .dwattr $C$DW$T$75, DW_AT_decl_file("C:/ti/ccs1200/ccs/tools/compiler/ti-cgt-msp430_21.6.0.LTS
    2019                    .dwattr $C$DW$T$75, DW_AT_decl_line(0x50)
    2020                    .dwattr $C$DW$T$75, DW_AT_decl_column(0x0e)
    2021            
    2022            $C$DW$T$76      .dwtag  DW_TAG_typedef
    2023                    .dwattr $C$DW$T$76, DW_AT_name("__cpusetid_t")
    2024                    .dwattr $C$DW$T$76, DW_AT_type(*$C$DW$T$10)
    2025                    .dwattr $C$DW$T$76, DW_AT_language(DW_LANG_C)
    2026                    .dwattr $C$DW$T$76, DW_AT_decl_file("C:/ti/ccs1200/ccs/tools/compiler/ti-cgt-msp430_21.6.0.LTS
    2027                    .dwattr $C$DW$T$76, DW_AT_decl_line(0x51)
    2028                    .dwattr $C$DW$T$76, DW_AT_decl_column(0x0e)
    2029            
    2030            $C$DW$T$77      .dwtag  DW_TAG_typedef
    2031                    .dwattr $C$DW$T$77, DW_AT_name("__cpuwhich_t")
    2032                    .dwattr $C$DW$T$77, DW_AT_type(*$C$DW$T$10)
    2033                    .dwattr $C$DW$T$77, DW_AT_language(DW_LANG_C)
    2034                    .dwattr $C$DW$T$77, DW_AT_decl_file("C:/ti/ccs1200/ccs/tools/compiler/ti-cgt-msp430_21.6.0.LTS
    2035                    .dwattr $C$DW$T$77, DW_AT_decl_line(0x4f)
    2036                    .dwattr $C$DW$T$77, DW_AT_decl_column(0x0e)
    2037            
    2038            $C$DW$T$78      .dwtag  DW_TAG_typedef
    2039                    .dwattr $C$DW$T$78, DW_AT_name("__ct_rune_t")
    2040                    .dwattr $C$DW$T$78, DW_AT_type(*$C$DW$T$10)
    2041                    .dwattr $C$DW$T$78, DW_AT_language(DW_LANG_C)
    2042                    .dwattr $C$DW$T$78, DW_AT_decl_file("C:/ti/ccs1200/ccs/tools/compiler/ti-cgt-msp430_21.6.0.LTS
    2043                    .dwattr $C$DW$T$78, DW_AT_decl_line(0x69)
    2044                    .dwattr $C$DW$T$78, DW_AT_decl_column(0x0e)
    2045            
    2046            $C$DW$T$79      .dwtag  DW_TAG_typedef
    2047                    .dwattr $C$DW$T$79, DW_AT_name("__rune_t")
    2048                    .dwattr $C$DW$T$79, DW_AT_type(*$C$DW$T$78)
    2049                    .dwattr $C$DW$T$79, DW_AT_language(DW_LANG_C)
    2050                    .dwattr $C$DW$T$79, DW_AT_decl_file("C:/ti/ccs1200/ccs/tools/compiler/ti-cgt-msp430_21.6.0.LTS
    2051                    .dwattr $C$DW$T$79, DW_AT_decl_line(0x6c)
    2052                    .dwattr $C$DW$T$79, DW_AT_decl_column(0x15)
    2053            
    2054            $C$DW$T$80      .dwtag  DW_TAG_typedef
    2055                    .dwattr $C$DW$T$80, DW_AT_name("__wint_t")
    2056                    .dwattr $C$DW$T$80, DW_AT_type(*$C$DW$T$78)
    2057                    .dwattr $C$DW$T$80, DW_AT_language(DW_LANG_C)
MSP430 Assembler PC v21.6.0 Fri Mar 24 22:26:35 2023

Copyright (c) 2003-2018 Texas Instruments Incorporated
C:\Users\crs0074\AppData\Local\Temp\{1CDDF0A4-DD4F-44E4-962C-299E57A83445} PAGE   43

    2058                    .dwattr $C$DW$T$80, DW_AT_decl_file("C:/ti/ccs1200/ccs/tools/compiler/ti-cgt-msp430_21.6.0.LTS
    2059                    .dwattr $C$DW$T$80, DW_AT_decl_line(0x6d)
    2060                    .dwattr $C$DW$T$80, DW_AT_decl_column(0x15)
    2061            
    2062            $C$DW$T$81      .dwtag  DW_TAG_typedef
    2063                    .dwattr $C$DW$T$81, DW_AT_name("__int16_t")
    2064                    .dwattr $C$DW$T$81, DW_AT_type(*$C$DW$T$10)
    2065                    .dwattr $C$DW$T$81, DW_AT_language(DW_LANG_C)
    2066                    .dwattr $C$DW$T$81, DW_AT_decl_file("C:/ti/ccs1200/ccs/tools/compiler/ti-cgt-msp430_21.6.0.LTS
    2067                    .dwattr $C$DW$T$81, DW_AT_decl_line(0x38)
    2068                    .dwattr $C$DW$T$81, DW_AT_decl_column(0x0f)
    2069            
    2070            $C$DW$T$82      .dwtag  DW_TAG_typedef
    2071                    .dwattr $C$DW$T$82, DW_AT_name("__int_fast16_t")
    2072                    .dwattr $C$DW$T$82, DW_AT_type(*$C$DW$T$81)
    2073                    .dwattr $C$DW$T$82, DW_AT_language(DW_LANG_C)
    2074                    .dwattr $C$DW$T$82, DW_AT_decl_file("C:/ti/ccs1200/ccs/tools/compiler/ti-cgt-msp430_21.6.0.LTS
    2075                    .dwattr $C$DW$T$82, DW_AT_decl_line(0x57)
    2076                    .dwattr $C$DW$T$82, DW_AT_decl_column(0x13)
    2077            
    2078            $C$DW$T$83      .dwtag  DW_TAG_typedef
    2079                    .dwattr $C$DW$T$83, DW_AT_name("int_fast16_t")
    2080                    .dwattr $C$DW$T$83, DW_AT_type(*$C$DW$T$82)
    2081                    .dwattr $C$DW$T$83, DW_AT_language(DW_LANG_C)
    2082                    .dwattr $C$DW$T$83, DW_AT_decl_file("C:/ti/ccs1200/ccs/tools/compiler/ti-cgt-msp430_21.6.0.LTS
    2083                    .dwattr $C$DW$T$83, DW_AT_decl_line(0x35)
    2084                    .dwattr $C$DW$T$83, DW_AT_decl_column(0x19)
    2085            
    2086            $C$DW$T$84      .dwtag  DW_TAG_typedef
    2087                    .dwattr $C$DW$T$84, DW_AT_name("__int_fast8_t")
    2088                    .dwattr $C$DW$T$84, DW_AT_type(*$C$DW$T$81)
    2089                    .dwattr $C$DW$T$84, DW_AT_language(DW_LANG_C)
    2090                    .dwattr $C$DW$T$84, DW_AT_decl_file("C:/ti/ccs1200/ccs/tools/compiler/ti-cgt-msp430_21.6.0.LTS
    2091                    .dwattr $C$DW$T$84, DW_AT_decl_line(0x56)
    2092                    .dwattr $C$DW$T$84, DW_AT_decl_column(0x13)
    2093            
    2094            $C$DW$T$85      .dwtag  DW_TAG_typedef
    2095                    .dwattr $C$DW$T$85, DW_AT_name("int_fast8_t")
    2096                    .dwattr $C$DW$T$85, DW_AT_type(*$C$DW$T$84)
    2097                    .dwattr $C$DW$T$85, DW_AT_language(DW_LANG_C)
    2098                    .dwattr $C$DW$T$85, DW_AT_decl_file("C:/ti/ccs1200/ccs/tools/compiler/ti-cgt-msp430_21.6.0.LTS
    2099                    .dwattr $C$DW$T$85, DW_AT_decl_line(0x34)
    2100                    .dwattr $C$DW$T$85, DW_AT_decl_column(0x18)
    2101            
    2102            $C$DW$T$86      .dwtag  DW_TAG_typedef
    2103                    .dwattr $C$DW$T$86, DW_AT_name("__int_least16_t")
    2104                    .dwattr $C$DW$T$86, DW_AT_type(*$C$DW$T$81)
    2105                    .dwattr $C$DW$T$86, DW_AT_language(DW_LANG_C)
    2106                    .dwattr $C$DW$T$86, DW_AT_decl_file("C:/ti/ccs1200/ccs/tools/compiler/ti-cgt-msp430_21.6.0.LTS
    2107                    .dwattr $C$DW$T$86, DW_AT_decl_line(0x5b)
    2108                    .dwattr $C$DW$T$86, DW_AT_decl_column(0x13)
    2109            
    2110            $C$DW$T$87      .dwtag  DW_TAG_typedef
    2111                    .dwattr $C$DW$T$87, DW_AT_name("int_least16_t")
    2112                    .dwattr $C$DW$T$87, DW_AT_type(*$C$DW$T$86)
MSP430 Assembler PC v21.6.0 Fri Mar 24 22:26:35 2023

Copyright (c) 2003-2018 Texas Instruments Incorporated
C:\Users\crs0074\AppData\Local\Temp\{1CDDF0A4-DD4F-44E4-962C-299E57A83445} PAGE   44

    2113                    .dwattr $C$DW$T$87, DW_AT_language(DW_LANG_C)
    2114                    .dwattr $C$DW$T$87, DW_AT_decl_file("C:/ti/ccs1200/ccs/tools/compiler/ti-cgt-msp430_21.6.0.LTS
    2115                    .dwattr $C$DW$T$87, DW_AT_decl_line(0x2b)
    2116                    .dwattr $C$DW$T$87, DW_AT_decl_column(0x1a)
    2117            
    2118            $C$DW$T$88      .dwtag  DW_TAG_typedef
    2119                    .dwattr $C$DW$T$88, DW_AT_name("__register_t")
    2120                    .dwattr $C$DW$T$88, DW_AT_type(*$C$DW$T$81)
    2121                    .dwattr $C$DW$T$88, DW_AT_language(DW_LANG_C)
    2122                    .dwattr $C$DW$T$88, DW_AT_decl_file("C:/ti/ccs1200/ccs/tools/compiler/ti-cgt-msp430_21.6.0.LTS
    2123                    .dwattr $C$DW$T$88, DW_AT_decl_line(0x5f)
    2124                    .dwattr $C$DW$T$88, DW_AT_decl_column(0x13)
    2125            
    2126            $C$DW$T$89      .dwtag  DW_TAG_typedef
    2127                    .dwattr $C$DW$T$89, DW_AT_name("int16_t")
    2128                    .dwattr $C$DW$T$89, DW_AT_type(*$C$DW$T$81)
    2129                    .dwattr $C$DW$T$89, DW_AT_language(DW_LANG_C)
    2130                    .dwattr $C$DW$T$89, DW_AT_decl_file("C:/ti/ccs1200/ccs/tools/compiler/ti-cgt-msp430_21.6.0.LTS
    2131                    .dwattr $C$DW$T$89, DW_AT_decl_line(0x2b)
    2132                    .dwattr $C$DW$T$89, DW_AT_decl_column(0x14)
    2133            
    2134            $C$DW$T$90      .dwtag  DW_TAG_typedef
    2135                    .dwattr $C$DW$T$90, DW_AT_name("__nl_item")
    2136                    .dwattr $C$DW$T$90, DW_AT_type(*$C$DW$T$10)
    2137                    .dwattr $C$DW$T$90, DW_AT_language(DW_LANG_C)
    2138                    .dwattr $C$DW$T$90, DW_AT_decl_file("C:/ti/ccs1200/ccs/tools/compiler/ti-cgt-msp430_21.6.0.LTS
    2139                    .dwattr $C$DW$T$90, DW_AT_decl_line(0x3c)
    2140                    .dwattr $C$DW$T$90, DW_AT_decl_column(0x0e)
    2141            
    2142            $C$DW$T$91      .dwtag  DW_TAG_typedef
    2143                    .dwattr $C$DW$T$91, DW_AT_name("__ptrdiff_t")
    2144                    .dwattr $C$DW$T$91, DW_AT_type(*$C$DW$T$10)
    2145                    .dwattr $C$DW$T$91, DW_AT_language(DW_LANG_C)
    2146                    .dwattr $C$DW$T$91, DW_AT_decl_file("C:/ti/ccs1200/ccs/tools/compiler/ti-cgt-msp430_21.6.0.LTS
    2147                    .dwattr $C$DW$T$91, DW_AT_decl_line(0x5e)
    2148                    .dwattr $C$DW$T$91, DW_AT_decl_column(0x1c)
    2149            
    2150            $C$DW$T$11      .dwtag  DW_TAG_base_type
    2151                    .dwattr $C$DW$T$11, DW_AT_encoding(DW_ATE_unsigned)
    2152                    .dwattr $C$DW$T$11, DW_AT_name("unsigned int")
    2153                    .dwattr $C$DW$T$11, DW_AT_byte_size(0x02)
    2154            
    2155            $C$DW$T$92      .dwtag  DW_TAG_typedef
    2156                    .dwattr $C$DW$T$92, DW_AT_name("___wchar_t")
    2157                    .dwattr $C$DW$T$92, DW_AT_type(*$C$DW$T$11)
    2158                    .dwattr $C$DW$T$92, DW_AT_language(DW_LANG_C)
    2159                    .dwattr $C$DW$T$92, DW_AT_decl_file("C:/ti/ccs1200/ccs/tools/compiler/ti-cgt-msp430_21.6.0.LTS
    2160                    .dwattr $C$DW$T$92, DW_AT_decl_line(0x7d)
    2161                    .dwattr $C$DW$T$92, DW_AT_decl_column(0x1a)
    2162            
    2163            $C$DW$113       .dwtag  DW_TAG_TI_far_type
    2164                    .dwattr $C$DW$113, DW_AT_type(*$C$DW$T$11)
    2165            
    2166            $C$DW$T$93      .dwtag  DW_TAG_volatile_type
    2167                    .dwattr $C$DW$T$93, DW_AT_type(*$C$DW$113)
MSP430 Assembler PC v21.6.0 Fri Mar 24 22:26:35 2023

Copyright (c) 2003-2018 Texas Instruments Incorporated
C:\Users\crs0074\AppData\Local\Temp\{1CDDF0A4-DD4F-44E4-962C-299E57A83445} PAGE   45

    2168            
    2169            $C$DW$T$94      .dwtag  DW_TAG_typedef
    2170                    .dwattr $C$DW$T$94, DW_AT_name("__size_t")
    2171                    .dwattr $C$DW$T$94, DW_AT_type(*$C$DW$T$11)
    2172                    .dwattr $C$DW$T$94, DW_AT_language(DW_LANG_C)
    2173                    .dwattr $C$DW$T$94, DW_AT_decl_file("C:/ti/ccs1200/ccs/tools/compiler/ti-cgt-msp430_21.6.0.LTS
    2174                    .dwattr $C$DW$T$94, DW_AT_decl_line(0x61)
    2175                    .dwattr $C$DW$T$94, DW_AT_decl_column(0x19)
    2176            
    2177            $C$DW$T$95      .dwtag  DW_TAG_typedef
    2178                    .dwattr $C$DW$T$95, DW_AT_name("__uint16_t")
    2179                    .dwattr $C$DW$T$95, DW_AT_type(*$C$DW$T$11)
    2180                    .dwattr $C$DW$T$95, DW_AT_language(DW_LANG_C)
    2181                    .dwattr $C$DW$T$95, DW_AT_decl_file("C:/ti/ccs1200/ccs/tools/compiler/ti-cgt-msp430_21.6.0.LTS
    2182                    .dwattr $C$DW$T$95, DW_AT_decl_line(0x39)
    2183                    .dwattr $C$DW$T$95, DW_AT_decl_column(0x17)
    2184            
    2185            $C$DW$T$96      .dwtag  DW_TAG_typedef
    2186                    .dwattr $C$DW$T$96, DW_AT_name("__mode_t")
    2187                    .dwattr $C$DW$T$96, DW_AT_type(*$C$DW$T$95)
    2188                    .dwattr $C$DW$T$96, DW_AT_language(DW_LANG_C)
    2189                    .dwattr $C$DW$T$96, DW_AT_decl_file("C:/ti/ccs1200/ccs/tools/compiler/ti-cgt-msp430_21.6.0.LTS
    2190                    .dwattr $C$DW$T$96, DW_AT_decl_line(0x3a)
    2191                    .dwattr $C$DW$T$96, DW_AT_decl_column(0x14)
    2192            
    2193            $C$DW$T$97      .dwtag  DW_TAG_typedef
    2194                    .dwattr $C$DW$T$97, DW_AT_name("__u_register_t")
    2195                    .dwattr $C$DW$T$97, DW_AT_type(*$C$DW$T$95)
    2196                    .dwattr $C$DW$T$97, DW_AT_language(DW_LANG_C)
    2197                    .dwattr $C$DW$T$97, DW_AT_decl_file("C:/ti/ccs1200/ccs/tools/compiler/ti-cgt-msp430_21.6.0.LTS
    2198                    .dwattr $C$DW$T$97, DW_AT_decl_line(0x78)
    2199                    .dwattr $C$DW$T$97, DW_AT_decl_column(0x14)
    2200            
    2201            $C$DW$T$98      .dwtag  DW_TAG_typedef
    2202                    .dwattr $C$DW$T$98, DW_AT_name("__uint_fast16_t")
    2203                    .dwattr $C$DW$T$98, DW_AT_type(*$C$DW$T$95)
    2204                    .dwattr $C$DW$T$98, DW_AT_language(DW_LANG_C)
    2205                    .dwattr $C$DW$T$98, DW_AT_decl_file("C:/ti/ccs1200/ccs/tools/compiler/ti-cgt-msp430_21.6.0.LTS
    2206                    .dwattr $C$DW$T$98, DW_AT_decl_line(0x71)
    2207                    .dwattr $C$DW$T$98, DW_AT_decl_column(0x14)
    2208            
    2209            $C$DW$T$99      .dwtag  DW_TAG_typedef
    2210                    .dwattr $C$DW$T$99, DW_AT_name("uint_fast16_t")
    2211                    .dwattr $C$DW$T$99, DW_AT_type(*$C$DW$T$98)
    2212                    .dwattr $C$DW$T$99, DW_AT_language(DW_LANG_C)
    2213                    .dwattr $C$DW$T$99, DW_AT_decl_file("C:/ti/ccs1200/ccs/tools/compiler/ti-cgt-msp430_21.6.0.LTS
    2214                    .dwattr $C$DW$T$99, DW_AT_decl_line(0x3a)
    2215                    .dwattr $C$DW$T$99, DW_AT_decl_column(0x1a)
    2216            
    2217            $C$DW$T$100     .dwtag  DW_TAG_typedef
    2218                    .dwattr $C$DW$T$100, DW_AT_name("__uint_fast8_t")
    2219                    .dwattr $C$DW$T$100, DW_AT_type(*$C$DW$T$95)
    2220                    .dwattr $C$DW$T$100, DW_AT_language(DW_LANG_C)
    2221                    .dwattr $C$DW$T$100, DW_AT_decl_file("C:/ti/ccs1200/ccs/tools/compiler/ti-cgt-msp430_21.6.0.LT
    2222                    .dwattr $C$DW$T$100, DW_AT_decl_line(0x70)
MSP430 Assembler PC v21.6.0 Fri Mar 24 22:26:35 2023

Copyright (c) 2003-2018 Texas Instruments Incorporated
C:\Users\crs0074\AppData\Local\Temp\{1CDDF0A4-DD4F-44E4-962C-299E57A83445} PAGE   46

    2223                    .dwattr $C$DW$T$100, DW_AT_decl_column(0x14)
    2224            
    2225            $C$DW$T$101     .dwtag  DW_TAG_typedef
    2226                    .dwattr $C$DW$T$101, DW_AT_name("uint_fast8_t")
    2227                    .dwattr $C$DW$T$101, DW_AT_type(*$C$DW$T$100)
    2228                    .dwattr $C$DW$T$101, DW_AT_language(DW_LANG_C)
    2229                    .dwattr $C$DW$T$101, DW_AT_decl_file("C:/ti/ccs1200/ccs/tools/compiler/ti-cgt-msp430_21.6.0.LT
    2230                    .dwattr $C$DW$T$101, DW_AT_decl_line(0x39)
    2231                    .dwattr $C$DW$T$101, DW_AT_decl_column(0x19)
    2232            
    2233            $C$DW$T$102     .dwtag  DW_TAG_typedef
    2234                    .dwattr $C$DW$T$102, DW_AT_name("__uint_least16_t")
    2235                    .dwattr $C$DW$T$102, DW_AT_type(*$C$DW$T$95)
    2236                    .dwattr $C$DW$T$102, DW_AT_language(DW_LANG_C)
    2237                    .dwattr $C$DW$T$102, DW_AT_decl_file("C:/ti/ccs1200/ccs/tools/compiler/ti-cgt-msp430_21.6.0.LT
    2238                    .dwattr $C$DW$T$102, DW_AT_decl_line(0x75)
    2239                    .dwattr $C$DW$T$102, DW_AT_decl_column(0x14)
    2240            
    2241            $C$DW$T$103     .dwtag  DW_TAG_typedef
    2242                    .dwattr $C$DW$T$103, DW_AT_name("__char16_t")
    2243                    .dwattr $C$DW$T$103, DW_AT_type(*$C$DW$T$102)
    2244                    .dwattr $C$DW$T$103, DW_AT_language(DW_LANG_C)
    2245                    .dwattr $C$DW$T$103, DW_AT_decl_file("C:/ti/ccs1200/ccs/tools/compiler/ti-cgt-msp430_21.6.0.LT
    2246                    .dwattr $C$DW$T$103, DW_AT_decl_line(0x71)
    2247                    .dwattr $C$DW$T$103, DW_AT_decl_column(0x1a)
    2248            
    2249            $C$DW$T$104     .dwtag  DW_TAG_typedef
    2250                    .dwattr $C$DW$T$104, DW_AT_name("uint_least16_t")
    2251                    .dwattr $C$DW$T$104, DW_AT_type(*$C$DW$T$102)
    2252                    .dwattr $C$DW$T$104, DW_AT_language(DW_LANG_C)
    2253                    .dwattr $C$DW$T$104, DW_AT_decl_file("C:/ti/ccs1200/ccs/tools/compiler/ti-cgt-msp430_21.6.0.LT
    2254                    .dwattr $C$DW$T$104, DW_AT_decl_line(0x30)
    2255                    .dwattr $C$DW$T$104, DW_AT_decl_column(0x1a)
    2256            
    2257            $C$DW$T$105     .dwtag  DW_TAG_typedef
    2258                    .dwattr $C$DW$T$105, DW_AT_name("uint16_t")
    2259                    .dwattr $C$DW$T$105, DW_AT_type(*$C$DW$T$95)
    2260                    .dwattr $C$DW$T$105, DW_AT_language(DW_LANG_C)
    2261                    .dwattr $C$DW$T$105, DW_AT_decl_file("C:/ti/ccs1200/ccs/tools/compiler/ti-cgt-msp430_21.6.0.LT
    2262                    .dwattr $C$DW$T$105, DW_AT_decl_line(0x41)
    2263                    .dwattr $C$DW$T$105, DW_AT_decl_column(0x15)
    2264            
    2265            $C$DW$T$106     .dwtag  DW_TAG_typedef
    2266                    .dwattr $C$DW$T$106, DW_AT_name("__useconds_t")
    2267                    .dwattr $C$DW$T$106, DW_AT_type(*$C$DW$T$11)
    2268                    .dwattr $C$DW$T$106, DW_AT_language(DW_LANG_C)
    2269                    .dwattr $C$DW$T$106, DW_AT_decl_file("C:/ti/ccs1200/ccs/tools/compiler/ti-cgt-msp430_21.6.0.LT
    2270                    .dwattr $C$DW$T$106, DW_AT_decl_line(0x4e)
    2271                    .dwattr $C$DW$T$106, DW_AT_decl_column(0x16)
    2272            
    2273            $C$DW$T$107     .dwtag  DW_TAG_typedef
    2274                    .dwattr $C$DW$T$107, DW_AT_name("size_t")
    2275                    .dwattr $C$DW$T$107, DW_AT_type(*$C$DW$T$11)
    2276                    .dwattr $C$DW$T$107, DW_AT_language(DW_LANG_C)
    2277                    .dwattr $C$DW$T$107, DW_AT_decl_file("C:/ti/ccs1200/ccs/tools/compiler/ti-cgt-msp430_21.6.0.LT
MSP430 Assembler PC v21.6.0 Fri Mar 24 22:26:35 2023

Copyright (c) 2003-2018 Texas Instruments Incorporated
C:\Users\crs0074\AppData\Local\Temp\{1CDDF0A4-DD4F-44E4-962C-299E57A83445} PAGE   47

    2278                    .dwattr $C$DW$T$107, DW_AT_decl_line(0x4d)
    2279                    .dwattr $C$DW$T$107, DW_AT_decl_column(0x19)
    2280            
    2281            $C$DW$T$108     .dwtag  DW_TAG_typedef
    2282                    .dwattr $C$DW$T$108, DW_AT_name("wchar_t")
    2283                    .dwattr $C$DW$T$108, DW_AT_type(*$C$DW$T$11)
    2284                    .dwattr $C$DW$T$108, DW_AT_language(DW_LANG_C)
    2285                    .dwattr $C$DW$T$108, DW_AT_decl_file("C:/ti/ccs1200/ccs/tools/compiler/ti-cgt-msp430_21.6.0.LT
    2286                    .dwattr $C$DW$T$108, DW_AT_decl_line(0x83)
    2287                    .dwattr $C$DW$T$108, DW_AT_decl_column(0x1a)
    2288            
    2289            $C$DW$T$12      .dwtag  DW_TAG_base_type
    2290                    .dwattr $C$DW$T$12, DW_AT_encoding(DW_ATE_signed)
    2291                    .dwattr $C$DW$T$12, DW_AT_name("long")
    2292                    .dwattr $C$DW$T$12, DW_AT_byte_size(0x04)
    2293            
    2294            $C$DW$T$109     .dwtag  DW_TAG_typedef
    2295                    .dwattr $C$DW$T$109, DW_AT_name("__int32_t")
    2296                    .dwattr $C$DW$T$109, DW_AT_type(*$C$DW$T$12)
    2297                    .dwattr $C$DW$T$109, DW_AT_language(DW_LANG_C)
    2298                    .dwattr $C$DW$T$109, DW_AT_decl_file("C:/ti/ccs1200/ccs/tools/compiler/ti-cgt-msp430_21.6.0.LT
    2299                    .dwattr $C$DW$T$109, DW_AT_decl_line(0x3a)
    2300                    .dwattr $C$DW$T$109, DW_AT_decl_column(0x10)
    2301            
    2302            $C$DW$T$110     .dwtag  DW_TAG_typedef
    2303                    .dwattr $C$DW$T$110, DW_AT_name("__blksize_t")
    2304                    .dwattr $C$DW$T$110, DW_AT_type(*$C$DW$T$109)
    2305                    .dwattr $C$DW$T$110, DW_AT_language(DW_LANG_C)
    2306                    .dwattr $C$DW$T$110, DW_AT_decl_file("C:/ti/ccs1200/ccs/tools/compiler/ti-cgt-msp430_21.6.0.LT
    2307                    .dwattr $C$DW$T$110, DW_AT_decl_line(0x2f)
    2308                    .dwattr $C$DW$T$110, DW_AT_decl_column(0x13)
    2309            
    2310            $C$DW$T$111     .dwtag  DW_TAG_typedef
    2311                    .dwattr $C$DW$T$111, DW_AT_name("__clockid_t")
    2312                    .dwattr $C$DW$T$111, DW_AT_type(*$C$DW$T$109)
    2313                    .dwattr $C$DW$T$111, DW_AT_language(DW_LANG_C)
    2314                    .dwattr $C$DW$T$111, DW_AT_decl_file("C:/ti/ccs1200/ccs/tools/compiler/ti-cgt-msp430_21.6.0.LT
    2315                    .dwattr $C$DW$T$111, DW_AT_decl_line(0x31)
    2316                    .dwattr $C$DW$T$111, DW_AT_decl_column(0x13)
    2317            
    2318            $C$DW$T$112     .dwtag  DW_TAG_typedef
    2319                    .dwattr $C$DW$T$112, DW_AT_name("__critical_t")
    2320                    .dwattr $C$DW$T$112, DW_AT_type(*$C$DW$T$109)
    2321                    .dwattr $C$DW$T$112, DW_AT_language(DW_LANG_C)
    2322                    .dwattr $C$DW$T$112, DW_AT_decl_file("C:/ti/ccs1200/ccs/tools/compiler/ti-cgt-msp430_21.6.0.LT
    2323                    .dwattr $C$DW$T$112, DW_AT_decl_line(0x4b)
    2324                    .dwattr $C$DW$T$112, DW_AT_decl_column(0x13)
    2325            
    2326            $C$DW$T$113     .dwtag  DW_TAG_typedef
    2327                    .dwattr $C$DW$T$113, DW_AT_name("__int_fast32_t")
    2328                    .dwattr $C$DW$T$113, DW_AT_type(*$C$DW$T$109)
    2329                    .dwattr $C$DW$T$113, DW_AT_language(DW_LANG_C)
    2330                    .dwattr $C$DW$T$113, DW_AT_decl_file("C:/ti/ccs1200/ccs/tools/compiler/ti-cgt-msp430_21.6.0.LT
    2331                    .dwattr $C$DW$T$113, DW_AT_decl_line(0x58)
    2332                    .dwattr $C$DW$T$113, DW_AT_decl_column(0x13)
MSP430 Assembler PC v21.6.0 Fri Mar 24 22:26:35 2023

Copyright (c) 2003-2018 Texas Instruments Incorporated
C:\Users\crs0074\AppData\Local\Temp\{1CDDF0A4-DD4F-44E4-962C-299E57A83445} PAGE   48

    2333            
    2334            $C$DW$T$114     .dwtag  DW_TAG_typedef
    2335                    .dwattr $C$DW$T$114, DW_AT_name("int_fast32_t")
    2336                    .dwattr $C$DW$T$114, DW_AT_type(*$C$DW$T$113)
    2337                    .dwattr $C$DW$T$114, DW_AT_language(DW_LANG_C)
    2338                    .dwattr $C$DW$T$114, DW_AT_decl_file("C:/ti/ccs1200/ccs/tools/compiler/ti-cgt-msp430_21.6.0.LT
    2339                    .dwattr $C$DW$T$114, DW_AT_decl_line(0x36)
    2340                    .dwattr $C$DW$T$114, DW_AT_decl_column(0x19)
    2341            
    2342            $C$DW$T$115     .dwtag  DW_TAG_typedef
    2343                    .dwattr $C$DW$T$115, DW_AT_name("__int_least32_t")
    2344                    .dwattr $C$DW$T$115, DW_AT_type(*$C$DW$T$109)
    2345                    .dwattr $C$DW$T$115, DW_AT_language(DW_LANG_C)
    2346                    .dwattr $C$DW$T$115, DW_AT_decl_file("C:/ti/ccs1200/ccs/tools/compiler/ti-cgt-msp430_21.6.0.LT
    2347                    .dwattr $C$DW$T$115, DW_AT_decl_line(0x5c)
    2348                    .dwattr $C$DW$T$115, DW_AT_decl_column(0x13)
    2349            
    2350            $C$DW$T$116     .dwtag  DW_TAG_typedef
    2351                    .dwattr $C$DW$T$116, DW_AT_name("int_least32_t")
    2352                    .dwattr $C$DW$T$116, DW_AT_type(*$C$DW$T$115)
    2353                    .dwattr $C$DW$T$116, DW_AT_language(DW_LANG_C)
    2354                    .dwattr $C$DW$T$116, DW_AT_decl_file("C:/ti/ccs1200/ccs/tools/compiler/ti-cgt-msp430_21.6.0.LT
    2355                    .dwattr $C$DW$T$116, DW_AT_decl_line(0x2c)
    2356                    .dwattr $C$DW$T$116, DW_AT_decl_column(0x1a)
    2357            
    2358            $C$DW$T$117     .dwtag  DW_TAG_typedef
    2359                    .dwattr $C$DW$T$117, DW_AT_name("__intfptr_t")
    2360                    .dwattr $C$DW$T$117, DW_AT_type(*$C$DW$T$109)
    2361                    .dwattr $C$DW$T$117, DW_AT_language(DW_LANG_C)
    2362                    .dwattr $C$DW$T$117, DW_AT_decl_file("C:/ti/ccs1200/ccs/tools/compiler/ti-cgt-msp430_21.6.0.LT
    2363                    .dwattr $C$DW$T$117, DW_AT_decl_line(0x4e)
    2364                    .dwattr $C$DW$T$117, DW_AT_decl_column(0x13)
    2365            
    2366            $C$DW$T$118     .dwtag  DW_TAG_typedef
    2367                    .dwattr $C$DW$T$118, DW_AT_name("__intptr_t")
    2368                    .dwattr $C$DW$T$118, DW_AT_type(*$C$DW$T$109)
    2369                    .dwattr $C$DW$T$118, DW_AT_language(DW_LANG_C)
    2370                    .dwattr $C$DW$T$118, DW_AT_decl_file("C:/ti/ccs1200/ccs/tools/compiler/ti-cgt-msp430_21.6.0.LT
    2371                    .dwattr $C$DW$T$118, DW_AT_decl_line(0x51)
    2372                    .dwattr $C$DW$T$118, DW_AT_decl_column(0x13)
    2373            
    2374            $C$DW$T$119     .dwtag  DW_TAG_typedef
    2375                    .dwattr $C$DW$T$119, DW_AT_name("intptr_t")
    2376                    .dwattr $C$DW$T$119, DW_AT_type(*$C$DW$T$118)
    2377                    .dwattr $C$DW$T$119, DW_AT_language(DW_LANG_C)
    2378                    .dwattr $C$DW$T$119, DW_AT_decl_file("C:/ti/ccs1200/ccs/tools/compiler/ti-cgt-msp430_21.6.0.LT
    2379                    .dwattr $C$DW$T$119, DW_AT_decl_line(0x50)
    2380                    .dwattr $C$DW$T$119, DW_AT_decl_column(0x15)
    2381            
    2382            $C$DW$T$120     .dwtag  DW_TAG_typedef
    2383                    .dwattr $C$DW$T$120, DW_AT_name("__lwpid_t")
    2384                    .dwattr $C$DW$T$120, DW_AT_type(*$C$DW$T$109)
    2385                    .dwattr $C$DW$T$120, DW_AT_language(DW_LANG_C)
    2386                    .dwattr $C$DW$T$120, DW_AT_decl_file("C:/ti/ccs1200/ccs/tools/compiler/ti-cgt-msp430_21.6.0.LT
    2387                    .dwattr $C$DW$T$120, DW_AT_decl_line(0x39)
MSP430 Assembler PC v21.6.0 Fri Mar 24 22:26:35 2023

Copyright (c) 2003-2018 Texas Instruments Incorporated
C:\Users\crs0074\AppData\Local\Temp\{1CDDF0A4-DD4F-44E4-962C-299E57A83445} PAGE   49

    2388                    .dwattr $C$DW$T$120, DW_AT_decl_column(0x13)
    2389            
    2390            $C$DW$T$121     .dwtag  DW_TAG_typedef
    2391                    .dwattr $C$DW$T$121, DW_AT_name("__pid_t")
    2392                    .dwattr $C$DW$T$121, DW_AT_type(*$C$DW$T$109)
    2393                    .dwattr $C$DW$T$121, DW_AT_language(DW_LANG_C)
    2394                    .dwattr $C$DW$T$121, DW_AT_decl_file("C:/ti/ccs1200/ccs/tools/compiler/ti-cgt-msp430_21.6.0.LT
    2395                    .dwattr $C$DW$T$121, DW_AT_decl_line(0x40)
    2396                    .dwattr $C$DW$T$121, DW_AT_decl_column(0x13)
    2397            
    2398            $C$DW$T$122     .dwtag  DW_TAG_typedef
    2399                    .dwattr $C$DW$T$122, DW_AT_name("__segsz_t")
    2400                    .dwattr $C$DW$T$122, DW_AT_type(*$C$DW$T$109)
    2401                    .dwattr $C$DW$T$122, DW_AT_language(DW_LANG_C)
    2402                    .dwattr $C$DW$T$122, DW_AT_decl_file("C:/ti/ccs1200/ccs/tools/compiler/ti-cgt-msp430_21.6.0.LT
    2403                    .dwattr $C$DW$T$122, DW_AT_decl_line(0x60)
    2404                    .dwattr $C$DW$T$122, DW_AT_decl_column(0x13)
    2405            
    2406            $C$DW$T$123     .dwtag  DW_TAG_typedef
    2407                    .dwattr $C$DW$T$123, DW_AT_name("__ssize_t")
    2408                    .dwattr $C$DW$T$123, DW_AT_type(*$C$DW$T$109)
    2409                    .dwattr $C$DW$T$123, DW_AT_language(DW_LANG_C)
    2410                    .dwattr $C$DW$T$123, DW_AT_decl_file("C:/ti/ccs1200/ccs/tools/compiler/ti-cgt-msp430_21.6.0.LT
    2411                    .dwattr $C$DW$T$123, DW_AT_decl_line(0x62)
    2412                    .dwattr $C$DW$T$123, DW_AT_decl_column(0x13)
    2413            
    2414            $C$DW$T$124     .dwtag  DW_TAG_typedef
    2415                    .dwattr $C$DW$T$124, DW_AT_name("int32_t")
    2416                    .dwattr $C$DW$T$124, DW_AT_type(*$C$DW$T$109)
    2417                    .dwattr $C$DW$T$124, DW_AT_language(DW_LANG_C)
    2418                    .dwattr $C$DW$T$124, DW_AT_decl_file("C:/ti/ccs1200/ccs/tools/compiler/ti-cgt-msp430_21.6.0.LT
    2419                    .dwattr $C$DW$T$124, DW_AT_decl_line(0x30)
    2420                    .dwattr $C$DW$T$124, DW_AT_decl_column(0x14)
    2421            
    2422            $C$DW$T$125     .dwtag  DW_TAG_typedef
    2423                    .dwattr $C$DW$T$125, DW_AT_name("__key_t")
    2424                    .dwattr $C$DW$T$125, DW_AT_type(*$C$DW$T$12)
    2425                    .dwattr $C$DW$T$125, DW_AT_language(DW_LANG_C)
    2426                    .dwattr $C$DW$T$125, DW_AT_decl_file("C:/ti/ccs1200/ccs/tools/compiler/ti-cgt-msp430_21.6.0.LT
    2427                    .dwattr $C$DW$T$125, DW_AT_decl_line(0x38)
    2428                    .dwattr $C$DW$T$125, DW_AT_decl_column(0x0f)
    2429            
    2430            $C$DW$T$126     .dwtag  DW_TAG_typedef
    2431                    .dwattr $C$DW$T$126, DW_AT_name("__suseconds_t")
    2432                    .dwattr $C$DW$T$126, DW_AT_type(*$C$DW$T$12)
    2433                    .dwattr $C$DW$T$126, DW_AT_language(DW_LANG_C)
    2434                    .dwattr $C$DW$T$126, DW_AT_decl_file("C:/ti/ccs1200/ccs/tools/compiler/ti-cgt-msp430_21.6.0.LT
    2435                    .dwattr $C$DW$T$126, DW_AT_decl_line(0x4a)
    2436                    .dwattr $C$DW$T$126, DW_AT_decl_column(0x0f)
    2437            
    2438            $C$DW$T$127     .dwtag  DW_TAG_typedef
    2439                    .dwattr $C$DW$T$127, DW_AT_name("_off_t")
    2440                    .dwattr $C$DW$T$127, DW_AT_type(*$C$DW$T$12)
    2441                    .dwattr $C$DW$T$127, DW_AT_language(DW_LANG_C)
    2442                    .dwattr $C$DW$T$127, DW_AT_decl_file("C:/ti/ccs1200/ccs/tools/compiler/ti-cgt-msp430_21.6.0.LT
MSP430 Assembler PC v21.6.0 Fri Mar 24 22:26:35 2023

Copyright (c) 2003-2018 Texas Instruments Incorporated
C:\Users\crs0074\AppData\Local\Temp\{1CDDF0A4-DD4F-44E4-962C-299E57A83445} PAGE   50

    2443                    .dwattr $C$DW$T$127, DW_AT_decl_line(0x8d)
    2444                    .dwattr $C$DW$T$127, DW_AT_decl_column(0x12)
    2445            
    2446            $C$DW$T$128     .dwtag  DW_TAG_typedef
    2447                    .dwattr $C$DW$T$128, DW_AT_name("__off_t")
    2448                    .dwattr $C$DW$T$128, DW_AT_type(*$C$DW$T$127)
    2449                    .dwattr $C$DW$T$128, DW_AT_language(DW_LANG_C)
    2450                    .dwattr $C$DW$T$128, DW_AT_decl_file("C:/ti/ccs1200/ccs/tools/compiler/ti-cgt-msp430_21.6.0.LT
    2451                    .dwattr $C$DW$T$128, DW_AT_decl_line(0x3e)
    2452                    .dwattr $C$DW$T$128, DW_AT_decl_column(0x18)
    2453            
    2454            $C$DW$T$129     .dwtag  DW_TAG_typedef
    2455                    .dwattr $C$DW$T$129, DW_AT_name("fpos_t")
    2456                    .dwattr $C$DW$T$129, DW_AT_type(*$C$DW$T$12)
    2457                    .dwattr $C$DW$T$129, DW_AT_language(DW_LANG_C)
    2458                    .dwattr $C$DW$T$129, DW_AT_decl_file("C:/ti/ccs1200/ccs/tools/compiler/ti-cgt-msp430_21.6.0.LT
    2459                    .dwattr $C$DW$T$129, DW_AT_decl_line(0x6b)
    2460                    .dwattr $C$DW$T$129, DW_AT_decl_column(0x0e)
    2461            
    2462            $C$DW$T$130     .dwtag  DW_TAG_typedef
    2463                    .dwattr $C$DW$T$130, DW_AT_name("off_t")
    2464                    .dwattr $C$DW$T$130, DW_AT_type(*$C$DW$T$12)
    2465                    .dwattr $C$DW$T$130, DW_AT_language(DW_LANG_C)
    2466                    .dwattr $C$DW$T$130, DW_AT_decl_file("C:/ti/ccs1200/ccs/tools/compiler/ti-cgt-msp430_21.6.0.LT
    2467                    .dwattr $C$DW$T$130, DW_AT_decl_line(0x74)
    2468                    .dwattr $C$DW$T$130, DW_AT_decl_column(0x0e)
    2469            
    2470            $C$DW$T$13      .dwtag  DW_TAG_base_type
    2471                    .dwattr $C$DW$T$13, DW_AT_encoding(DW_ATE_unsigned)
    2472                    .dwattr $C$DW$T$13, DW_AT_name("unsigned long")
    2473                    .dwattr $C$DW$T$13, DW_AT_byte_size(0x04)
    2474            
    2475            $C$DW$T$131     .dwtag  DW_TAG_typedef
    2476                    .dwattr $C$DW$T$131, DW_AT_name("__uint32_t")
    2477                    .dwattr $C$DW$T$131, DW_AT_type(*$C$DW$T$13)
    2478                    .dwattr $C$DW$T$131, DW_AT_language(DW_LANG_C)
    2479                    .dwattr $C$DW$T$131, DW_AT_decl_file("C:/ti/ccs1200/ccs/tools/compiler/ti-cgt-msp430_21.6.0.LT
    2480                    .dwattr $C$DW$T$131, DW_AT_decl_line(0x3b)
    2481                    .dwattr $C$DW$T$131, DW_AT_decl_column(0x18)
    2482            
    2483            $C$DW$T$132     .dwtag  DW_TAG_typedef
    2484                    .dwattr $C$DW$T$132, DW_AT_name("__clock_t")
    2485                    .dwattr $C$DW$T$132, DW_AT_type(*$C$DW$T$131)
    2486                    .dwattr $C$DW$T$132, DW_AT_language(DW_LANG_C)
    2487                    .dwattr $C$DW$T$132, DW_AT_decl_file("C:/ti/ccs1200/ccs/tools/compiler/ti-cgt-msp430_21.6.0.LT
    2488                    .dwattr $C$DW$T$132, DW_AT_decl_line(0x4a)
    2489                    .dwattr $C$DW$T$132, DW_AT_decl_column(0x14)
    2490            
    2491            $C$DW$T$133     .dwtag  DW_TAG_typedef
    2492                    .dwattr $C$DW$T$133, DW_AT_name("__fflags_t")
    2493                    .dwattr $C$DW$T$133, DW_AT_type(*$C$DW$T$131)
    2494                    .dwattr $C$DW$T$133, DW_AT_language(DW_LANG_C)
    2495                    .dwattr $C$DW$T$133, DW_AT_decl_file("C:/ti/ccs1200/ccs/tools/compiler/ti-cgt-msp430_21.6.0.LT
    2496                    .dwattr $C$DW$T$133, DW_AT_decl_line(0x32)
    2497                    .dwattr $C$DW$T$133, DW_AT_decl_column(0x14)
MSP430 Assembler PC v21.6.0 Fri Mar 24 22:26:35 2023

Copyright (c) 2003-2018 Texas Instruments Incorporated
C:\Users\crs0074\AppData\Local\Temp\{1CDDF0A4-DD4F-44E4-962C-299E57A83445} PAGE   51

    2498            
    2499            $C$DW$T$134     .dwtag  DW_TAG_typedef
    2500                    .dwattr $C$DW$T$134, DW_AT_name("__fixpt_t")
    2501                    .dwattr $C$DW$T$134, DW_AT_type(*$C$DW$T$131)
    2502                    .dwattr $C$DW$T$134, DW_AT_language(DW_LANG_C)
    2503                    .dwattr $C$DW$T$134, DW_AT_decl_file("C:/ti/ccs1200/ccs/tools/compiler/ti-cgt-msp430_21.6.0.LT
    2504                    .dwattr $C$DW$T$134, DW_AT_decl_line(0x81)
    2505                    .dwattr $C$DW$T$134, DW_AT_decl_column(0x14)
    2506            
    2507            $C$DW$T$135     .dwtag  DW_TAG_typedef
    2508                    .dwattr $C$DW$T$135, DW_AT_name("__gid_t")
    2509                    .dwattr $C$DW$T$135, DW_AT_type(*$C$DW$T$131)
    2510                    .dwattr $C$DW$T$135, DW_AT_language(DW_LANG_C)
    2511                    .dwattr $C$DW$T$135, DW_AT_decl_file("C:/ti/ccs1200/ccs/tools/compiler/ti-cgt-msp430_21.6.0.LT
    2512                    .dwattr $C$DW$T$135, DW_AT_decl_line(0x35)
    2513                    .dwattr $C$DW$T$135, DW_AT_decl_column(0x14)
    2514            
    2515            $C$DW$T$136     .dwtag  DW_TAG_typedef
    2516                    .dwattr $C$DW$T$136, DW_AT_name("__socklen_t")
    2517                    .dwattr $C$DW$T$136, DW_AT_type(*$C$DW$T$131)
    2518                    .dwattr $C$DW$T$136, DW_AT_language(DW_LANG_C)
    2519                    .dwattr $C$DW$T$136, DW_AT_decl_file("C:/ti/ccs1200/ccs/tools/compiler/ti-cgt-msp430_21.6.0.LT
    2520                    .dwattr $C$DW$T$136, DW_AT_decl_line(0x49)
    2521                    .dwattr $C$DW$T$136, DW_AT_decl_column(0x14)
    2522            
    2523            $C$DW$T$137     .dwtag  DW_TAG_typedef
    2524                    .dwattr $C$DW$T$137, DW_AT_name("__time_t")
    2525                    .dwattr $C$DW$T$137, DW_AT_type(*$C$DW$T$131)
    2526                    .dwattr $C$DW$T$137, DW_AT_language(DW_LANG_C)
    2527                    .dwattr $C$DW$T$137, DW_AT_decl_file("C:/ti/ccs1200/ccs/tools/compiler/ti-cgt-msp430_21.6.0.LT
    2528                    .dwattr $C$DW$T$137, DW_AT_decl_line(0x66)
    2529                    .dwattr $C$DW$T$137, DW_AT_decl_column(0x19)
    2530            
    2531            $C$DW$T$138     .dwtag  DW_TAG_typedef
    2532                    .dwattr $C$DW$T$138, DW_AT_name("__uid_t")
    2533                    .dwattr $C$DW$T$138, DW_AT_type(*$C$DW$T$131)
    2534                    .dwattr $C$DW$T$138, DW_AT_language(DW_LANG_C)
    2535                    .dwattr $C$DW$T$138, DW_AT_decl_file("C:/ti/ccs1200/ccs/tools/compiler/ti-cgt-msp430_21.6.0.LT
    2536                    .dwattr $C$DW$T$138, DW_AT_decl_line(0x4d)
    2537                    .dwattr $C$DW$T$138, DW_AT_decl_column(0x14)
    2538            
    2539            $C$DW$T$139     .dwtag  DW_TAG_typedef
    2540                    .dwattr $C$DW$T$139, DW_AT_name("__uint_fast32_t")
    2541                    .dwattr $C$DW$T$139, DW_AT_type(*$C$DW$T$131)
    2542                    .dwattr $C$DW$T$139, DW_AT_language(DW_LANG_C)
    2543                    .dwattr $C$DW$T$139, DW_AT_decl_file("C:/ti/ccs1200/ccs/tools/compiler/ti-cgt-msp430_21.6.0.LT
    2544                    .dwattr $C$DW$T$139, DW_AT_decl_line(0x72)
    2545                    .dwattr $C$DW$T$139, DW_AT_decl_column(0x14)
    2546            
    2547            $C$DW$T$140     .dwtag  DW_TAG_typedef
    2548                    .dwattr $C$DW$T$140, DW_AT_name("uint_fast32_t")
    2549                    .dwattr $C$DW$T$140, DW_AT_type(*$C$DW$T$139)
    2550                    .dwattr $C$DW$T$140, DW_AT_language(DW_LANG_C)
    2551                    .dwattr $C$DW$T$140, DW_AT_decl_file("C:/ti/ccs1200/ccs/tools/compiler/ti-cgt-msp430_21.6.0.LT
    2552                    .dwattr $C$DW$T$140, DW_AT_decl_line(0x3b)
MSP430 Assembler PC v21.6.0 Fri Mar 24 22:26:35 2023

Copyright (c) 2003-2018 Texas Instruments Incorporated
C:\Users\crs0074\AppData\Local\Temp\{1CDDF0A4-DD4F-44E4-962C-299E57A83445} PAGE   52

    2553                    .dwattr $C$DW$T$140, DW_AT_decl_column(0x1a)
    2554            
    2555            $C$DW$T$141     .dwtag  DW_TAG_typedef
    2556                    .dwattr $C$DW$T$141, DW_AT_name("__uint_least32_t")
    2557                    .dwattr $C$DW$T$141, DW_AT_type(*$C$DW$T$131)
    2558                    .dwattr $C$DW$T$141, DW_AT_language(DW_LANG_C)
    2559                    .dwattr $C$DW$T$141, DW_AT_decl_file("C:/ti/ccs1200/ccs/tools/compiler/ti-cgt-msp430_21.6.0.LT
    2560                    .dwattr $C$DW$T$141, DW_AT_decl_line(0x76)
    2561                    .dwattr $C$DW$T$141, DW_AT_decl_column(0x14)
    2562            
    2563            $C$DW$T$142     .dwtag  DW_TAG_typedef
    2564                    .dwattr $C$DW$T$142, DW_AT_name("__char32_t")
    2565                    .dwattr $C$DW$T$142, DW_AT_type(*$C$DW$T$141)
    2566                    .dwattr $C$DW$T$142, DW_AT_language(DW_LANG_C)
    2567                    .dwattr $C$DW$T$142, DW_AT_decl_file("C:/ti/ccs1200/ccs/tools/compiler/ti-cgt-msp430_21.6.0.LT
    2568                    .dwattr $C$DW$T$142, DW_AT_decl_line(0x72)
    2569                    .dwattr $C$DW$T$142, DW_AT_decl_column(0x1a)
    2570            
    2571            $C$DW$T$143     .dwtag  DW_TAG_typedef
    2572                    .dwattr $C$DW$T$143, DW_AT_name("uint_least32_t")
    2573                    .dwattr $C$DW$T$143, DW_AT_type(*$C$DW$T$141)
    2574                    .dwattr $C$DW$T$143, DW_AT_language(DW_LANG_C)
    2575                    .dwattr $C$DW$T$143, DW_AT_decl_file("C:/ti/ccs1200/ccs/tools/compiler/ti-cgt-msp430_21.6.0.LT
    2576                    .dwattr $C$DW$T$143, DW_AT_decl_line(0x31)
    2577                    .dwattr $C$DW$T$143, DW_AT_decl_column(0x1a)
    2578            
    2579            $C$DW$T$144     .dwtag  DW_TAG_typedef
    2580                    .dwattr $C$DW$T$144, DW_AT_name("__uintfptr_t")
    2581                    .dwattr $C$DW$T$144, DW_AT_type(*$C$DW$T$131)
    2582                    .dwattr $C$DW$T$144, DW_AT_language(DW_LANG_C)
    2583                    .dwattr $C$DW$T$144, DW_AT_decl_file("C:/ti/ccs1200/ccs/tools/compiler/ti-cgt-msp430_21.6.0.LT
    2584                    .dwattr $C$DW$T$144, DW_AT_decl_line(0x68)
    2585                    .dwattr $C$DW$T$144, DW_AT_decl_column(0x14)
    2586            
    2587            $C$DW$T$145     .dwtag  DW_TAG_typedef
    2588                    .dwattr $C$DW$T$145, DW_AT_name("__uintptr_t")
    2589                    .dwattr $C$DW$T$145, DW_AT_type(*$C$DW$T$131)
    2590                    .dwattr $C$DW$T$145, DW_AT_language(DW_LANG_C)
    2591                    .dwattr $C$DW$T$145, DW_AT_decl_file("C:/ti/ccs1200/ccs/tools/compiler/ti-cgt-msp430_21.6.0.LT
    2592                    .dwattr $C$DW$T$145, DW_AT_decl_line(0x6b)
    2593                    .dwattr $C$DW$T$145, DW_AT_decl_column(0x14)
    2594            
    2595            $C$DW$T$146     .dwtag  DW_TAG_typedef
    2596                    .dwattr $C$DW$T$146, DW_AT_name("uintptr_t")
    2597                    .dwattr $C$DW$T$146, DW_AT_type(*$C$DW$T$145)
    2598                    .dwattr $C$DW$T$146, DW_AT_language(DW_LANG_C)
    2599                    .dwattr $C$DW$T$146, DW_AT_decl_file("C:/ti/ccs1200/ccs/tools/compiler/ti-cgt-msp430_21.6.0.LT
    2600                    .dwattr $C$DW$T$146, DW_AT_decl_line(0x54)
    2601                    .dwattr $C$DW$T$146, DW_AT_decl_column(0x16)
    2602            
    2603            $C$DW$T$147     .dwtag  DW_TAG_typedef
    2604                    .dwattr $C$DW$T$147, DW_AT_name("__vm_offset_t")
    2605                    .dwattr $C$DW$T$147, DW_AT_type(*$C$DW$T$131)
    2606                    .dwattr $C$DW$T$147, DW_AT_language(DW_LANG_C)
    2607                    .dwattr $C$DW$T$147, DW_AT_decl_file("C:/ti/ccs1200/ccs/tools/compiler/ti-cgt-msp430_21.6.0.LT
MSP430 Assembler PC v21.6.0 Fri Mar 24 22:26:35 2023

Copyright (c) 2003-2018 Texas Instruments Incorporated
C:\Users\crs0074\AppData\Local\Temp\{1CDDF0A4-DD4F-44E4-962C-299E57A83445} PAGE   53

    2608                    .dwattr $C$DW$T$147, DW_AT_decl_line(0x79)
    2609                    .dwattr $C$DW$T$147, DW_AT_decl_column(0x14)
    2610            
    2611            $C$DW$T$148     .dwtag  DW_TAG_typedef
    2612                    .dwattr $C$DW$T$148, DW_AT_name("__vm_paddr_t")
    2613                    .dwattr $C$DW$T$148, DW_AT_type(*$C$DW$T$131)
    2614                    .dwattr $C$DW$T$148, DW_AT_language(DW_LANG_C)
    2615                    .dwattr $C$DW$T$148, DW_AT_decl_file("C:/ti/ccs1200/ccs/tools/compiler/ti-cgt-msp430_21.6.0.LT
    2616                    .dwattr $C$DW$T$148, DW_AT_decl_line(0x7a)
    2617                    .dwattr $C$DW$T$148, DW_AT_decl_column(0x14)
    2618            
    2619            $C$DW$T$149     .dwtag  DW_TAG_typedef
    2620                    .dwattr $C$DW$T$149, DW_AT_name("__vm_size_t")
    2621                    .dwattr $C$DW$T$149, DW_AT_type(*$C$DW$T$131)
    2622                    .dwattr $C$DW$T$149, DW_AT_language(DW_LANG_C)
    2623                    .dwattr $C$DW$T$149, DW_AT_decl_file("C:/ti/ccs1200/ccs/tools/compiler/ti-cgt-msp430_21.6.0.LT
    2624                    .dwattr $C$DW$T$149, DW_AT_decl_line(0x7b)
    2625                    .dwattr $C$DW$T$149, DW_AT_decl_column(0x14)
    2626            
    2627            $C$DW$T$150     .dwtag  DW_TAG_typedef
    2628                    .dwattr $C$DW$T$150, DW_AT_name("uint32_t")
    2629                    .dwattr $C$DW$T$150, DW_AT_type(*$C$DW$T$131)
    2630                    .dwattr $C$DW$T$150, DW_AT_language(DW_LANG_C)
    2631                    .dwattr $C$DW$T$150, DW_AT_decl_file("C:/ti/ccs1200/ccs/tools/compiler/ti-cgt-msp430_21.6.0.LT
    2632                    .dwattr $C$DW$T$150, DW_AT_decl_line(0x46)
    2633                    .dwattr $C$DW$T$150, DW_AT_decl_column(0x15)
    2634            
    2635            $C$DW$T$14      .dwtag  DW_TAG_base_type
    2636                    .dwattr $C$DW$T$14, DW_AT_encoding(DW_ATE_signed)
    2637                    .dwattr $C$DW$T$14, DW_AT_name("long long")
    2638                    .dwattr $C$DW$T$14, DW_AT_byte_size(0x08)
    2639            
    2640            $C$DW$T$151     .dwtag  DW_TAG_typedef
    2641                    .dwattr $C$DW$T$151, DW_AT_name("__int64_t")
    2642                    .dwattr $C$DW$T$151, DW_AT_type(*$C$DW$T$14)
    2643                    .dwattr $C$DW$T$151, DW_AT_language(DW_LANG_C)
    2644                    .dwattr $C$DW$T$151, DW_AT_decl_file("C:/ti/ccs1200/ccs/tools/compiler/ti-cgt-msp430_21.6.0.LT
    2645                    .dwattr $C$DW$T$151, DW_AT_decl_line(0x40)
    2646                    .dwattr $C$DW$T$151, DW_AT_decl_column(0x14)
    2647            
    2648            $C$DW$T$152     .dwtag  DW_TAG_typedef
    2649                    .dwattr $C$DW$T$152, DW_AT_name("__blkcnt_t")
    2650                    .dwattr $C$DW$T$152, DW_AT_type(*$C$DW$T$151)
    2651                    .dwattr $C$DW$T$152, DW_AT_language(DW_LANG_C)
    2652                    .dwattr $C$DW$T$152, DW_AT_decl_file("C:/ti/ccs1200/ccs/tools/compiler/ti-cgt-msp430_21.6.0.LT
    2653                    .dwattr $C$DW$T$152, DW_AT_decl_line(0x30)
    2654                    .dwattr $C$DW$T$152, DW_AT_decl_column(0x13)
    2655            
    2656            $C$DW$T$153     .dwtag  DW_TAG_typedef
    2657                    .dwattr $C$DW$T$153, DW_AT_name("__id_t")
    2658                    .dwattr $C$DW$T$153, DW_AT_type(*$C$DW$T$151)
    2659                    .dwattr $C$DW$T$153, DW_AT_language(DW_LANG_C)
    2660                    .dwattr $C$DW$T$153, DW_AT_decl_file("C:/ti/ccs1200/ccs/tools/compiler/ti-cgt-msp430_21.6.0.LT
    2661                    .dwattr $C$DW$T$153, DW_AT_decl_line(0x36)
    2662                    .dwattr $C$DW$T$153, DW_AT_decl_column(0x13)
MSP430 Assembler PC v21.6.0 Fri Mar 24 22:26:35 2023

Copyright (c) 2003-2018 Texas Instruments Incorporated
C:\Users\crs0074\AppData\Local\Temp\{1CDDF0A4-DD4F-44E4-962C-299E57A83445} PAGE   54

    2663            
    2664            $C$DW$T$154     .dwtag  DW_TAG_typedef
    2665                    .dwattr $C$DW$T$154, DW_AT_name("__int_fast64_t")
    2666                    .dwattr $C$DW$T$154, DW_AT_type(*$C$DW$T$151)
    2667                    .dwattr $C$DW$T$154, DW_AT_language(DW_LANG_C)
    2668                    .dwattr $C$DW$T$154, DW_AT_decl_file("C:/ti/ccs1200/ccs/tools/compiler/ti-cgt-msp430_21.6.0.LT
    2669                    .dwattr $C$DW$T$154, DW_AT_decl_line(0x59)
    2670                    .dwattr $C$DW$T$154, DW_AT_decl_column(0x13)
    2671            
    2672            $C$DW$T$155     .dwtag  DW_TAG_typedef
    2673                    .dwattr $C$DW$T$155, DW_AT_name("int_fast64_t")
    2674                    .dwattr $C$DW$T$155, DW_AT_type(*$C$DW$T$154)
    2675                    .dwattr $C$DW$T$155, DW_AT_language(DW_LANG_C)
    2676                    .dwattr $C$DW$T$155, DW_AT_decl_file("C:/ti/ccs1200/ccs/tools/compiler/ti-cgt-msp430_21.6.0.LT
    2677                    .dwattr $C$DW$T$155, DW_AT_decl_line(0x37)
    2678                    .dwattr $C$DW$T$155, DW_AT_decl_column(0x19)
    2679            
    2680            $C$DW$T$156     .dwtag  DW_TAG_typedef
    2681                    .dwattr $C$DW$T$156, DW_AT_name("__int_least64_t")
    2682                    .dwattr $C$DW$T$156, DW_AT_type(*$C$DW$T$151)
    2683                    .dwattr $C$DW$T$156, DW_AT_language(DW_LANG_C)
    2684                    .dwattr $C$DW$T$156, DW_AT_decl_file("C:/ti/ccs1200/ccs/tools/compiler/ti-cgt-msp430_21.6.0.LT
    2685                    .dwattr $C$DW$T$156, DW_AT_decl_line(0x5d)
    2686                    .dwattr $C$DW$T$156, DW_AT_decl_column(0x13)
    2687            
    2688            $C$DW$T$157     .dwtag  DW_TAG_typedef
    2689                    .dwattr $C$DW$T$157, DW_AT_name("int_least64_t")
    2690                    .dwattr $C$DW$T$157, DW_AT_type(*$C$DW$T$156)
    2691                    .dwattr $C$DW$T$157, DW_AT_language(DW_LANG_C)
    2692                    .dwattr $C$DW$T$157, DW_AT_decl_file("C:/ti/ccs1200/ccs/tools/compiler/ti-cgt-msp430_21.6.0.LT
    2693                    .dwattr $C$DW$T$157, DW_AT_decl_line(0x2d)
    2694                    .dwattr $C$DW$T$157, DW_AT_decl_column(0x1a)
    2695            
    2696            $C$DW$T$158     .dwtag  DW_TAG_typedef
    2697                    .dwattr $C$DW$T$158, DW_AT_name("__intmax_t")
    2698                    .dwattr $C$DW$T$158, DW_AT_type(*$C$DW$T$151)
    2699                    .dwattr $C$DW$T$158, DW_AT_language(DW_LANG_C)
    2700                    .dwattr $C$DW$T$158, DW_AT_decl_file("C:/ti/ccs1200/ccs/tools/compiler/ti-cgt-msp430_21.6.0.LT
    2701                    .dwattr $C$DW$T$158, DW_AT_decl_line(0x4f)
    2702                    .dwattr $C$DW$T$158, DW_AT_decl_column(0x13)
    2703            
    2704            $C$DW$T$159     .dwtag  DW_TAG_typedef
    2705                    .dwattr $C$DW$T$159, DW_AT_name("intmax_t")
    2706                    .dwattr $C$DW$T$159, DW_AT_type(*$C$DW$T$158)
    2707                    .dwattr $C$DW$T$159, DW_AT_language(DW_LANG_C)
    2708                    .dwattr $C$DW$T$159, DW_AT_decl_file("C:/ti/ccs1200/ccs/tools/compiler/ti-cgt-msp430_21.6.0.LT
    2709                    .dwattr $C$DW$T$159, DW_AT_decl_line(0x58)
    2710                    .dwattr $C$DW$T$159, DW_AT_decl_column(0x15)
    2711            
    2712            $C$DW$T$160     .dwtag  DW_TAG_typedef
    2713                    .dwattr $C$DW$T$160, DW_AT_name("__off64_t")
    2714                    .dwattr $C$DW$T$160, DW_AT_type(*$C$DW$T$151)
    2715                    .dwattr $C$DW$T$160, DW_AT_language(DW_LANG_C)
    2716                    .dwattr $C$DW$T$160, DW_AT_decl_file("C:/ti/ccs1200/ccs/tools/compiler/ti-cgt-msp430_21.6.0.LT
    2717                    .dwattr $C$DW$T$160, DW_AT_decl_line(0x3f)
MSP430 Assembler PC v21.6.0 Fri Mar 24 22:26:35 2023

Copyright (c) 2003-2018 Texas Instruments Incorporated
C:\Users\crs0074\AppData\Local\Temp\{1CDDF0A4-DD4F-44E4-962C-299E57A83445} PAGE   55

    2718                    .dwattr $C$DW$T$160, DW_AT_decl_column(0x13)
    2719            
    2720            $C$DW$T$161     .dwtag  DW_TAG_typedef
    2721                    .dwattr $C$DW$T$161, DW_AT_name("__rlim_t")
    2722                    .dwattr $C$DW$T$161, DW_AT_type(*$C$DW$T$151)
    2723                    .dwattr $C$DW$T$161, DW_AT_language(DW_LANG_C)
    2724                    .dwattr $C$DW$T$161, DW_AT_decl_file("C:/ti/ccs1200/ccs/tools/compiler/ti-cgt-msp430_21.6.0.LT
    2725                    .dwattr $C$DW$T$161, DW_AT_decl_line(0x41)
    2726                    .dwattr $C$DW$T$161, DW_AT_decl_column(0x13)
    2727            
    2728            $C$DW$T$162     .dwtag  DW_TAG_typedef
    2729                    .dwattr $C$DW$T$162, DW_AT_name("int64_t")
    2730                    .dwattr $C$DW$T$162, DW_AT_type(*$C$DW$T$151)
    2731                    .dwattr $C$DW$T$162, DW_AT_language(DW_LANG_C)
    2732                    .dwattr $C$DW$T$162, DW_AT_decl_file("C:/ti/ccs1200/ccs/tools/compiler/ti-cgt-msp430_21.6.0.LT
    2733                    .dwattr $C$DW$T$162, DW_AT_decl_line(0x35)
    2734                    .dwattr $C$DW$T$162, DW_AT_decl_column(0x14)
    2735            
    2736            $C$DW$T$15      .dwtag  DW_TAG_base_type
    2737                    .dwattr $C$DW$T$15, DW_AT_encoding(DW_ATE_unsigned)
    2738                    .dwattr $C$DW$T$15, DW_AT_name("unsigned long long")
    2739                    .dwattr $C$DW$T$15, DW_AT_byte_size(0x08)
    2740            
    2741            $C$DW$T$163     .dwtag  DW_TAG_typedef
    2742                    .dwattr $C$DW$T$163, DW_AT_name("__uint64_t")
    2743                    .dwattr $C$DW$T$163, DW_AT_type(*$C$DW$T$15)
    2744                    .dwattr $C$DW$T$163, DW_AT_language(DW_LANG_C)
    2745                    .dwattr $C$DW$T$163, DW_AT_decl_file("C:/ti/ccs1200/ccs/tools/compiler/ti-cgt-msp430_21.6.0.LT
    2746                    .dwattr $C$DW$T$163, DW_AT_decl_line(0x45)
    2747                    .dwattr $C$DW$T$163, DW_AT_decl_column(0x1c)
    2748            
    2749            $C$DW$T$164     .dwtag  DW_TAG_typedef
    2750                    .dwattr $C$DW$T$164, DW_AT_name("__dev_t")
    2751                    .dwattr $C$DW$T$164, DW_AT_type(*$C$DW$T$163)
    2752                    .dwattr $C$DW$T$164, DW_AT_language(DW_LANG_C)
    2753                    .dwattr $C$DW$T$164, DW_AT_decl_file("C:/ti/ccs1200/ccs/tools/compiler/ti-cgt-msp430_21.6.0.LT
    2754                    .dwattr $C$DW$T$164, DW_AT_decl_line(0x7f)
    2755                    .dwattr $C$DW$T$164, DW_AT_decl_column(0x14)
    2756            
    2757            $C$DW$T$165     .dwtag  DW_TAG_typedef
    2758                    .dwattr $C$DW$T$165, DW_AT_name("__fsblkcnt_t")
    2759                    .dwattr $C$DW$T$165, DW_AT_type(*$C$DW$T$163)
    2760                    .dwattr $C$DW$T$165, DW_AT_language(DW_LANG_C)
    2761                    .dwattr $C$DW$T$165, DW_AT_decl_file("C:/ti/ccs1200/ccs/tools/compiler/ti-cgt-msp430_21.6.0.LT
    2762                    .dwattr $C$DW$T$165, DW_AT_decl_line(0x33)
    2763                    .dwattr $C$DW$T$165, DW_AT_decl_column(0x14)
    2764            
    2765            $C$DW$T$166     .dwtag  DW_TAG_typedef
    2766                    .dwattr $C$DW$T$166, DW_AT_name("__fsfilcnt_t")
    2767                    .dwattr $C$DW$T$166, DW_AT_type(*$C$DW$T$163)
    2768                    .dwattr $C$DW$T$166, DW_AT_language(DW_LANG_C)
    2769                    .dwattr $C$DW$T$166, DW_AT_decl_file("C:/ti/ccs1200/ccs/tools/compiler/ti-cgt-msp430_21.6.0.LT
    2770                    .dwattr $C$DW$T$166, DW_AT_decl_line(0x34)
    2771                    .dwattr $C$DW$T$166, DW_AT_decl_column(0x14)
    2772            
MSP430 Assembler PC v21.6.0 Fri Mar 24 22:26:35 2023

Copyright (c) 2003-2018 Texas Instruments Incorporated
C:\Users\crs0074\AppData\Local\Temp\{1CDDF0A4-DD4F-44E4-962C-299E57A83445} PAGE   56

    2773            $C$DW$T$167     .dwtag  DW_TAG_typedef
    2774                    .dwattr $C$DW$T$167, DW_AT_name("__ino_t")
    2775                    .dwattr $C$DW$T$167, DW_AT_type(*$C$DW$T$163)
    2776                    .dwattr $C$DW$T$167, DW_AT_language(DW_LANG_C)
    2777                    .dwattr $C$DW$T$167, DW_AT_decl_file("C:/ti/ccs1200/ccs/tools/compiler/ti-cgt-msp430_21.6.0.LT
    2778                    .dwattr $C$DW$T$167, DW_AT_decl_line(0x37)
    2779                    .dwattr $C$DW$T$167, DW_AT_decl_column(0x14)
    2780            
    2781            $C$DW$T$168     .dwtag  DW_TAG_typedef
    2782                    .dwattr $C$DW$T$168, DW_AT_name("__nlink_t")
    2783                    .dwattr $C$DW$T$168, DW_AT_type(*$C$DW$T$163)
    2784                    .dwattr $C$DW$T$168, DW_AT_language(DW_LANG_C)
    2785                    .dwattr $C$DW$T$168, DW_AT_decl_file("C:/ti/ccs1200/ccs/tools/compiler/ti-cgt-msp430_21.6.0.LT
    2786                    .dwattr $C$DW$T$168, DW_AT_decl_line(0x3d)
    2787                    .dwattr $C$DW$T$168, DW_AT_decl_column(0x14)
    2788            
    2789            $C$DW$T$169     .dwtag  DW_TAG_typedef
    2790                    .dwattr $C$DW$T$169, DW_AT_name("__uint_fast64_t")
    2791                    .dwattr $C$DW$T$169, DW_AT_type(*$C$DW$T$163)
    2792                    .dwattr $C$DW$T$169, DW_AT_language(DW_LANG_C)
    2793                    .dwattr $C$DW$T$169, DW_AT_decl_file("C:/ti/ccs1200/ccs/tools/compiler/ti-cgt-msp430_21.6.0.LT
    2794                    .dwattr $C$DW$T$169, DW_AT_decl_line(0x73)
    2795                    .dwattr $C$DW$T$169, DW_AT_decl_column(0x14)
    2796            
    2797            $C$DW$T$170     .dwtag  DW_TAG_typedef
    2798                    .dwattr $C$DW$T$170, DW_AT_name("uint_fast64_t")
    2799                    .dwattr $C$DW$T$170, DW_AT_type(*$C$DW$T$169)
    2800                    .dwattr $C$DW$T$170, DW_AT_language(DW_LANG_C)
    2801                    .dwattr $C$DW$T$170, DW_AT_decl_file("C:/ti/ccs1200/ccs/tools/compiler/ti-cgt-msp430_21.6.0.LT
    2802                    .dwattr $C$DW$T$170, DW_AT_decl_line(0x3c)
    2803                    .dwattr $C$DW$T$170, DW_AT_decl_column(0x1a)
    2804            
    2805            $C$DW$T$171     .dwtag  DW_TAG_typedef
    2806                    .dwattr $C$DW$T$171, DW_AT_name("__uint_least64_t")
    2807                    .dwattr $C$DW$T$171, DW_AT_type(*$C$DW$T$163)
    2808                    .dwattr $C$DW$T$171, DW_AT_language(DW_LANG_C)
    2809                    .dwattr $C$DW$T$171, DW_AT_decl_file("C:/ti/ccs1200/ccs/tools/compiler/ti-cgt-msp430_21.6.0.LT
    2810                    .dwattr $C$DW$T$171, DW_AT_decl_line(0x77)
    2811                    .dwattr $C$DW$T$171, DW_AT_decl_column(0x14)
    2812            
    2813            $C$DW$T$172     .dwtag  DW_TAG_typedef
    2814                    .dwattr $C$DW$T$172, DW_AT_name("uint_least64_t")
    2815                    .dwattr $C$DW$T$172, DW_AT_type(*$C$DW$T$171)
    2816                    .dwattr $C$DW$T$172, DW_AT_language(DW_LANG_C)
    2817                    .dwattr $C$DW$T$172, DW_AT_decl_file("C:/ti/ccs1200/ccs/tools/compiler/ti-cgt-msp430_21.6.0.LT
    2818                    .dwattr $C$DW$T$172, DW_AT_decl_line(0x32)
    2819                    .dwattr $C$DW$T$172, DW_AT_decl_column(0x1a)
    2820            
    2821            $C$DW$T$173     .dwtag  DW_TAG_typedef
    2822                    .dwattr $C$DW$T$173, DW_AT_name("__uintmax_t")
    2823                    .dwattr $C$DW$T$173, DW_AT_type(*$C$DW$T$163)
    2824                    .dwattr $C$DW$T$173, DW_AT_language(DW_LANG_C)
    2825                    .dwattr $C$DW$T$173, DW_AT_decl_file("C:/ti/ccs1200/ccs/tools/compiler/ti-cgt-msp430_21.6.0.LT
    2826                    .dwattr $C$DW$T$173, DW_AT_decl_line(0x69)
    2827                    .dwattr $C$DW$T$173, DW_AT_decl_column(0x14)
MSP430 Assembler PC v21.6.0 Fri Mar 24 22:26:35 2023

Copyright (c) 2003-2018 Texas Instruments Incorporated
C:\Users\crs0074\AppData\Local\Temp\{1CDDF0A4-DD4F-44E4-962C-299E57A83445} PAGE   57

    2828            
    2829            $C$DW$T$174     .dwtag  DW_TAG_typedef
    2830                    .dwattr $C$DW$T$174, DW_AT_name("__rman_res_t")
    2831                    .dwattr $C$DW$T$174, DW_AT_type(*$C$DW$T$173)
    2832                    .dwattr $C$DW$T$174, DW_AT_language(DW_LANG_C)
    2833                    .dwattr $C$DW$T$174, DW_AT_decl_file("C:/ti/ccs1200/ccs/tools/compiler/ti-cgt-msp430_21.6.0.LT
    2834                    .dwattr $C$DW$T$174, DW_AT_decl_line(0x9a)
    2835                    .dwattr $C$DW$T$174, DW_AT_decl_column(0x19)
    2836            
    2837            $C$DW$T$175     .dwtag  DW_TAG_typedef
    2838                    .dwattr $C$DW$T$175, DW_AT_name("uintmax_t")
    2839                    .dwattr $C$DW$T$175, DW_AT_type(*$C$DW$T$173)
    2840                    .dwattr $C$DW$T$175, DW_AT_language(DW_LANG_C)
    2841                    .dwattr $C$DW$T$175, DW_AT_decl_file("C:/ti/ccs1200/ccs/tools/compiler/ti-cgt-msp430_21.6.0.LT
    2842                    .dwattr $C$DW$T$175, DW_AT_decl_line(0x5c)
    2843                    .dwattr $C$DW$T$175, DW_AT_decl_column(0x16)
    2844            
    2845            $C$DW$T$176     .dwtag  DW_TAG_typedef
    2846                    .dwattr $C$DW$T$176, DW_AT_name("uint64_t")
    2847                    .dwattr $C$DW$T$176, DW_AT_type(*$C$DW$T$163)
    2848                    .dwattr $C$DW$T$176, DW_AT_language(DW_LANG_C)
    2849                    .dwattr $C$DW$T$176, DW_AT_decl_file("C:/ti/ccs1200/ccs/tools/compiler/ti-cgt-msp430_21.6.0.LT
    2850                    .dwattr $C$DW$T$176, DW_AT_decl_line(0x4b)
    2851                    .dwattr $C$DW$T$176, DW_AT_decl_column(0x15)
    2852            
    2853            $C$DW$T$16      .dwtag  DW_TAG_base_type
    2854                    .dwattr $C$DW$T$16, DW_AT_encoding(DW_ATE_float)
    2855                    .dwattr $C$DW$T$16, DW_AT_name("float")
    2856                    .dwattr $C$DW$T$16, DW_AT_byte_size(0x04)
    2857            
    2858            $C$DW$T$177     .dwtag  DW_TAG_typedef
    2859                    .dwattr $C$DW$T$177, DW_AT_name("__float_t")
    2860                    .dwattr $C$DW$T$177, DW_AT_type(*$C$DW$T$16)
    2861                    .dwattr $C$DW$T$177, DW_AT_language(DW_LANG_C)
    2862                    .dwattr $C$DW$T$177, DW_AT_decl_file("C:/ti/ccs1200/ccs/tools/compiler/ti-cgt-msp430_21.6.0.LT
    2863                    .dwattr $C$DW$T$177, DW_AT_decl_line(0x4d)
    2864                    .dwattr $C$DW$T$177, DW_AT_decl_column(0x10)
    2865            
    2866            $C$DW$T$17      .dwtag  DW_TAG_base_type
    2867                    .dwattr $C$DW$T$17, DW_AT_encoding(DW_ATE_float)
    2868                    .dwattr $C$DW$T$17, DW_AT_name("double")
    2869                    .dwattr $C$DW$T$17, DW_AT_byte_size(0x08)
    2870            
    2871            $C$DW$T$178     .dwtag  DW_TAG_typedef
    2872                    .dwattr $C$DW$T$178, DW_AT_name("__double_t")
    2873                    .dwattr $C$DW$T$178, DW_AT_type(*$C$DW$T$17)
    2874                    .dwattr $C$DW$T$178, DW_AT_language(DW_LANG_C)
    2875                    .dwattr $C$DW$T$178, DW_AT_decl_file("C:/ti/ccs1200/ccs/tools/compiler/ti-cgt-msp430_21.6.0.LT
    2876                    .dwattr $C$DW$T$178, DW_AT_decl_line(0x4c)
    2877                    .dwattr $C$DW$T$178, DW_AT_decl_column(0x11)
    2878            
    2879            $C$DW$T$18      .dwtag  DW_TAG_base_type
    2880                    .dwattr $C$DW$T$18, DW_AT_encoding(DW_ATE_float)
    2881                    .dwattr $C$DW$T$18, DW_AT_name("long double")
    2882                    .dwattr $C$DW$T$18, DW_AT_byte_size(0x08)
MSP430 Assembler PC v21.6.0 Fri Mar 24 22:26:35 2023

Copyright (c) 2003-2018 Texas Instruments Incorporated
C:\Users\crs0074\AppData\Local\Temp\{1CDDF0A4-DD4F-44E4-962C-299E57A83445} PAGE   58

    2883            
    2884            $C$DW$T$43      .dwtag  DW_TAG_pointer_type
    2885                    .dwattr $C$DW$T$43, DW_AT_type(*$C$DW$T$6)
    2886                    .dwattr $C$DW$T$43, DW_AT_address_class(0x14)
    2887            
    2888            $C$DW$T$182     .dwtag  DW_TAG_typedef
    2889                    .dwattr $C$DW$T$182, DW_AT_name("__va_list")
    2890                    .dwattr $C$DW$T$182, DW_AT_type(*$C$DW$T$43)
    2891                    .dwattr $C$DW$T$182, DW_AT_language(DW_LANG_C)
    2892                    .dwattr $C$DW$T$182, DW_AT_decl_file("C:/ti/ccs1200/ccs/tools/compiler/ti-cgt-msp430_21.6.0.LT
    2893                    .dwattr $C$DW$T$182, DW_AT_decl_line(0x92)
    2894                    .dwattr $C$DW$T$182, DW_AT_decl_column(0x0f)
    2895            
    2896            $C$DW$T$183     .dwtag  DW_TAG_typedef
    2897                    .dwattr $C$DW$T$183, DW_AT_name("va_list")
    2898                    .dwattr $C$DW$T$183, DW_AT_type(*$C$DW$T$182)
    2899                    .dwattr $C$DW$T$183, DW_AT_language(DW_LANG_C)
    2900                    .dwattr $C$DW$T$183, DW_AT_decl_file("C:/ti/ccs1200/ccs/tools/compiler/ti-cgt-msp430_21.6.0.LT
    2901                    .dwattr $C$DW$T$183, DW_AT_decl_line(0x33)
    2902                    .dwattr $C$DW$T$183, DW_AT_decl_column(0x13)
    2903            
    2904            $C$DW$114       .dwtag  DW_TAG_TI_far_type
    2905                    .dwattr $C$DW$114, DW_AT_type(*$C$DW$T$6)
    2906            
    2907            $C$DW$T$66      .dwtag  DW_TAG_const_type
    2908                    .dwattr $C$DW$T$66, DW_AT_type(*$C$DW$114)
    2909            
    2910            $C$DW$T$67      .dwtag  DW_TAG_pointer_type
    2911                    .dwattr $C$DW$T$67, DW_AT_type(*$C$DW$T$66)
    2912                    .dwattr $C$DW$T$67, DW_AT_address_class(0x14)
    2913            
    2914            
    2915            $C$DW$T$184     .dwtag  DW_TAG_array_type
    2916                    .dwattr $C$DW$T$184, DW_AT_type(*$C$DW$T$6)
    2917                    .dwattr $C$DW$T$184, DW_AT_language(DW_LANG_C)
    2918                    .dwattr $C$DW$T$184, DW_AT_byte_size(0x04)
    2919            $C$DW$115       .dwtag  DW_TAG_subrange_type
    2920                    .dwattr $C$DW$115, DW_AT_upper_bound(0x03)
    2921            
    2922                    .dwendtag $C$DW$T$184
    2923            
    2924            
    2925            $C$DW$T$19      .dwtag  DW_TAG_structure_type
    2926                    .dwattr $C$DW$T$19, DW_AT_name("__mq")
    2927                    .dwattr $C$DW$T$19, DW_AT_declaration
    2928                    .dwattr $C$DW$T$19, DW_AT_decl_file("C:/ti/ccs1200/ccs/tools/compiler/ti-cgt-msp430_21.6.0.LTS
    2929                    .dwattr $C$DW$T$19, DW_AT_decl_line(0x4c)
    2930                    .dwattr $C$DW$T$19, DW_AT_decl_column(0x10)
    2931                    .dwendtag $C$DW$T$19
    2932            
    2933            $C$DW$T$187     .dwtag  DW_TAG_pointer_type
    2934                    .dwattr $C$DW$T$187, DW_AT_type(*$C$DW$T$19)
    2935                    .dwattr $C$DW$T$187, DW_AT_address_class(0x14)
    2936            
    2937            $C$DW$T$188     .dwtag  DW_TAG_typedef
MSP430 Assembler PC v21.6.0 Fri Mar 24 22:26:35 2023

Copyright (c) 2003-2018 Texas Instruments Incorporated
C:\Users\crs0074\AppData\Local\Temp\{1CDDF0A4-DD4F-44E4-962C-299E57A83445} PAGE   59

    2938                    .dwattr $C$DW$T$188, DW_AT_name("__mqd_t")
    2939                    .dwattr $C$DW$T$188, DW_AT_type(*$C$DW$T$187)
    2940                    .dwattr $C$DW$T$188, DW_AT_language(DW_LANG_C)
    2941                    .dwattr $C$DW$T$188, DW_AT_decl_file("C:/ti/ccs1200/ccs/tools/compiler/ti-cgt-msp430_21.6.0.LT
    2942                    .dwattr $C$DW$T$188, DW_AT_decl_line(0x4c)
    2943                    .dwattr $C$DW$T$188, DW_AT_decl_column(0x16)
    2944            
    2945            
    2946            $C$DW$T$27      .dwtag  DW_TAG_structure_type
    2947                    .dwattr $C$DW$T$27, DW_AT_name("__sFILE")
    2948                    .dwattr $C$DW$T$27, DW_AT_byte_size(0x14)
    2949            $C$DW$116       .dwtag  DW_TAG_member
    2950                    .dwattr $C$DW$116, DW_AT_type(*$C$DW$T$10)
    2951                    .dwattr $C$DW$116, DW_AT_name("fd")
    2952                    .dwattr $C$DW$116, DW_AT_TI_symbol_name("fd")
    2953                    .dwattr $C$DW$116, DW_AT_data_member_location[DW_OP_plus_uconst 0x0]
    2954                    .dwattr $C$DW$116, DW_AT_accessibility(DW_ACCESS_public)
    2955                    .dwattr $C$DW$116, DW_AT_decl_file("C:/ti/ccs1200/ccs/tools/compiler/ti-cgt-msp430_21.6.0.LTS/
    2956                    .dwattr $C$DW$116, DW_AT_decl_line(0x52)
    2957                    .dwattr $C$DW$116, DW_AT_decl_column(0x0b)
    2958            
    2959            $C$DW$117       .dwtag  DW_TAG_member
    2960                    .dwattr $C$DW$117, DW_AT_type(*$C$DW$T$26)
    2961                    .dwattr $C$DW$117, DW_AT_name("buf")
    2962                    .dwattr $C$DW$117, DW_AT_TI_symbol_name("buf")
    2963                    .dwattr $C$DW$117, DW_AT_data_member_location[DW_OP_plus_uconst 0x2]
    2964                    .dwattr $C$DW$117, DW_AT_accessibility(DW_ACCESS_public)
    2965                    .dwattr $C$DW$117, DW_AT_decl_file("C:/ti/ccs1200/ccs/tools/compiler/ti-cgt-msp430_21.6.0.LTS/
    2966                    .dwattr $C$DW$117, DW_AT_decl_line(0x53)
    2967                    .dwattr $C$DW$117, DW_AT_decl_column(0x16)
    2968            
    2969            $C$DW$118       .dwtag  DW_TAG_member
    2970                    .dwattr $C$DW$118, DW_AT_type(*$C$DW$T$26)
    2971                    .dwattr $C$DW$118, DW_AT_name("pos")
    2972                    .dwattr $C$DW$118, DW_AT_TI_symbol_name("pos")
    2973                    .dwattr $C$DW$118, DW_AT_data_member_location[DW_OP_plus_uconst 0x6]
    2974                    .dwattr $C$DW$118, DW_AT_accessibility(DW_ACCESS_public)
    2975                    .dwattr $C$DW$118, DW_AT_decl_file("C:/ti/ccs1200/ccs/tools/compiler/ti-cgt-msp430_21.6.0.LTS/
    2976                    .dwattr $C$DW$118, DW_AT_decl_line(0x54)
    2977                    .dwattr $C$DW$118, DW_AT_decl_column(0x16)
    2978            
    2979            $C$DW$119       .dwtag  DW_TAG_member
    2980                    .dwattr $C$DW$119, DW_AT_type(*$C$DW$T$26)
    2981                    .dwattr $C$DW$119, DW_AT_name("bufend")
    2982                    .dwattr $C$DW$119, DW_AT_TI_symbol_name("bufend")
    2983                    .dwattr $C$DW$119, DW_AT_data_member_location[DW_OP_plus_uconst 0xa]
    2984                    .dwattr $C$DW$119, DW_AT_accessibility(DW_ACCESS_public)
    2985                    .dwattr $C$DW$119, DW_AT_decl_file("C:/ti/ccs1200/ccs/tools/compiler/ti-cgt-msp430_21.6.0.LTS/
    2986                    .dwattr $C$DW$119, DW_AT_decl_line(0x55)
    2987                    .dwattr $C$DW$119, DW_AT_decl_column(0x16)
    2988            
    2989            $C$DW$120       .dwtag  DW_TAG_member
    2990                    .dwattr $C$DW$120, DW_AT_type(*$C$DW$T$26)
    2991                    .dwattr $C$DW$120, DW_AT_name("buff_stop")
    2992                    .dwattr $C$DW$120, DW_AT_TI_symbol_name("buff_stop")
MSP430 Assembler PC v21.6.0 Fri Mar 24 22:26:35 2023

Copyright (c) 2003-2018 Texas Instruments Incorporated
C:\Users\crs0074\AppData\Local\Temp\{1CDDF0A4-DD4F-44E4-962C-299E57A83445} PAGE   60

    2993                    .dwattr $C$DW$120, DW_AT_data_member_location[DW_OP_plus_uconst 0xe]
    2994                    .dwattr $C$DW$120, DW_AT_accessibility(DW_ACCESS_public)
    2995                    .dwattr $C$DW$120, DW_AT_decl_file("C:/ti/ccs1200/ccs/tools/compiler/ti-cgt-msp430_21.6.0.LTS/
    2996                    .dwattr $C$DW$120, DW_AT_decl_line(0x56)
    2997                    .dwattr $C$DW$120, DW_AT_decl_column(0x16)
    2998            
    2999            $C$DW$121       .dwtag  DW_TAG_member
    3000                    .dwattr $C$DW$121, DW_AT_type(*$C$DW$T$11)
    3001                    .dwattr $C$DW$121, DW_AT_name("flags")
    3002                    .dwattr $C$DW$121, DW_AT_TI_symbol_name("flags")
    3003                    .dwattr $C$DW$121, DW_AT_data_member_location[DW_OP_plus_uconst 0x12]
    3004                    .dwattr $C$DW$121, DW_AT_accessibility(DW_ACCESS_public)
    3005                    .dwattr $C$DW$121, DW_AT_decl_file("C:/ti/ccs1200/ccs/tools/compiler/ti-cgt-msp430_21.6.0.LTS/
    3006                    .dwattr $C$DW$121, DW_AT_decl_line(0x57)
    3007                    .dwattr $C$DW$121, DW_AT_decl_column(0x16)
    3008            
    3009                    .dwattr $C$DW$T$27, DW_AT_decl_file("C:/ti/ccs1200/ccs/tools/compiler/ti-cgt-msp430_21.6.0.LTS
    3010                    .dwattr $C$DW$T$27, DW_AT_decl_line(0x51)
    3011                    .dwattr $C$DW$T$27, DW_AT_decl_column(0x08)
    3012                    .dwendtag $C$DW$T$27
    3013            
    3014            $C$DW$T$189     .dwtag  DW_TAG_typedef
    3015                    .dwattr $C$DW$T$189, DW_AT_name("FILE")
    3016                    .dwattr $C$DW$T$189, DW_AT_type(*$C$DW$T$27)
    3017                    .dwattr $C$DW$T$189, DW_AT_language(DW_LANG_C)
    3018                    .dwattr $C$DW$T$189, DW_AT_decl_file("C:/ti/ccs1200/ccs/tools/compiler/ti-cgt-msp430_21.6.0.LT
    3019                    .dwattr $C$DW$T$189, DW_AT_decl_line(0x5c)
    3020                    .dwattr $C$DW$T$189, DW_AT_decl_column(0x18)
    3021            
    3022            
    3023            $C$DW$T$20      .dwtag  DW_TAG_structure_type
    3024                    .dwattr $C$DW$T$20, DW_AT_name("__timer")
    3025                    .dwattr $C$DW$T$20, DW_AT_declaration
    3026                    .dwattr $C$DW$T$20, DW_AT_decl_file("C:/ti/ccs1200/ccs/tools/compiler/ti-cgt-msp430_21.6.0.LTS
    3027                    .dwattr $C$DW$T$20, DW_AT_decl_line(0x4b)
    3028                    .dwattr $C$DW$T$20, DW_AT_decl_column(0x10)
    3029                    .dwendtag $C$DW$T$20
    3030            
    3031            $C$DW$T$190     .dwtag  DW_TAG_pointer_type
    3032                    .dwattr $C$DW$T$190, DW_AT_type(*$C$DW$T$20)
    3033                    .dwattr $C$DW$T$190, DW_AT_address_class(0x14)
    3034            
    3035            $C$DW$T$191     .dwtag  DW_TAG_typedef
    3036                    .dwattr $C$DW$T$191, DW_AT_name("__timer_t")
    3037                    .dwattr $C$DW$T$191, DW_AT_type(*$C$DW$T$190)
    3038                    .dwattr $C$DW$T$191, DW_AT_language(DW_LANG_C)
    3039                    .dwattr $C$DW$T$191, DW_AT_decl_file("C:/ti/ccs1200/ccs/tools/compiler/ti-cgt-msp430_21.6.0.LT
    3040                    .dwattr $C$DW$T$191, DW_AT_decl_line(0x4b)
    3041                    .dwattr $C$DW$T$191, DW_AT_decl_column(0x19)
    3042            
    3043            
    3044            $C$DW$T$21      .dwtag  DW_TAG_structure_type
    3045                    .dwattr $C$DW$T$21, DW_AT_name("_xlocale")
    3046                    .dwattr $C$DW$T$21, DW_AT_declaration
    3047                    .dwattr $C$DW$T$21, DW_AT_decl_file("C:/ti/ccs1200/ccs/tools/compiler/ti-cgt-msp430_21.6.0.LTS
MSP430 Assembler PC v21.6.0 Fri Mar 24 22:26:35 2023

Copyright (c) 2003-2018 Texas Instruments Incorporated
C:\Users\crs0074\AppData\Local\Temp\{1CDDF0A4-DD4F-44E4-962C-299E57A83445} PAGE   61

    3048                    .dwattr $C$DW$T$21, DW_AT_decl_line(0x21)
    3049                    .dwattr $C$DW$T$21, DW_AT_decl_column(0x10)
    3050                    .dwendtag $C$DW$T$21
    3051            
    3052            $C$DW$T$192     .dwtag  DW_TAG_pointer_type
    3053                    .dwattr $C$DW$T$192, DW_AT_type(*$C$DW$T$21)
    3054                    .dwattr $C$DW$T$192, DW_AT_address_class(0x14)
    3055            
    3056            $C$DW$T$193     .dwtag  DW_TAG_typedef
    3057                    .dwattr $C$DW$T$193, DW_AT_name("locale_t")
    3058                    .dwattr $C$DW$T$193, DW_AT_type(*$C$DW$T$192)
    3059                    .dwattr $C$DW$T$193, DW_AT_language(DW_LANG_C)
    3060                    .dwattr $C$DW$T$193, DW_AT_decl_file("C:/ti/ccs1200/ccs/tools/compiler/ti-cgt-msp430_21.6.0.LT
    3061                    .dwattr $C$DW$T$193, DW_AT_decl_line(0x21)
    3062                    .dwattr $C$DW$T$193, DW_AT_decl_column(0x1a)
    3063            
    3064                    .dwattr $C$DW$CU, DW_AT_language(DW_LANG_C)
    3065            
    3066            ;***************************************************************
    3067            ;* DWARF CIE ENTRIES                                           *
    3068            ;***************************************************************
    3069            
    3070            $C$DW$CIE       .dwcie 16
    3071                    .dwcfi  cfa_register, 1
    3072                    .dwcfi  cfa_offset, 0
    3073                    .dwcfi  same_value, 0
    3074                    .dwcfi  same_value, 1
    3075                    .dwcfi  same_value, 3
    3076                    .dwcfi  same_value, 4
    3077                    .dwcfi  same_value, 5
    3078                    .dwcfi  same_value, 6
    3079                    .dwcfi  same_value, 7
    3080                    .dwcfi  same_value, 8
    3081                    .dwcfi  same_value, 9
    3082                    .dwcfi  same_value, 10
    3083                    .dwendentry
    3084            
    3085            ;***************************************************************
    3086            ;* DWARF REGISTER MAP                                          *
    3087            ;***************************************************************
    3088            
    3089            $C$DW$122       .dwtag  DW_TAG_TI_assign_register
    3090                    .dwattr $C$DW$122, DW_AT_name("PC")
    3091                    .dwattr $C$DW$122, DW_AT_location[DW_OP_reg0]
    3092            
    3093            $C$DW$123       .dwtag  DW_TAG_TI_assign_register
    3094                    .dwattr $C$DW$123, DW_AT_name("SP")
    3095                    .dwattr $C$DW$123, DW_AT_location[DW_OP_reg1]
    3096            
    3097            $C$DW$124       .dwtag  DW_TAG_TI_assign_register
    3098                    .dwattr $C$DW$124, DW_AT_name("SR")
    3099                    .dwattr $C$DW$124, DW_AT_location[DW_OP_reg2]
    3100            
    3101            $C$DW$125       .dwtag  DW_TAG_TI_assign_register
    3102                    .dwattr $C$DW$125, DW_AT_name("CG")
MSP430 Assembler PC v21.6.0 Fri Mar 24 22:26:35 2023

Copyright (c) 2003-2018 Texas Instruments Incorporated
C:\Users\crs0074\AppData\Local\Temp\{1CDDF0A4-DD4F-44E4-962C-299E57A83445} PAGE   62

    3103                    .dwattr $C$DW$125, DW_AT_location[DW_OP_reg3]
    3104            
    3105            $C$DW$126       .dwtag  DW_TAG_TI_assign_register
    3106                    .dwattr $C$DW$126, DW_AT_name("r4")
    3107                    .dwattr $C$DW$126, DW_AT_location[DW_OP_reg4]
    3108            
    3109            $C$DW$127       .dwtag  DW_TAG_TI_assign_register
    3110                    .dwattr $C$DW$127, DW_AT_name("r5")
    3111                    .dwattr $C$DW$127, DW_AT_location[DW_OP_reg5]
    3112            
    3113            $C$DW$128       .dwtag  DW_TAG_TI_assign_register
    3114                    .dwattr $C$DW$128, DW_AT_name("r6")
    3115                    .dwattr $C$DW$128, DW_AT_location[DW_OP_reg6]
    3116            
    3117            $C$DW$129       .dwtag  DW_TAG_TI_assign_register
    3118                    .dwattr $C$DW$129, DW_AT_name("r7")
    3119                    .dwattr $C$DW$129, DW_AT_location[DW_OP_reg7]
    3120            
    3121            $C$DW$130       .dwtag  DW_TAG_TI_assign_register
    3122                    .dwattr $C$DW$130, DW_AT_name("r8")
    3123                    .dwattr $C$DW$130, DW_AT_location[DW_OP_reg8]
    3124            
    3125            $C$DW$131       .dwtag  DW_TAG_TI_assign_register
    3126                    .dwattr $C$DW$131, DW_AT_name("r9")
    3127                    .dwattr $C$DW$131, DW_AT_location[DW_OP_reg9]
    3128            
    3129            $C$DW$132       .dwtag  DW_TAG_TI_assign_register
    3130                    .dwattr $C$DW$132, DW_AT_name("r10")
    3131                    .dwattr $C$DW$132, DW_AT_location[DW_OP_reg10]
    3132            
    3133            $C$DW$133       .dwtag  DW_TAG_TI_assign_register
    3134                    .dwattr $C$DW$133, DW_AT_name("r11")
    3135                    .dwattr $C$DW$133, DW_AT_location[DW_OP_reg11]
    3136            
    3137            $C$DW$134       .dwtag  DW_TAG_TI_assign_register
    3138                    .dwattr $C$DW$134, DW_AT_name("r12")
    3139                    .dwattr $C$DW$134, DW_AT_location[DW_OP_reg12]
    3140            
    3141            $C$DW$135       .dwtag  DW_TAG_TI_assign_register
    3142                    .dwattr $C$DW$135, DW_AT_name("r13")
    3143                    .dwattr $C$DW$135, DW_AT_location[DW_OP_reg13]
    3144            
    3145            $C$DW$136       .dwtag  DW_TAG_TI_assign_register
    3146                    .dwattr $C$DW$136, DW_AT_name("r14")
    3147                    .dwattr $C$DW$136, DW_AT_location[DW_OP_reg14]
    3148            
    3149            $C$DW$137       .dwtag  DW_TAG_TI_assign_register
    3150                    .dwattr $C$DW$137, DW_AT_name("r15")
    3151                    .dwattr $C$DW$137, DW_AT_location[DW_OP_reg15]
    3152            
    3153            $C$DW$138       .dwtag  DW_TAG_TI_assign_register
    3154                    .dwattr $C$DW$138, DW_AT_name("CIE_RETA")
    3155                    .dwattr $C$DW$138, DW_AT_location[DW_OP_reg16]
    3156            
    3157                    .dwendtag $C$DW$CU
MSP430 Assembler PC v21.6.0 Fri Mar 24 22:26:35 2023

Copyright (c) 2003-2018 Texas Instruments Incorporated
C:\Users\crs0074\AppData\Local\Temp\{1CDDF0A4-DD4F-44E4-962C-299E57A83445} PAGE   63

    3158            

No Assembly Errors, No Assembly Warnings
