MSP430 Assembler PC v21.6.0 Sat Apr  8 12:40:34 2023

Copyright (c) 2003-2018 Texas Instruments Incorporated
C:\Users\chand\AppData\Local\Temp\{04461AB9-8EB7-4402-A1F3-5574A1543DBF} PAGE    1

       1            ;******************************************************************************
       2            ;* MSP430 G3 C/C++ Codegen                                              PC v21.6.0.LTS *
       3            ;* Date/Time created: Sat Apr  8 12:40:34 2023                                *
       4            ;******************************************************************************
       5                    .compiler_opts --abi=eabi --diag_wrap=off --hll_source=on --mem_model:code=small --mem_model:d
       6            
       7            $C$DW$CU        .dwtag  DW_TAG_compile_unit
       8                    .dwattr $C$DW$CU, DW_AT_name("../main.c")
       9                    .dwattr $C$DW$CU, DW_AT_producer("TI MSP430 G3 C/C++ Codegen PC v21.6.0.LTS Copyright (c) 2003
      10                    .dwattr $C$DW$CU, DW_AT_TI_version(0x01)
      11                    .dwattr $C$DW$CU, DW_AT_comp_dir("C:\Users\chand\workspace_v12\ACM-CySec\Debug")
      12            $C$DW$1 .dwtag  DW_TAG_variable
      13                    .dwattr $C$DW$1, DW_AT_name("WDTCTL")
      14                    .dwattr $C$DW$1, DW_AT_TI_symbol_name("WDTCTL")
      15                    .dwattr $C$DW$1, DW_AT_type(*$C$DW$T$61)
      16                    .dwattr $C$DW$1, DW_AT_declaration
      17                    .dwattr $C$DW$1, DW_AT_external
      18                    .dwattr $C$DW$1, DW_AT_decl_file("C:\ti\ccs1200\ccs\ccs_base\msp430\include\msp430f5529.h")
      19                    .dwattr $C$DW$1, DW_AT_decl_line(0x1232)
      20                    .dwattr $C$DW$1, DW_AT_decl_column(0x01)
      21            
      22                    .global input1
      23 000000               .sect   ".const:.string:input1"
      24                    .align  2
      25                    .elfsym input1,SYM_SIZE(100)
      26 000000       input1:
      27 000000 0054          .bits           0x54,8
      28                                    ; input1[0] @ 0
      29 000000 6854          .bits           0x68,8
      30                                    ; input1[1] @ 8
      31 000002 0069          .bits           0x69,8
      32                                    ; input1[2] @ 16
      33 000002 7369          .bits           0x73,8
      34                                    ; input1[3] @ 24
      35 000004 0020          .bits           0x20,8
      36                                    ; input1[4] @ 32
      37 000004 6920          .bits           0x69,8
      38                                    ; input1[5] @ 40
      39 000006 0073          .bits           0x73,8
      40                                    ; input1[6] @ 48
      41 000006 2073          .bits           0x20,8
      42                                    ; input1[7] @ 56
      43 000008 0061          .bits           0x61,8
      44                                    ; input1[8] @ 64
      45 000008 6E61          .bits           0x6e,8
      46                                    ; input1[9] @ 72
      47 00000a 006F          .bits           0x6f,8
      48                                    ; input1[10] @ 80
      49 00000a 746F          .bits           0x74,8
      50                                    ; input1[11] @ 88
      51 00000c 0068          .bits           0x68,8
      52                                    ; input1[12] @ 96
      53 00000c 6568          .bits           0x65,8
      54                                    ; input1[13] @ 104
      55 00000e 0072          .bits           0x72,8
MSP430 Assembler PC v21.6.0 Sat Apr  8 12:40:34 2023

Copyright (c) 2003-2018 Texas Instruments Incorporated
C:\Users\chand\AppData\Local\Temp\{04461AB9-8EB7-4402-A1F3-5574A1543DBF} PAGE    2

      56                                    ; input1[14] @ 112
      57 00000e 2072          .bits           0x20,8
      58                                    ; input1[15] @ 120
      59 000010 0073          .bits           0x73,8
      60                                    ; input1[16] @ 128
      61 000010 6173          .bits           0x61,8
      62                                    ; input1[17] @ 136
      63 000012 006D          .bits           0x6d,8
      64                                    ; input1[18] @ 144
      65 000012 706D          .bits           0x70,8
      66                                    ; input1[19] @ 152
      67 000014 006C          .bits           0x6c,8
      68                                    ; input1[20] @ 160
      69 000014 656C          .bits           0x65,8
      70                                    ; input1[21] @ 168
      71 000016 0020          .bits           0x20,8
      72                                    ; input1[22] @ 176
      73 000016 6920          .bits           0x69,8
      74                                    ; input1[23] @ 184
      75 000018 006E          .bits           0x6e,8
      76                                    ; input1[24] @ 192
      77 000018 706E          .bits           0x70,8
      78                                    ; input1[25] @ 200
      79 00001a 0075          .bits           0x75,8
      80                                    ; input1[26] @ 208
      81 00001a 7475          .bits           0x74,8
      82                                    ; input1[27] @ 216
      83 00001c 002E          .bits           0x2e,8
      84                                    ; input1[28] @ 224
      85 00001c 202E          .bits           0x20,8
      86                                    ; input1[29] @ 232
      87 00001e 0054          .bits           0x54,8
      88                                    ; input1[30] @ 240
      89 00001e 6854          .bits           0x68,8
      90                                    ; input1[31] @ 248
      91 000020 0065          .bits           0x65,8
      92                                    ; input1[32] @ 256
      93 000020 7265          .bits           0x72,8
      94                                    ; input1[33] @ 264
      95 000022 0065          .bits           0x65,8
      96                                    ; input1[34] @ 272
      97 000022 2065          .bits           0x20,8
      98                                    ; input1[35] @ 280
      99 000024 0069          .bits           0x69,8
     100                                    ; input1[36] @ 288
     101 000024 7369          .bits           0x73,8
     102                                    ; input1[37] @ 296
     103 000026 0020          .bits           0x20,8
     104                                    ; input1[38] @ 304
     105 000026 6120          .bits           0x61,8
     106                                    ; input1[39] @ 312
     107 000028 0020          .bits           0x20,8
     108                                    ; input1[40] @ 320
     109 000028 6320          .bits           0x63,8
     110                                    ; input1[41] @ 328
MSP430 Assembler PC v21.6.0 Sat Apr  8 12:40:34 2023

Copyright (c) 2003-2018 Texas Instruments Incorporated
C:\Users\chand\AppData\Local\Temp\{04461AB9-8EB7-4402-A1F3-5574A1543DBF} PAGE    3

     111 00002a 006F          .bits           0x6f,8
     112                                    ; input1[42] @ 336
     113 00002a 6E6F          .bits           0x6e,8
     114                                    ; input1[43] @ 344
     115 00002c 0073          .bits           0x73,8
     116                                    ; input1[44] @ 352
     117 00002c 7073          .bits           0x70,8
     118                                    ; input1[45] @ 360
     119 00002e 0069          .bits           0x69,8
     120                                    ; input1[46] @ 368
     121 00002e 7269          .bits           0x72,8
     122                                    ; input1[47] @ 376
     123 000030 0061          .bits           0x61,8
     124                                    ; input1[48] @ 384
     125 000030 6361          .bits           0x63,8
     126                                    ; input1[49] @ 392
     127 000032 0079          .bits           0x79,8
     128                                    ; input1[50] @ 400
     129 000032 2E79          .bits           0x2e,8
     130                                    ; input1[51] @ 408
     131 000034 0000          .bits           0,8
     132                                    ; input1[52] @ 416
     133 000035               .space  47
     134            
     135            $C$DW$2 .dwtag  DW_TAG_variable
     136                    .dwattr $C$DW$2, DW_AT_name("input1")
     137                    .dwattr $C$DW$2, DW_AT_TI_symbol_name("input1")
     138                    .dwattr $C$DW$2, DW_AT_location[DW_OP_addr input1]
     139                    .dwattr $C$DW$2, DW_AT_type(*$C$DW$T$125)
     140                    .dwattr $C$DW$2, DW_AT_external
     141                    .dwattr $C$DW$2, DW_AT_decl_file("../main.c")
     142                    .dwattr $C$DW$2, DW_AT_decl_line(0x13)
     143                    .dwattr $C$DW$2, DW_AT_decl_column(0x0c)
     144            
     145                    .global input2
     146 000000               .sect   ".const:.string:input2"
     147                    .align  2
     148                    .elfsym input2,SYM_SIZE(100)
     149 000000       input2:
     150 000000 0054          .bits           0x54,8
     151                                    ; input2[0] @ 0
     152 000000 6854          .bits           0x68,8
     153                                    ; input2[1] @ 8
     154 000002 0069          .bits           0x69,8
     155                                    ; input2[2] @ 16
     156 000002 7369          .bits           0x73,8
     157                                    ; input2[3] @ 24
     158 000004 0020          .bits           0x20,8
     159                                    ; input2[4] @ 32
     160 000004 6920          .bits           0x69,8
     161                                    ; input2[5] @ 40
     162 000006 0073          .bits           0x73,8
     163                                    ; input2[6] @ 48
     164 000006 2073          .bits           0x20,8
     165                                    ; input2[7] @ 56
MSP430 Assembler PC v21.6.0 Sat Apr  8 12:40:34 2023

Copyright (c) 2003-2018 Texas Instruments Incorporated
C:\Users\chand\AppData\Local\Temp\{04461AB9-8EB7-4402-A1F3-5574A1543DBF} PAGE    4

     166 000008 0074          .bits           0x74,8
     167                                    ; input2[8] @ 64
     168 000008 6874          .bits           0x68,8
     169                                    ; input2[9] @ 72
     170 00000a 0065          .bits           0x65,8
     171                                    ; input2[10] @ 80
     172 00000a 2065          .bits           0x20,8
     173                                    ; input2[11] @ 88
     174 00000c 0073          .bits           0x73,8
     175                                    ; input2[12] @ 96
     176 00000c 6173          .bits           0x61,8
     177                                    ; input2[13] @ 104
     178 00000e 006D          .bits           0x6d,8
     179                                    ; input2[14] @ 112
     180 00000e 706D          .bits           0x70,8
     181                                    ; input2[15] @ 120
     182 000010 006C          .bits           0x6c,8
     183                                    ; input2[16] @ 128
     184 000010 656C          .bits           0x65,8
     185                                    ; input2[17] @ 136
     186 000012 0020          .bits           0x20,8
     187                                    ; input2[18] @ 144
     188 000012 6920          .bits           0x69,8
     189                                    ; input2[19] @ 152
     190 000014 006E          .bits           0x6e,8
     191                                    ; input2[20] @ 160
     192 000014 706E          .bits           0x70,8
     193                                    ; input2[21] @ 168
     194 000016 0075          .bits           0x75,8
     195                                    ; input2[22] @ 176
     196 000016 7475          .bits           0x74,8
     197                                    ; input2[23] @ 184
     198 000018 002E          .bits           0x2e,8
     199                                    ; input2[24] @ 192
     200 000018 202E          .bits           0x20,8
     201                                    ; input2[25] @ 200
     202 00001a 0054          .bits           0x54,8
     203                                    ; input2[26] @ 208
     204 00001a 6854          .bits           0x68,8
     205                                    ; input2[27] @ 216
     206 00001c 0065          .bits           0x65,8
     207                                    ; input2[28] @ 224
     208 00001c 7265          .bits           0x72,8
     209                                    ; input2[29] @ 232
     210 00001e 0065          .bits           0x65,8
     211                                    ; input2[30] @ 240
     212 00001e 2065          .bits           0x20,8
     213                                    ; input2[31] @ 248
     214 000020 0069          .bits           0x69,8
     215                                    ; input2[32] @ 256
     216 000020 7369          .bits           0x73,8
     217                                    ; input2[33] @ 264
     218 000022 0020          .bits           0x20,8
     219                                    ; input2[34] @ 272
     220 000022 6E20          .bits           0x6e,8
MSP430 Assembler PC v21.6.0 Sat Apr  8 12:40:34 2023

Copyright (c) 2003-2018 Texas Instruments Incorporated
C:\Users\chand\AppData\Local\Temp\{04461AB9-8EB7-4402-A1F3-5574A1543DBF} PAGE    5

     221                                    ; input2[35] @ 280
     222 000024 006F          .bits           0x6f,8
     223                                    ; input2[36] @ 288
     224 000024 206F          .bits           0x20,8
     225                                    ; input2[37] @ 296
     226 000026 0063          .bits           0x63,8
     227                                    ; input2[38] @ 304
     228 000026 6F63          .bits           0x6f,8
     229                                    ; input2[39] @ 312
     230 000028 006E          .bits           0x6e,8
     231                                    ; input2[40] @ 320
     232 000028 736E          .bits           0x73,8
     233                                    ; input2[41] @ 328
     234 00002a 0070          .bits           0x70,8
     235                                    ; input2[42] @ 336
     236 00002a 6970          .bits           0x69,8
     237                                    ; input2[43] @ 344
     238 00002c 0072          .bits           0x72,8
     239                                    ; input2[44] @ 352
     240 00002c 6172          .bits           0x61,8
     241                                    ; input2[45] @ 360
     242 00002e 0063          .bits           0x63,8
     243                                    ; input2[46] @ 368
     244 00002e 7963          .bits           0x79,8
     245                                    ; input2[47] @ 376
     246 000030 002E          .bits           0x2e,8
     247                                    ; input2[48] @ 384
     248 000030 002E          .bits           0,8
     249                                    ; input2[49] @ 392
     250 000032               .space  50
     251            
     252            $C$DW$3 .dwtag  DW_TAG_variable
     253                    .dwattr $C$DW$3, DW_AT_name("input2")
     254                    .dwattr $C$DW$3, DW_AT_TI_symbol_name("input2")
     255                    .dwattr $C$DW$3, DW_AT_location[DW_OP_addr input2]
     256                    .dwattr $C$DW$3, DW_AT_type(*$C$DW$T$125)
     257                    .dwattr $C$DW$3, DW_AT_external
     258                    .dwattr $C$DW$3, DW_AT_decl_file("../main.c")
     259                    .dwattr $C$DW$3, DW_AT_decl_line(0x14)
     260                    .dwattr $C$DW$3, DW_AT_decl_column(0x0c)
     261            
     262                    .global stringCharTotal
     263                    .common stringCharTotal,2,2
     264            $C$DW$4 .dwtag  DW_TAG_variable
     265                    .dwattr $C$DW$4, DW_AT_name("stringCharTotal")
     266                    .dwattr $C$DW$4, DW_AT_TI_symbol_name("stringCharTotal")
     267                    .dwattr $C$DW$4, DW_AT_location[DW_OP_addr stringCharTotal]
     268                    .dwattr $C$DW$4, DW_AT_type(*$C$DW$T$126)
     269                    .dwattr $C$DW$4, DW_AT_external
     270                    .dwattr $C$DW$4, DW_AT_decl_file("../main.c")
     271                    .dwattr $C$DW$4, DW_AT_decl_line(0x16)
     272                    .dwattr $C$DW$4, DW_AT_decl_column(0x06)
     273            
     274            
     275            $C$DW$5 .dwtag  DW_TAG_subprogram
MSP430 Assembler PC v21.6.0 Sat Apr  8 12:40:34 2023

Copyright (c) 2003-2018 Texas Instruments Incorporated
C:\Users\chand\AppData\Local\Temp\{04461AB9-8EB7-4402-A1F3-5574A1543DBF} PAGE    6

     276                    .dwattr $C$DW$5, DW_AT_name("printf")
     277                    .dwattr $C$DW$5, DW_AT_TI_symbol_name("printf")
     278                    .dwattr $C$DW$5, DW_AT_type(*$C$DW$T$10)
     279                    .dwattr $C$DW$5, DW_AT_declaration
     280                    .dwattr $C$DW$5, DW_AT_external
     281                    .dwattr $C$DW$5, DW_AT_decl_file("C:/ti/ccs1200/ccs/tools/compiler/ti-cgt-msp430_21.6.0.LTS/in
     282                    .dwattr $C$DW$5, DW_AT_decl_line(0x100)
     283                    .dwattr $C$DW$5, DW_AT_decl_column(0x19)
     284            $C$DW$6 .dwtag  DW_TAG_formal_parameter
     285                    .dwattr $C$DW$6, DW_AT_type(*$C$DW$T$41)
     286            
     287            $C$DW$7 .dwtag  DW_TAG_unspecified_parameters
     288            
     289                    .dwendtag $C$DW$5
     290            
     291            ;       C:\ti\ccs1200\ccs\tools\compiler\ti-cgt-msp430_21.6.0.LTS\bin\acpia430.exe -@C:\\Users\\chand\
     292 000000               .sect   ".text:countLetters"
     293                    .clink
     294                    .global countLetters
     295            
     296            $C$DW$8 .dwtag  DW_TAG_subprogram
     297                    .dwattr $C$DW$8, DW_AT_name("countLetters")
     298                    .dwattr $C$DW$8, DW_AT_low_pc(countLetters)
     299                    .dwattr $C$DW$8, DW_AT_high_pc(0x00)
     300                    .dwattr $C$DW$8, DW_AT_TI_symbol_name("countLetters")
     301                    .dwattr $C$DW$8, DW_AT_external
     302                    .dwattr $C$DW$8, DW_AT_type(*$C$DW$T$10)
     303                    .dwattr $C$DW$8, DW_AT_TI_begin_file("../main.c")
     304                    .dwattr $C$DW$8, DW_AT_TI_begin_line(0x19)
     305                    .dwattr $C$DW$8, DW_AT_TI_begin_column(0x05)
     306                    .dwattr $C$DW$8, DW_AT_decl_file("../main.c")
     307                    .dwattr $C$DW$8, DW_AT_decl_line(0x19)
     308                    .dwattr $C$DW$8, DW_AT_decl_column(0x05)
     309                    .dwattr $C$DW$8, DW_AT_TI_max_frame_size(0x0c)
     310                    .dwpsn  file "../main.c",line 25,column 35,is_stmt,address countLetters,isa 0
     311            
     312                    .dwfde $C$DW$CIE, countLetters
     313            $C$DW$9 .dwtag  DW_TAG_formal_parameter
     314                    .dwattr $C$DW$9, DW_AT_name("str")
     315                    .dwattr $C$DW$9, DW_AT_TI_symbol_name("str")
     316                    .dwattr $C$DW$9, DW_AT_type(*$C$DW$T$40)
     317                    .dwattr $C$DW$9, DW_AT_location[DW_OP_reg12]
     318            
     319            
     320            ;*****************************************************************************
     321            ;* FUNCTION NAME: countLetters                                               *
     322            ;*                                                                           *
     323            ;*   Regs Modified     : SP,SR,r12,r14,r15                                   *
     324            ;*   Regs Used         : SP,SR,r12,r14,r15                                   *
     325            ;*   Local Frame Size  : 0 Args + 10 Auto + 0 Save = 10 byte                 *
     326            ;*****************************************************************************
     327 000000       countLetters:
     328            ;* --------------------------------------------------------------------------*
     329                    .dwcfi  cfa_offset, 2
     330                    .dwcfi  save_reg_to_mem, 16, -2
MSP430 Assembler PC v21.6.0 Sat Apr  8 12:40:34 2023

Copyright (c) 2003-2018 Texas Instruments Incorporated
C:\Users\chand\AppData\Local\Temp\{04461AB9-8EB7-4402-A1F3-5574A1543DBF} PAGE    7

     331 000000 8031          SUB.W     #10,SP                ; [] 
         000002 000A 
     332                    .dwcfi  cfa_offset, 12
     333            $C$DW$10        .dwtag  DW_TAG_variable
     334                    .dwattr $C$DW$10, DW_AT_name("str")
     335                    .dwattr $C$DW$10, DW_AT_TI_symbol_name("str")
     336                    .dwattr $C$DW$10, DW_AT_type(*$C$DW$T$40)
     337                    .dwattr $C$DW$10, DW_AT_location[DW_OP_breg1 0]
     338            
     339            $C$DW$11        .dwtag  DW_TAG_variable
     340                    .dwattr $C$DW$11, DW_AT_name("i")
     341                    .dwattr $C$DW$11, DW_AT_TI_symbol_name("i")
     342                    .dwattr $C$DW$11, DW_AT_type(*$C$DW$T$11)
     343                    .dwattr $C$DW$11, DW_AT_location[DW_OP_breg1 2]
     344            
     345            $C$DW$12        .dwtag  DW_TAG_variable
     346                    .dwattr $C$DW$12, DW_AT_name("j")
     347                    .dwattr $C$DW$12, DW_AT_TI_symbol_name("j")
     348                    .dwattr $C$DW$12, DW_AT_type(*$C$DW$T$11)
     349                    .dwattr $C$DW$12, DW_AT_location[DW_OP_breg1 4]
     350            
     351            $C$DW$13        .dwtag  DW_TAG_variable
     352                    .dwattr $C$DW$13, DW_AT_name("charTotal")
     353                    .dwattr $C$DW$13, DW_AT_TI_symbol_name("charTotal")
     354                    .dwattr $C$DW$13, DW_AT_type(*$C$DW$T$10)
     355                    .dwattr $C$DW$13, DW_AT_location[DW_OP_breg1 6]
     356            
     357            $C$DW$14        .dwtag  DW_TAG_variable
     358                    .dwattr $C$DW$14, DW_AT_name("stringLineDivisibleTotal")
     359                    .dwattr $C$DW$14, DW_AT_TI_symbol_name("stringLineDivisibleTotal")
     360                    .dwattr $C$DW$14, DW_AT_type(*$C$DW$T$10)
     361                    .dwattr $C$DW$14, DW_AT_location[DW_OP_breg1 8]
     362            
     363 000004 4C81          MOV.W     r12,0(SP)             ; [] |25| 
         000006 0000 
     364                    .dwpsn  file "../main.c",line 26,column 20,is_stmt,isa 0
     365 000008 4381          MOV.W     #0,2(SP)              ; [] |26| 
         00000a 0002 
     366                    .dwpsn  file "../main.c",line 27,column 20,is_stmt,isa 0
     367 00000c 4381          MOV.W     #0,4(SP)              ; [] |27| 
         00000e 0004 
     368                    .dwpsn  file "../main.c",line 28,column 19,is_stmt,isa 0
     369 000010 4381          MOV.W     #0,6(SP)              ; [] |28| 
         000012 0006 
     370                    .dwpsn  file "../main.c",line 29,column 34,is_stmt,isa 0
     371 000014 4381          MOV.W     #0,8(SP)              ; [] |29| 
         000016 0008 
     372                    .dwpsn  file "../main.c",line 30,column 5,is_stmt,isa 0
     373 000018 3C2A          JMP       $C$L6                 ; [] |30| 
     374                                                      ; [] |30| 
     375            ;* --------------------------------------------------------------------------*
     376 00001a       $C$L1:    
     377                    .dwpsn  file "../main.c",line 31,column 9,is_stmt,isa 0
     378 00001a 411F          MOV.W     2(SP),r15             ; [] |31| 
         00001c 0002 
MSP430 Assembler PC v21.6.0 Sat Apr  8 12:40:34 2023

Copyright (c) 2003-2018 Texas Instruments Incorporated
C:\Users\chand\AppData\Local\Temp\{04461AB9-8EB7-4402-A1F3-5574A1543DBF} PAGE    8

     379 00001e 512F          ADD.W     0(SP),r15             ; [] |31| 
     380 000020 90FF          CMP.B     #65,0(r15)            ; [] |31| 
         000022 0041 
         000024 0000 
     381 000026 2807          JLO       $C$L2                 ; [] |31| 
     382                                                      ; [] |31| 
     383            ;* --------------------------------------------------------------------------*
     384 000028 411F          MOV.W     2(SP),r15             ; [] |31| 
         00002a 0002 
     385 00002c 512F          ADD.W     0(SP),r15             ; [] |31| 
     386 00002e 90FF          CMP.B     #91,0(r15)            ; [] |31| 
         000030 005B 
         000032 0000 
     387 000034 280E          JLO       $C$L3                 ; [] |31| 
     388                                                      ; [] |31| 
     389            ;* --------------------------------------------------------------------------*
     390 000036       $C$L2:    
     391 000036 411F          MOV.W     2(SP),r15             ; [] |31| 
         000038 0002 
     392 00003a 512F          ADD.W     0(SP),r15             ; [] |31| 
     393 00003c 90FF          CMP.B     #98,0(r15)            ; [] |31| 
         00003e 0062 
         000040 0000 
     394 000042 280A          JLO       $C$L4                 ; [] |31| 
     395                                                      ; [] |31| 
     396            ;* --------------------------------------------------------------------------*
     397 000044 411F          MOV.W     2(SP),r15             ; [] |31| 
         000046 0002 
     398 000048 512F          ADD.W     0(SP),r15             ; [] |31| 
     399 00004a 90FF          CMP.B     #122,0(r15)           ; [] |31| 
         00004c 007A 
         00004e 0000 
     400 000050 2C03          JHS       $C$L4                 ; [] |31| 
     401                                                      ; [] |31| 
     402            ;* --------------------------------------------------------------------------*
     403 000052       $C$L3:    
     404                    .dwpsn  file "../main.c",line 32,column 13,is_stmt,isa 0
     405 000052 5391          ADD.W     #1,6(SP)              ; [] |32| 
         000054 0006 
     406 000056 3C09          JMP       $C$L5                 ; [] 
     407                                                      ; [] 
     408            ;* --------------------------------------------------------------------------*
     409 000058       $C$L4:    
     410                    .dwpsn  file "../main.c",line 35,column 13,is_stmt,isa 0
     411 000058 411F          MOV.W     4(SP),r15             ; [] |35| 
         00005a 0004 
     412 00005c 41DF          MOV.B     6(SP),stringCharTotal+0(r15) ; [] |35| 
         00005e 0006 
         000060 0000!
     413                    .dwpsn  file "../main.c",line 36,column 13,is_stmt,isa 0
     414 000062 4381          MOV.W     #0,6(SP)              ; [] |36| 
         000064 0006 
     415                    .dwpsn  file "../main.c",line 37,column 13,is_stmt,isa 0
     416 000066 5391          ADD.W     #1,4(SP)              ; [] |37| 
         000068 0004 
MSP430 Assembler PC v21.6.0 Sat Apr  8 12:40:34 2023

Copyright (c) 2003-2018 Texas Instruments Incorporated
C:\Users\chand\AppData\Local\Temp\{04461AB9-8EB7-4402-A1F3-5574A1543DBF} PAGE    9

     417            ;* --------------------------------------------------------------------------*
     418 00006a       $C$L5:    
     419                    .dwpsn  file "../main.c",line 39,column 9,is_stmt,isa 0
     420 00006a 5391          ADD.W     #1,2(SP)              ; [] |39| 
         00006c 0002 
     421            ;* --------------------------------------------------------------------------*
     422            ;*   BEGIN LOOP $C$L6
     423            ;* --------------------------------------------------------------------------*
     424 00006e       $C$L6:    
     425                    .dwpsn  file "../main.c",line 30,column 12,is_stmt,isa 0
     426 00006e 411F          MOV.W     2(SP),r15             ; [] |30| 
         000070 0002 
     427 000072 512F          ADD.W     0(SP),r15             ; [] |30| 
     428 000074 93CF          TST.B     0(r15)                ; [] |30| 
         000076 0000 
     429 000078 23D0          JNE       $C$L1                 ; [] |30| 
     430                                                      ; [] |30| 
     431            ;* --------------------------------------------------------------------------*
     432                    .dwpsn  file "../main.c",line 41,column 5,is_stmt,isa 0
     433 00007a 411F          MOV.W     4(SP),r15             ; [] |41| 
         00007c 0004 
     434 00007e 43CF          MOV.B     #0,stringCharTotal+0(r15) ; [] |41| 
         000080 0000!
     435                    .dwpsn  file "../main.c",line 42,column 5,is_stmt,isa 0
     436 000082 4381          MOV.W     #0,2(SP)              ; [] |42| 
         000084 0002 
     437                    .dwpsn  file "../main.c",line 43,column 5,is_stmt,isa 0
     438 000086 3C0D          JMP       $C$L9                 ; [] |43| 
     439                                                      ; [] |43| 
     440            ;* --------------------------------------------------------------------------*
     441 000088       $C$L7:    
     442                    .dwpsn  file "../main.c",line 44,column 9,is_stmt,isa 0
     443 000088 431F          MOV.W     #1,r15                ; [] |44| 
     444 00008a 511F          ADD.W     2(SP),r15             ; [] |44| 
         00008c 0002 
     445 00008e 411E          MOV.W     2(SP),r14             ; [] |44| 
         000090 0002 
     446 000092 9FDE          CMP.B     stringCharTotal+0(r15),stringCharTotal+0(r14) ; [] |44| 
         000094 0000!
         000096 0000!
     447 000098 2002          JNE       $C$L8                 ; [] |44| 
     448                                                      ; [] |44| 
     449            ;* --------------------------------------------------------------------------*
     450                    .dwpsn  file "../main.c",line 45,column 13,is_stmt,isa 0
     451 00009a 5391          ADD.W     #1,8(SP)              ; [] |45| 
         00009c 0008 
     452            ;* --------------------------------------------------------------------------*
     453 00009e       $C$L8:    
     454                    .dwpsn  file "../main.c",line 47,column 9,is_stmt,isa 0
     455 00009e 5391          ADD.W     #1,2(SP)              ; [] |47| 
         0000a0 0002 
     456            ;* --------------------------------------------------------------------------*
     457            ;*   BEGIN LOOP $C$L9
     458            ;* --------------------------------------------------------------------------*
     459 0000a2       $C$L9:    
MSP430 Assembler PC v21.6.0 Sat Apr  8 12:40:34 2023

Copyright (c) 2003-2018 Texas Instruments Incorporated
C:\Users\chand\AppData\Local\Temp\{04461AB9-8EB7-4402-A1F3-5574A1543DBF} PAGE   10

     460                    .dwpsn  file "../main.c",line 43,column 12,is_stmt,isa 0
     461 0000a2 411F          MOV.W     2(SP),r15             ; [] |43| 
         0000a4 0002 
     462 0000a6 512F          ADD.W     0(SP),r15             ; [] |43| 
     463 0000a8 93CF          TST.B     0(r15)                ; [] |43| 
         0000aa 0000 
     464 0000ac 23ED          JNE       $C$L7                 ; [] |43| 
     465                                                      ; [] |43| 
     466            ;* --------------------------------------------------------------------------*
     467                    .dwpsn  file "../main.c",line 49,column 5,is_stmt,isa 0
     468 0000ae 411C          MOV.W     8(SP),r12             ; [] |49| 
         0000b0 0008 
     469                    .dwpsn  file "../main.c",line 50,column 1,is_stmt,isa 0
     470 0000b2 5031          ADD.W     #10,SP                ; [] 
         0000b4 000A 
     471                    .dwcfi  cfa_offset, 2
     472            $C$DW$15        .dwtag  DW_TAG_TI_branch
     473                    .dwattr $C$DW$15, DW_AT_low_pc(0x00)
     474                    .dwattr $C$DW$15, DW_AT_TI_return
     475            
     476 0000b6 4130          RET       ; [] 
     477                    ; [] 
     478                    .dwattr $C$DW$8, DW_AT_TI_end_file("../main.c")
     479                    .dwattr $C$DW$8, DW_AT_TI_end_line(0x32)
     480                    .dwattr $C$DW$8, DW_AT_TI_end_column(0x01)
     481                    .dwendentry
     482                    .dwendtag $C$DW$8
     483            
     484 000000               .sect   ".text:printOutput"
     485                    .clink
     486                    .global printOutput
     487            
     488            $C$DW$16        .dwtag  DW_TAG_subprogram
     489                    .dwattr $C$DW$16, DW_AT_name("printOutput")
     490                    .dwattr $C$DW$16, DW_AT_low_pc(printOutput)
     491                    .dwattr $C$DW$16, DW_AT_high_pc(0x00)
     492                    .dwattr $C$DW$16, DW_AT_TI_symbol_name("printOutput")
     493                    .dwattr $C$DW$16, DW_AT_external
     494                    .dwattr $C$DW$16, DW_AT_TI_begin_file("../main.c")
     495                    .dwattr $C$DW$16, DW_AT_TI_begin_line(0x34)
     496                    .dwattr $C$DW$16, DW_AT_TI_begin_column(0x06)
     497                    .dwattr $C$DW$16, DW_AT_decl_file("../main.c")
     498                    .dwattr $C$DW$16, DW_AT_decl_line(0x34)
     499                    .dwattr $C$DW$16, DW_AT_decl_column(0x06)
     500                    .dwattr $C$DW$16, DW_AT_TI_max_frame_size(0x08)
     501                    .dwpsn  file "../main.c",line 52,column 27,is_stmt,address printOutput,isa 0
     502            
     503                    .dwfde $C$DW$CIE, printOutput
     504            $C$DW$17        .dwtag  DW_TAG_formal_parameter
     505                    .dwattr $C$DW$17, DW_AT_name("out")
     506                    .dwattr $C$DW$17, DW_AT_TI_symbol_name("out")
     507                    .dwattr $C$DW$17, DW_AT_type(*$C$DW$T$10)
     508                    .dwattr $C$DW$17, DW_AT_location[DW_OP_reg12]
     509            
     510            
MSP430 Assembler PC v21.6.0 Sat Apr  8 12:40:34 2023

Copyright (c) 2003-2018 Texas Instruments Incorporated
C:\Users\chand\AppData\Local\Temp\{04461AB9-8EB7-4402-A1F3-5574A1543DBF} PAGE   11

     511            ;*****************************************************************************
     512            ;* FUNCTION NAME: printOutput                                                *
     513            ;*                                                                           *
     514            ;*   Regs Modified     : SP,SR,r11,r12,r13,r14,r15                           *
     515            ;*   Regs Used         : SP,SR,r11,r12,r13,r14,r15                           *
     516            ;*   Local Frame Size  : 4 Args + 2 Auto + 0 Save = 6 byte                   *
     517            ;*****************************************************************************
     518 000000       printOutput:
     519            ;* --------------------------------------------------------------------------*
     520                    .dwcfi  cfa_offset, 2
     521                    .dwcfi  save_reg_to_mem, 16, -2
     522 000000 8031          SUB.W     #6,SP                 ; [] 
         000002 0006 
     523                    .dwcfi  cfa_offset, 8
     524            $C$DW$18        .dwtag  DW_TAG_variable
     525                    .dwattr $C$DW$18, DW_AT_name("out")
     526                    .dwattr $C$DW$18, DW_AT_TI_symbol_name("out")
     527                    .dwattr $C$DW$18, DW_AT_type(*$C$DW$T$10)
     528                    .dwattr $C$DW$18, DW_AT_location[DW_OP_breg1 4]
     529            
     530 000004 4C81          MOV.W     r12,4(SP)             ; [] |52| 
         000006 0004 
     531                    .dwpsn  file "../main.c",line 53,column 5,is_stmt,isa 0
     532 000008 40B1          MOV.W     #$C$SL1+0,0(SP)       ; [] |53| 
         00000a 0000!
         00000c 0000 
     533 00000e 4191          MOV.W     4(SP),2(SP)           ; [] |53| 
         000010 0004 
         000012 0002 
     534            $C$DW$19        .dwtag  DW_TAG_TI_branch
     535                    .dwattr $C$DW$19, DW_AT_low_pc(0x00)
     536                    .dwattr $C$DW$19, DW_AT_name("printf")
     537                    .dwattr $C$DW$19, DW_AT_TI_call
     538            
     539 000014 12B0          CALL      #printf               ; [] |53| 
         000016 0000!
     540                                                      ; [] |53| 
     541                    .dwpsn  file "../main.c",line 54,column 1,is_stmt,isa 0
     542 000018 5031          ADD.W     #6,SP                 ; [] 
         00001a 0006 
     543                    .dwcfi  cfa_offset, 2
     544            $C$DW$20        .dwtag  DW_TAG_TI_branch
     545                    .dwattr $C$DW$20, DW_AT_low_pc(0x00)
     546                    .dwattr $C$DW$20, DW_AT_TI_return
     547            
     548 00001c 4130          RET       ; [] 
     549                    ; [] 
     550                    .dwattr $C$DW$16, DW_AT_TI_end_file("../main.c")
     551                    .dwattr $C$DW$16, DW_AT_TI_end_line(0x36)
     552                    .dwattr $C$DW$16, DW_AT_TI_end_column(0x01)
     553                    .dwendentry
     554                    .dwendtag $C$DW$16
     555            
     556 000000               .sect   ".text:main"
     557                    .clink
MSP430 Assembler PC v21.6.0 Sat Apr  8 12:40:34 2023

Copyright (c) 2003-2018 Texas Instruments Incorporated
C:\Users\chand\AppData\Local\Temp\{04461AB9-8EB7-4402-A1F3-5574A1543DBF} PAGE   12

     558                    .global main
     559            
     560            $C$DW$21        .dwtag  DW_TAG_subprogram
     561                    .dwattr $C$DW$21, DW_AT_name("main")
     562                    .dwattr $C$DW$21, DW_AT_low_pc(main)
     563                    .dwattr $C$DW$21, DW_AT_high_pc(0x00)
     564                    .dwattr $C$DW$21, DW_AT_TI_symbol_name("main")
     565                    .dwattr $C$DW$21, DW_AT_external
     566                    .dwattr $C$DW$21, DW_AT_TI_begin_file("../main.c")
     567                    .dwattr $C$DW$21, DW_AT_TI_begin_line(0x38)
     568                    .dwattr $C$DW$21, DW_AT_TI_begin_column(0x06)
     569                    .dwattr $C$DW$21, DW_AT_decl_file("../main.c")
     570                    .dwattr $C$DW$21, DW_AT_decl_line(0x38)
     571                    .dwattr $C$DW$21, DW_AT_decl_column(0x06)
     572                    .dwattr $C$DW$21, DW_AT_TI_max_frame_size(0x04)
     573                    .dwpsn  file "../main.c",line 56,column 13,is_stmt,address main,isa 0
     574            
     575                    .dwfde $C$DW$CIE, main
     576            
     577            ;*****************************************************************************
     578            ;* FUNCTION NAME: main                                                       *
     579            ;*                                                                           *
     580            ;*   Regs Modified     : SP,SR,r11,r12,r13,r14,r15                           *
     581            ;*   Regs Used         : SP,SR,r11,r12,r13,r14,r15                           *
     582            ;*   Local Frame Size  : 0 Args + 2 Auto + 0 Save = 2 byte                   *
     583            ;*****************************************************************************
     584 000000       main:
     585            ;* --------------------------------------------------------------------------*
     586                    .dwcfi  cfa_offset, 2
     587                    .dwcfi  save_reg_to_mem, 16, -2
     588 000000 8321          SUB.W     #2,SP                 ; [] 
     589                    .dwcfi  cfa_offset, 4
     590            $C$DW$22        .dwtag  DW_TAG_variable
     591                    .dwattr $C$DW$22, DW_AT_name("out")
     592                    .dwattr $C$DW$22, DW_AT_TI_symbol_name("out")
     593                    .dwattr $C$DW$22, DW_AT_type(*$C$DW$T$10)
     594                    .dwattr $C$DW$22, DW_AT_location[DW_OP_breg1 0]
     595            
     596                    .dwpsn  file "../main.c",line 57,column 2,is_stmt,isa 0
     597 000002 40B2          MOV.W     #23168,&WDTCTL+0      ; [] |57| 
         000004 5A80 
         000006 0000!
     598                    .dwpsn  file "../main.c",line 59,column 10,is_stmt,isa 0
     599 000008 403C          MOV.W     #input1+0,r12         ; [] |59| 
         00000a 0000!
     600            $C$DW$23        .dwtag  DW_TAG_TI_branch
     601                    .dwattr $C$DW$23, DW_AT_low_pc(0x00)
     602                    .dwattr $C$DW$23, DW_AT_name("countLetters")
     603                    .dwattr $C$DW$23, DW_AT_TI_call
     604            
     605 00000c 12B0          CALL      #countLetters         ; [] |59| 
         00000e 0000!
     606                                                      ; [] |59| 
     607 000010 4C81          MOV.W     r12,0(SP)             ; [] |59| 
         000012 0000 
MSP430 Assembler PC v21.6.0 Sat Apr  8 12:40:34 2023

Copyright (c) 2003-2018 Texas Instruments Incorporated
C:\Users\chand\AppData\Local\Temp\{04461AB9-8EB7-4402-A1F3-5574A1543DBF} PAGE   13

     608                    .dwpsn  file "../main.c",line 60,column 2,is_stmt,isa 0
     609            $C$DW$24        .dwtag  DW_TAG_TI_branch
     610                    .dwattr $C$DW$24, DW_AT_low_pc(0x00)
     611                    .dwattr $C$DW$24, DW_AT_name("printOutput")
     612                    .dwattr $C$DW$24, DW_AT_TI_call
     613            
     614 000014 12B0          CALL      #printOutput          ; [] |60| 
         000016 0000!
     615                                                      ; [] |60| 
     616                    .dwpsn  file "../main.c",line 61,column 1,is_stmt,isa 0
     617 000018 5321          ADD.W     #2,SP                 ; [] 
     618                    .dwcfi  cfa_offset, 2
     619            $C$DW$25        .dwtag  DW_TAG_TI_branch
     620                    .dwattr $C$DW$25, DW_AT_low_pc(0x00)
     621                    .dwattr $C$DW$25, DW_AT_TI_return
     622            
     623 00001a 4130          RET       ; [] 
     624                    ; [] 
     625                    .dwattr $C$DW$21, DW_AT_TI_end_file("../main.c")
     626                    .dwattr $C$DW$21, DW_AT_TI_end_line(0x3d)
     627                    .dwattr $C$DW$21, DW_AT_TI_end_column(0x01)
     628                    .dwendentry
     629                    .dwendtag $C$DW$21
     630            
     631            ;******************************************************************************
     632            ;* STRINGS                                                                    *
     633            ;******************************************************************************
     634 000000               .sect   ".const:.string"
     635                    .align  2
     636 000000 006F  $C$SL1: .string "output for string: %d",0
         000001 0075 
         000002 0074 
         000003 0070 
         000004 0075 
         000005 0074 
         000006 0020 
         000007 0066 
         000008 006F 
         000009 0072 
         00000a 0020 
         00000b 0073 
         00000c 0074 
         00000d 0072 
         00000e 0069 
         00000f 006E 
         000010 0067 
         000011 003A 
         000012 0020 
         000013 0025 
         000014 0064 
         000015 0000 
     637            ;*****************************************************************************
     638            ;* UNDEFINED EXTERNAL REFERENCES                                             *
     639            ;*****************************************************************************
     640                    .global WDTCTL
MSP430 Assembler PC v21.6.0 Sat Apr  8 12:40:34 2023

Copyright (c) 2003-2018 Texas Instruments Incorporated
C:\Users\chand\AppData\Local\Temp\{04461AB9-8EB7-4402-A1F3-5574A1543DBF} PAGE   14

     641                    .global printf
     642            
     643            ;******************************************************************************
     644            ;* BUILD ATTRIBUTES                                                           *
     645            ;******************************************************************************
     646                    .battr "TI", Tag_File, 1, Tag_LPM_INFO(1)
     647                    .battr "TI", Tag_File, 1, Tag_PORTS_INIT_INFO("012345678901ABCDEFGHIJ0000000000001111000000000
     648                    .battr "TI", Tag_File, 1, Tag_LEA_INFO(1)
     649                    .battr "TI", Tag_File, 1, Tag_HW_MPY32_INFO(2)
     650                    .battr "TI", Tag_File, 1, Tag_HW_MPY_ISR_INFO(1)
     651                    .battr "TI", Tag_File, 1, Tag_HW_MPY_INLINE_INFO(1)
     652                    .battr "mspabi", Tag_File, 1, Tag_enum_size(3)
     653            
     654            ;******************************************************************************
     655            ;* TYPE INFORMATION                                                           *
     656            ;******************************************************************************
     657            
     658            $C$DW$T$21      .dwtag  DW_TAG_structure_type
     659                    .dwattr $C$DW$T$21, DW_AT_byte_size(0x10)
     660            $C$DW$26        .dwtag  DW_TAG_member
     661                    .dwattr $C$DW$26, DW_AT_type(*$C$DW$T$14)
     662                    .dwattr $C$DW$26, DW_AT_name("__max_align1")
     663                    .dwattr $C$DW$26, DW_AT_TI_symbol_name("__max_align1")
     664                    .dwattr $C$DW$26, DW_AT_data_member_location[DW_OP_plus_uconst 0x0]
     665                    .dwattr $C$DW$26, DW_AT_accessibility(DW_ACCESS_public)
     666                    .dwattr $C$DW$26, DW_AT_decl_file("C:/ti/ccs1200/ccs/tools/compiler/ti-cgt-msp430_21.6.0.LTS/i
     667                    .dwattr $C$DW$26, DW_AT_decl_line(0x7b)
     668                    .dwattr $C$DW$26, DW_AT_decl_column(0x0c)
     669            
     670            $C$DW$27        .dwtag  DW_TAG_member
     671                    .dwattr $C$DW$27, DW_AT_type(*$C$DW$T$18)
     672                    .dwattr $C$DW$27, DW_AT_name("__max_align2")
     673                    .dwattr $C$DW$27, DW_AT_TI_symbol_name("__max_align2")
     674                    .dwattr $C$DW$27, DW_AT_data_member_location[DW_OP_plus_uconst 0x8]
     675                    .dwattr $C$DW$27, DW_AT_accessibility(DW_ACCESS_public)
     676                    .dwattr $C$DW$27, DW_AT_decl_file("C:/ti/ccs1200/ccs/tools/compiler/ti-cgt-msp430_21.6.0.LTS/i
     677                    .dwattr $C$DW$27, DW_AT_decl_line(0x7c)
     678                    .dwattr $C$DW$27, DW_AT_decl_column(0x0e)
     679            
     680                    .dwattr $C$DW$T$21, DW_AT_decl_file("C:/ti/ccs1200/ccs/tools/compiler/ti-cgt-msp430_21.6.0.LTS
     681                    .dwattr $C$DW$T$21, DW_AT_decl_line(0x7a)
     682                    .dwattr $C$DW$T$21, DW_AT_decl_column(0x10)
     683                    .dwendtag $C$DW$T$21
     684            
     685            $C$DW$T$24      .dwtag  DW_TAG_typedef
     686                    .dwattr $C$DW$T$24, DW_AT_name("__max_align_t")
     687                    .dwattr $C$DW$T$24, DW_AT_type(*$C$DW$T$21)
     688                    .dwattr $C$DW$T$24, DW_AT_language(DW_LANG_C)
     689                    .dwattr $C$DW$T$24, DW_AT_decl_file("C:/ti/ccs1200/ccs/tools/compiler/ti-cgt-msp430_21.6.0.LTS
     690                    .dwattr $C$DW$T$24, DW_AT_decl_line(0x7d)
     691                    .dwattr $C$DW$T$24, DW_AT_decl_column(0x03)
     692            
     693            $C$DW$T$2       .dwtag  DW_TAG_unspecified_type
     694                    .dwattr $C$DW$T$2, DW_AT_name("void")
     695            
MSP430 Assembler PC v21.6.0 Sat Apr  8 12:40:34 2023

Copyright (c) 2003-2018 Texas Instruments Incorporated
C:\Users\chand\AppData\Local\Temp\{04461AB9-8EB7-4402-A1F3-5574A1543DBF} PAGE   15

     696            
     697            $C$DW$T$27      .dwtag  DW_TAG_subroutine_type
     698                    .dwattr $C$DW$T$27, DW_AT_language(DW_LANG_C)
     699                    .dwendtag $C$DW$T$27
     700            
     701            $C$DW$T$28      .dwtag  DW_TAG_pointer_type
     702                    .dwattr $C$DW$T$28, DW_AT_type(*$C$DW$T$27)
     703                    .dwattr $C$DW$T$28, DW_AT_address_class(0x10)
     704            
     705            $C$DW$T$29      .dwtag  DW_TAG_typedef
     706                    .dwattr $C$DW$T$29, DW_AT_name("__SFR_FARPTR")
     707                    .dwattr $C$DW$T$29, DW_AT_type(*$C$DW$T$28)
     708                    .dwattr $C$DW$T$29, DW_AT_language(DW_LANG_C)
     709                    .dwattr $C$DW$T$29, DW_AT_decl_file("C:\ti\ccs1200\ccs\ccs_base\msp430\include\msp430f5529.h")
     710                    .dwattr $C$DW$T$29, DW_AT_decl_line(0x4a)
     711                    .dwattr $C$DW$T$29, DW_AT_decl_column(0x11)
     712            
     713            $C$DW$T$4       .dwtag  DW_TAG_base_type
     714                    .dwattr $C$DW$T$4, DW_AT_encoding(DW_ATE_boolean)
     715                    .dwattr $C$DW$T$4, DW_AT_name("bool")
     716                    .dwattr $C$DW$T$4, DW_AT_byte_size(0x01)
     717            
     718            $C$DW$T$5       .dwtag  DW_TAG_base_type
     719                    .dwattr $C$DW$T$5, DW_AT_encoding(DW_ATE_signed_char)
     720                    .dwattr $C$DW$T$5, DW_AT_name("signed char")
     721                    .dwattr $C$DW$T$5, DW_AT_byte_size(0x01)
     722            
     723            $C$DW$T$30      .dwtag  DW_TAG_typedef
     724                    .dwattr $C$DW$T$30, DW_AT_name("__int8_t")
     725                    .dwattr $C$DW$T$30, DW_AT_type(*$C$DW$T$5)
     726                    .dwattr $C$DW$T$30, DW_AT_language(DW_LANG_C)
     727                    .dwattr $C$DW$T$30, DW_AT_decl_file("C:/ti/ccs1200/ccs/tools/compiler/ti-cgt-msp430_21.6.0.LTS
     728                    .dwattr $C$DW$T$30, DW_AT_decl_line(0x36)
     729                    .dwattr $C$DW$T$30, DW_AT_decl_column(0x16)
     730            
     731            $C$DW$T$31      .dwtag  DW_TAG_typedef
     732                    .dwattr $C$DW$T$31, DW_AT_name("__int_least8_t")
     733                    .dwattr $C$DW$T$31, DW_AT_type(*$C$DW$T$30)
     734                    .dwattr $C$DW$T$31, DW_AT_language(DW_LANG_C)
     735                    .dwattr $C$DW$T$31, DW_AT_decl_file("C:/ti/ccs1200/ccs/tools/compiler/ti-cgt-msp430_21.6.0.LTS
     736                    .dwattr $C$DW$T$31, DW_AT_decl_line(0x5a)
     737                    .dwattr $C$DW$T$31, DW_AT_decl_column(0x12)
     738            
     739            $C$DW$T$6       .dwtag  DW_TAG_base_type
     740                    .dwattr $C$DW$T$6, DW_AT_encoding(DW_ATE_unsigned_char)
     741                    .dwattr $C$DW$T$6, DW_AT_name("unsigned char")
     742                    .dwattr $C$DW$T$6, DW_AT_byte_size(0x01)
     743            
     744            $C$DW$T$22      .dwtag  DW_TAG_pointer_type
     745                    .dwattr $C$DW$T$22, DW_AT_type(*$C$DW$T$6)
     746                    .dwattr $C$DW$T$22, DW_AT_address_class(0x10)
     747            
     748            $C$DW$T$32      .dwtag  DW_TAG_typedef
     749                    .dwattr $C$DW$T$32, DW_AT_name("__uint8_t")
     750                    .dwattr $C$DW$T$32, DW_AT_type(*$C$DW$T$6)
MSP430 Assembler PC v21.6.0 Sat Apr  8 12:40:34 2023

Copyright (c) 2003-2018 Texas Instruments Incorporated
C:\Users\chand\AppData\Local\Temp\{04461AB9-8EB7-4402-A1F3-5574A1543DBF} PAGE   16

     751                    .dwattr $C$DW$T$32, DW_AT_language(DW_LANG_C)
     752                    .dwattr $C$DW$T$32, DW_AT_decl_file("C:/ti/ccs1200/ccs/tools/compiler/ti-cgt-msp430_21.6.0.LTS
     753                    .dwattr $C$DW$T$32, DW_AT_decl_line(0x37)
     754                    .dwattr $C$DW$T$32, DW_AT_decl_column(0x18)
     755            
     756            $C$DW$T$33      .dwtag  DW_TAG_typedef
     757                    .dwattr $C$DW$T$33, DW_AT_name("__sa_family_t")
     758                    .dwattr $C$DW$T$33, DW_AT_type(*$C$DW$T$32)
     759                    .dwattr $C$DW$T$33, DW_AT_language(DW_LANG_C)
     760                    .dwattr $C$DW$T$33, DW_AT_decl_file("C:/ti/ccs1200/ccs/tools/compiler/ti-cgt-msp430_21.6.0.LTS
     761                    .dwattr $C$DW$T$33, DW_AT_decl_line(0x47)
     762                    .dwattr $C$DW$T$33, DW_AT_decl_column(0x13)
     763            
     764            $C$DW$T$34      .dwtag  DW_TAG_typedef
     765                    .dwattr $C$DW$T$34, DW_AT_name("__uint_least8_t")
     766                    .dwattr $C$DW$T$34, DW_AT_type(*$C$DW$T$32)
     767                    .dwattr $C$DW$T$34, DW_AT_language(DW_LANG_C)
     768                    .dwattr $C$DW$T$34, DW_AT_decl_file("C:/ti/ccs1200/ccs/tools/compiler/ti-cgt-msp430_21.6.0.LTS
     769                    .dwattr $C$DW$T$34, DW_AT_decl_line(0x74)
     770                    .dwattr $C$DW$T$34, DW_AT_decl_column(0x13)
     771            
     772            $C$DW$T$7       .dwtag  DW_TAG_base_type
     773                    .dwattr $C$DW$T$7, DW_AT_encoding(DW_ATE_signed_char)
     774                    .dwattr $C$DW$T$7, DW_AT_name("wchar_t")
     775                    .dwattr $C$DW$T$7, DW_AT_byte_size(0x02)
     776            
     777            $C$DW$T$8       .dwtag  DW_TAG_base_type
     778                    .dwattr $C$DW$T$8, DW_AT_encoding(DW_ATE_signed)
     779                    .dwattr $C$DW$T$8, DW_AT_name("short")
     780                    .dwattr $C$DW$T$8, DW_AT_byte_size(0x02)
     781            
     782            $C$DW$T$9       .dwtag  DW_TAG_base_type
     783                    .dwattr $C$DW$T$9, DW_AT_encoding(DW_ATE_unsigned)
     784                    .dwattr $C$DW$T$9, DW_AT_name("unsigned short")
     785                    .dwattr $C$DW$T$9, DW_AT_byte_size(0x02)
     786            
     787            $C$DW$T$10      .dwtag  DW_TAG_base_type
     788                    .dwattr $C$DW$T$10, DW_AT_encoding(DW_ATE_signed)
     789                    .dwattr $C$DW$T$10, DW_AT_name("int")
     790                    .dwattr $C$DW$T$10, DW_AT_byte_size(0x02)
     791            
     792            $C$DW$T$35      .dwtag  DW_TAG_typedef
     793                    .dwattr $C$DW$T$35, DW_AT_name("_Mbstatet")
     794                    .dwattr $C$DW$T$35, DW_AT_type(*$C$DW$T$10)
     795                    .dwattr $C$DW$T$35, DW_AT_language(DW_LANG_C)
     796                    .dwattr $C$DW$T$35, DW_AT_decl_file("C:/ti/ccs1200/ccs/tools/compiler/ti-cgt-msp430_21.6.0.LTS
     797                    .dwattr $C$DW$T$35, DW_AT_decl_line(0x8f)
     798                    .dwattr $C$DW$T$35, DW_AT_decl_column(0x0d)
     799            
     800            $C$DW$T$36      .dwtag  DW_TAG_typedef
     801                    .dwattr $C$DW$T$36, DW_AT_name("__mbstate_t")
     802                    .dwattr $C$DW$T$36, DW_AT_type(*$C$DW$T$35)
     803                    .dwattr $C$DW$T$36, DW_AT_language(DW_LANG_C)
     804                    .dwattr $C$DW$T$36, DW_AT_decl_file("C:/ti/ccs1200/ccs/tools/compiler/ti-cgt-msp430_21.6.0.LTS
     805                    .dwattr $C$DW$T$36, DW_AT_decl_line(0x92)
MSP430 Assembler PC v21.6.0 Sat Apr  8 12:40:34 2023

Copyright (c) 2003-2018 Texas Instruments Incorporated
C:\Users\chand\AppData\Local\Temp\{04461AB9-8EB7-4402-A1F3-5574A1543DBF} PAGE   17

     806                    .dwattr $C$DW$T$36, DW_AT_decl_column(0x13)
     807            
     808            $C$DW$T$37      .dwtag  DW_TAG_typedef
     809                    .dwattr $C$DW$T$37, DW_AT_name("__accmode_t")
     810                    .dwattr $C$DW$T$37, DW_AT_type(*$C$DW$T$10)
     811                    .dwattr $C$DW$T$37, DW_AT_language(DW_LANG_C)
     812                    .dwattr $C$DW$T$37, DW_AT_decl_file("C:/ti/ccs1200/ccs/tools/compiler/ti-cgt-msp430_21.6.0.LTS
     813                    .dwattr $C$DW$T$37, DW_AT_decl_line(0x3b)
     814                    .dwattr $C$DW$T$37, DW_AT_decl_column(0x0e)
     815            
     816            $C$DW$T$46      .dwtag  DW_TAG_typedef
     817                    .dwattr $C$DW$T$46, DW_AT_name("__cpulevel_t")
     818                    .dwattr $C$DW$T$46, DW_AT_type(*$C$DW$T$10)
     819                    .dwattr $C$DW$T$46, DW_AT_language(DW_LANG_C)
     820                    .dwattr $C$DW$T$46, DW_AT_decl_file("C:/ti/ccs1200/ccs/tools/compiler/ti-cgt-msp430_21.6.0.LTS
     821                    .dwattr $C$DW$T$46, DW_AT_decl_line(0x50)
     822                    .dwattr $C$DW$T$46, DW_AT_decl_column(0x0e)
     823            
     824            $C$DW$T$47      .dwtag  DW_TAG_typedef
     825                    .dwattr $C$DW$T$47, DW_AT_name("__cpusetid_t")
     826                    .dwattr $C$DW$T$47, DW_AT_type(*$C$DW$T$10)
     827                    .dwattr $C$DW$T$47, DW_AT_language(DW_LANG_C)
     828                    .dwattr $C$DW$T$47, DW_AT_decl_file("C:/ti/ccs1200/ccs/tools/compiler/ti-cgt-msp430_21.6.0.LTS
     829                    .dwattr $C$DW$T$47, DW_AT_decl_line(0x51)
     830                    .dwattr $C$DW$T$47, DW_AT_decl_column(0x0e)
     831            
     832            $C$DW$T$48      .dwtag  DW_TAG_typedef
     833                    .dwattr $C$DW$T$48, DW_AT_name("__cpuwhich_t")
     834                    .dwattr $C$DW$T$48, DW_AT_type(*$C$DW$T$10)
     835                    .dwattr $C$DW$T$48, DW_AT_language(DW_LANG_C)
     836                    .dwattr $C$DW$T$48, DW_AT_decl_file("C:/ti/ccs1200/ccs/tools/compiler/ti-cgt-msp430_21.6.0.LTS
     837                    .dwattr $C$DW$T$48, DW_AT_decl_line(0x4f)
     838                    .dwattr $C$DW$T$48, DW_AT_decl_column(0x0e)
     839            
     840            $C$DW$T$49      .dwtag  DW_TAG_typedef
     841                    .dwattr $C$DW$T$49, DW_AT_name("__ct_rune_t")
     842                    .dwattr $C$DW$T$49, DW_AT_type(*$C$DW$T$10)
     843                    .dwattr $C$DW$T$49, DW_AT_language(DW_LANG_C)
     844                    .dwattr $C$DW$T$49, DW_AT_decl_file("C:/ti/ccs1200/ccs/tools/compiler/ti-cgt-msp430_21.6.0.LTS
     845                    .dwattr $C$DW$T$49, DW_AT_decl_line(0x69)
     846                    .dwattr $C$DW$T$49, DW_AT_decl_column(0x0e)
     847            
     848            $C$DW$T$50      .dwtag  DW_TAG_typedef
     849                    .dwattr $C$DW$T$50, DW_AT_name("__rune_t")
     850                    .dwattr $C$DW$T$50, DW_AT_type(*$C$DW$T$49)
     851                    .dwattr $C$DW$T$50, DW_AT_language(DW_LANG_C)
     852                    .dwattr $C$DW$T$50, DW_AT_decl_file("C:/ti/ccs1200/ccs/tools/compiler/ti-cgt-msp430_21.6.0.LTS
     853                    .dwattr $C$DW$T$50, DW_AT_decl_line(0x6c)
     854                    .dwattr $C$DW$T$50, DW_AT_decl_column(0x15)
     855            
     856            $C$DW$T$51      .dwtag  DW_TAG_typedef
     857                    .dwattr $C$DW$T$51, DW_AT_name("__wint_t")
     858                    .dwattr $C$DW$T$51, DW_AT_type(*$C$DW$T$49)
     859                    .dwattr $C$DW$T$51, DW_AT_language(DW_LANG_C)
     860                    .dwattr $C$DW$T$51, DW_AT_decl_file("C:/ti/ccs1200/ccs/tools/compiler/ti-cgt-msp430_21.6.0.LTS
MSP430 Assembler PC v21.6.0 Sat Apr  8 12:40:34 2023

Copyright (c) 2003-2018 Texas Instruments Incorporated
C:\Users\chand\AppData\Local\Temp\{04461AB9-8EB7-4402-A1F3-5574A1543DBF} PAGE   18

     861                    .dwattr $C$DW$T$51, DW_AT_decl_line(0x6d)
     862                    .dwattr $C$DW$T$51, DW_AT_decl_column(0x15)
     863            
     864            $C$DW$T$52      .dwtag  DW_TAG_typedef
     865                    .dwattr $C$DW$T$52, DW_AT_name("__int16_t")
     866                    .dwattr $C$DW$T$52, DW_AT_type(*$C$DW$T$10)
     867                    .dwattr $C$DW$T$52, DW_AT_language(DW_LANG_C)
     868                    .dwattr $C$DW$T$52, DW_AT_decl_file("C:/ti/ccs1200/ccs/tools/compiler/ti-cgt-msp430_21.6.0.LTS
     869                    .dwattr $C$DW$T$52, DW_AT_decl_line(0x38)
     870                    .dwattr $C$DW$T$52, DW_AT_decl_column(0x0f)
     871            
     872            $C$DW$T$53      .dwtag  DW_TAG_typedef
     873                    .dwattr $C$DW$T$53, DW_AT_name("__int_fast16_t")
     874                    .dwattr $C$DW$T$53, DW_AT_type(*$C$DW$T$52)
     875                    .dwattr $C$DW$T$53, DW_AT_language(DW_LANG_C)
     876                    .dwattr $C$DW$T$53, DW_AT_decl_file("C:/ti/ccs1200/ccs/tools/compiler/ti-cgt-msp430_21.6.0.LTS
     877                    .dwattr $C$DW$T$53, DW_AT_decl_line(0x57)
     878                    .dwattr $C$DW$T$53, DW_AT_decl_column(0x13)
     879            
     880            $C$DW$T$54      .dwtag  DW_TAG_typedef
     881                    .dwattr $C$DW$T$54, DW_AT_name("__int_fast8_t")
     882                    .dwattr $C$DW$T$54, DW_AT_type(*$C$DW$T$52)
     883                    .dwattr $C$DW$T$54, DW_AT_language(DW_LANG_C)
     884                    .dwattr $C$DW$T$54, DW_AT_decl_file("C:/ti/ccs1200/ccs/tools/compiler/ti-cgt-msp430_21.6.0.LTS
     885                    .dwattr $C$DW$T$54, DW_AT_decl_line(0x56)
     886                    .dwattr $C$DW$T$54, DW_AT_decl_column(0x13)
     887            
     888            $C$DW$T$55      .dwtag  DW_TAG_typedef
     889                    .dwattr $C$DW$T$55, DW_AT_name("__int_least16_t")
     890                    .dwattr $C$DW$T$55, DW_AT_type(*$C$DW$T$52)
     891                    .dwattr $C$DW$T$55, DW_AT_language(DW_LANG_C)
     892                    .dwattr $C$DW$T$55, DW_AT_decl_file("C:/ti/ccs1200/ccs/tools/compiler/ti-cgt-msp430_21.6.0.LTS
     893                    .dwattr $C$DW$T$55, DW_AT_decl_line(0x5b)
     894                    .dwattr $C$DW$T$55, DW_AT_decl_column(0x13)
     895            
     896            $C$DW$T$56      .dwtag  DW_TAG_typedef
     897                    .dwattr $C$DW$T$56, DW_AT_name("__intptr_t")
     898                    .dwattr $C$DW$T$56, DW_AT_type(*$C$DW$T$52)
     899                    .dwattr $C$DW$T$56, DW_AT_language(DW_LANG_C)
     900                    .dwattr $C$DW$T$56, DW_AT_decl_file("C:/ti/ccs1200/ccs/tools/compiler/ti-cgt-msp430_21.6.0.LTS
     901                    .dwattr $C$DW$T$56, DW_AT_decl_line(0x53)
     902                    .dwattr $C$DW$T$56, DW_AT_decl_column(0x19)
     903            
     904            $C$DW$T$57      .dwtag  DW_TAG_typedef
     905                    .dwattr $C$DW$T$57, DW_AT_name("__register_t")
     906                    .dwattr $C$DW$T$57, DW_AT_type(*$C$DW$T$52)
     907                    .dwattr $C$DW$T$57, DW_AT_language(DW_LANG_C)
     908                    .dwattr $C$DW$T$57, DW_AT_decl_file("C:/ti/ccs1200/ccs/tools/compiler/ti-cgt-msp430_21.6.0.LTS
     909                    .dwattr $C$DW$T$57, DW_AT_decl_line(0x5f)
     910                    .dwattr $C$DW$T$57, DW_AT_decl_column(0x13)
     911            
     912            $C$DW$T$58      .dwtag  DW_TAG_typedef
     913                    .dwattr $C$DW$T$58, DW_AT_name("__nl_item")
     914                    .dwattr $C$DW$T$58, DW_AT_type(*$C$DW$T$10)
     915                    .dwattr $C$DW$T$58, DW_AT_language(DW_LANG_C)
MSP430 Assembler PC v21.6.0 Sat Apr  8 12:40:34 2023

Copyright (c) 2003-2018 Texas Instruments Incorporated
C:\Users\chand\AppData\Local\Temp\{04461AB9-8EB7-4402-A1F3-5574A1543DBF} PAGE   19

     916                    .dwattr $C$DW$T$58, DW_AT_decl_file("C:/ti/ccs1200/ccs/tools/compiler/ti-cgt-msp430_21.6.0.LTS
     917                    .dwattr $C$DW$T$58, DW_AT_decl_line(0x3c)
     918                    .dwattr $C$DW$T$58, DW_AT_decl_column(0x0e)
     919            
     920            $C$DW$T$59      .dwtag  DW_TAG_typedef
     921                    .dwattr $C$DW$T$59, DW_AT_name("__ptrdiff_t")
     922                    .dwattr $C$DW$T$59, DW_AT_type(*$C$DW$T$10)
     923                    .dwattr $C$DW$T$59, DW_AT_language(DW_LANG_C)
     924                    .dwattr $C$DW$T$59, DW_AT_decl_file("C:/ti/ccs1200/ccs/tools/compiler/ti-cgt-msp430_21.6.0.LTS
     925                    .dwattr $C$DW$T$59, DW_AT_decl_line(0x5e)
     926                    .dwattr $C$DW$T$59, DW_AT_decl_column(0x1c)
     927            
     928            $C$DW$T$11      .dwtag  DW_TAG_base_type
     929                    .dwattr $C$DW$T$11, DW_AT_encoding(DW_ATE_unsigned)
     930                    .dwattr $C$DW$T$11, DW_AT_name("unsigned int")
     931                    .dwattr $C$DW$T$11, DW_AT_byte_size(0x02)
     932            
     933            $C$DW$T$60      .dwtag  DW_TAG_typedef
     934                    .dwattr $C$DW$T$60, DW_AT_name("___wchar_t")
     935                    .dwattr $C$DW$T$60, DW_AT_type(*$C$DW$T$11)
     936                    .dwattr $C$DW$T$60, DW_AT_language(DW_LANG_C)
     937                    .dwattr $C$DW$T$60, DW_AT_decl_file("C:/ti/ccs1200/ccs/tools/compiler/ti-cgt-msp430_21.6.0.LTS
     938                    .dwattr $C$DW$T$60, DW_AT_decl_line(0x7d)
     939                    .dwattr $C$DW$T$60, DW_AT_decl_column(0x1a)
     940            
     941            $C$DW$T$61      .dwtag  DW_TAG_volatile_type
     942                    .dwattr $C$DW$T$61, DW_AT_type(*$C$DW$T$11)
     943            
     944            $C$DW$T$62      .dwtag  DW_TAG_typedef
     945                    .dwattr $C$DW$T$62, DW_AT_name("__size_t")
     946                    .dwattr $C$DW$T$62, DW_AT_type(*$C$DW$T$11)
     947                    .dwattr $C$DW$T$62, DW_AT_language(DW_LANG_C)
     948                    .dwattr $C$DW$T$62, DW_AT_decl_file("C:/ti/ccs1200/ccs/tools/compiler/ti-cgt-msp430_21.6.0.LTS
     949                    .dwattr $C$DW$T$62, DW_AT_decl_line(0x61)
     950                    .dwattr $C$DW$T$62, DW_AT_decl_column(0x19)
     951            
     952            $C$DW$T$63      .dwtag  DW_TAG_typedef
     953                    .dwattr $C$DW$T$63, DW_AT_name("__uint16_t")
     954                    .dwattr $C$DW$T$63, DW_AT_type(*$C$DW$T$11)
     955                    .dwattr $C$DW$T$63, DW_AT_language(DW_LANG_C)
     956                    .dwattr $C$DW$T$63, DW_AT_decl_file("C:/ti/ccs1200/ccs/tools/compiler/ti-cgt-msp430_21.6.0.LTS
     957                    .dwattr $C$DW$T$63, DW_AT_decl_line(0x39)
     958                    .dwattr $C$DW$T$63, DW_AT_decl_column(0x17)
     959            
     960            $C$DW$T$64      .dwtag  DW_TAG_typedef
     961                    .dwattr $C$DW$T$64, DW_AT_name("__mode_t")
     962                    .dwattr $C$DW$T$64, DW_AT_type(*$C$DW$T$63)
     963                    .dwattr $C$DW$T$64, DW_AT_language(DW_LANG_C)
     964                    .dwattr $C$DW$T$64, DW_AT_decl_file("C:/ti/ccs1200/ccs/tools/compiler/ti-cgt-msp430_21.6.0.LTS
     965                    .dwattr $C$DW$T$64, DW_AT_decl_line(0x3a)
     966                    .dwattr $C$DW$T$64, DW_AT_decl_column(0x14)
     967            
     968            $C$DW$T$65      .dwtag  DW_TAG_typedef
     969                    .dwattr $C$DW$T$65, DW_AT_name("__u_register_t")
     970                    .dwattr $C$DW$T$65, DW_AT_type(*$C$DW$T$63)
MSP430 Assembler PC v21.6.0 Sat Apr  8 12:40:34 2023

Copyright (c) 2003-2018 Texas Instruments Incorporated
C:\Users\chand\AppData\Local\Temp\{04461AB9-8EB7-4402-A1F3-5574A1543DBF} PAGE   20

     971                    .dwattr $C$DW$T$65, DW_AT_language(DW_LANG_C)
     972                    .dwattr $C$DW$T$65, DW_AT_decl_file("C:/ti/ccs1200/ccs/tools/compiler/ti-cgt-msp430_21.6.0.LTS
     973                    .dwattr $C$DW$T$65, DW_AT_decl_line(0x78)
     974                    .dwattr $C$DW$T$65, DW_AT_decl_column(0x14)
     975            
     976            $C$DW$T$66      .dwtag  DW_TAG_typedef
     977                    .dwattr $C$DW$T$66, DW_AT_name("__uint_fast16_t")
     978                    .dwattr $C$DW$T$66, DW_AT_type(*$C$DW$T$63)
     979                    .dwattr $C$DW$T$66, DW_AT_language(DW_LANG_C)
     980                    .dwattr $C$DW$T$66, DW_AT_decl_file("C:/ti/ccs1200/ccs/tools/compiler/ti-cgt-msp430_21.6.0.LTS
     981                    .dwattr $C$DW$T$66, DW_AT_decl_line(0x71)
     982                    .dwattr $C$DW$T$66, DW_AT_decl_column(0x14)
     983            
     984            $C$DW$T$67      .dwtag  DW_TAG_typedef
     985                    .dwattr $C$DW$T$67, DW_AT_name("__uint_fast8_t")
     986                    .dwattr $C$DW$T$67, DW_AT_type(*$C$DW$T$63)
     987                    .dwattr $C$DW$T$67, DW_AT_language(DW_LANG_C)
     988                    .dwattr $C$DW$T$67, DW_AT_decl_file("C:/ti/ccs1200/ccs/tools/compiler/ti-cgt-msp430_21.6.0.LTS
     989                    .dwattr $C$DW$T$67, DW_AT_decl_line(0x70)
     990                    .dwattr $C$DW$T$67, DW_AT_decl_column(0x14)
     991            
     992            $C$DW$T$68      .dwtag  DW_TAG_typedef
     993                    .dwattr $C$DW$T$68, DW_AT_name("__uint_least16_t")
     994                    .dwattr $C$DW$T$68, DW_AT_type(*$C$DW$T$63)
     995                    .dwattr $C$DW$T$68, DW_AT_language(DW_LANG_C)
     996                    .dwattr $C$DW$T$68, DW_AT_decl_file("C:/ti/ccs1200/ccs/tools/compiler/ti-cgt-msp430_21.6.0.LTS
     997                    .dwattr $C$DW$T$68, DW_AT_decl_line(0x75)
     998                    .dwattr $C$DW$T$68, DW_AT_decl_column(0x14)
     999            
    1000            $C$DW$T$69      .dwtag  DW_TAG_typedef
    1001                    .dwattr $C$DW$T$69, DW_AT_name("__char16_t")
    1002                    .dwattr $C$DW$T$69, DW_AT_type(*$C$DW$T$68)
    1003                    .dwattr $C$DW$T$69, DW_AT_language(DW_LANG_C)
    1004                    .dwattr $C$DW$T$69, DW_AT_decl_file("C:/ti/ccs1200/ccs/tools/compiler/ti-cgt-msp430_21.6.0.LTS
    1005                    .dwattr $C$DW$T$69, DW_AT_decl_line(0x71)
    1006                    .dwattr $C$DW$T$69, DW_AT_decl_column(0x1a)
    1007            
    1008            $C$DW$T$70      .dwtag  DW_TAG_typedef
    1009                    .dwattr $C$DW$T$70, DW_AT_name("__uintptr_t")
    1010                    .dwattr $C$DW$T$70, DW_AT_type(*$C$DW$T$63)
    1011                    .dwattr $C$DW$T$70, DW_AT_language(DW_LANG_C)
    1012                    .dwattr $C$DW$T$70, DW_AT_decl_file("C:/ti/ccs1200/ccs/tools/compiler/ti-cgt-msp430_21.6.0.LTS
    1013                    .dwattr $C$DW$T$70, DW_AT_decl_line(0x6d)
    1014                    .dwattr $C$DW$T$70, DW_AT_decl_column(0x14)
    1015            
    1016            $C$DW$T$71      .dwtag  DW_TAG_typedef
    1017                    .dwattr $C$DW$T$71, DW_AT_name("__useconds_t")
    1018                    .dwattr $C$DW$T$71, DW_AT_type(*$C$DW$T$11)
    1019                    .dwattr $C$DW$T$71, DW_AT_language(DW_LANG_C)
    1020                    .dwattr $C$DW$T$71, DW_AT_decl_file("C:/ti/ccs1200/ccs/tools/compiler/ti-cgt-msp430_21.6.0.LTS
    1021                    .dwattr $C$DW$T$71, DW_AT_decl_line(0x4e)
    1022                    .dwattr $C$DW$T$71, DW_AT_decl_column(0x16)
    1023            
    1024            $C$DW$T$72      .dwtag  DW_TAG_typedef
    1025                    .dwattr $C$DW$T$72, DW_AT_name("size_t")
MSP430 Assembler PC v21.6.0 Sat Apr  8 12:40:34 2023

Copyright (c) 2003-2018 Texas Instruments Incorporated
C:\Users\chand\AppData\Local\Temp\{04461AB9-8EB7-4402-A1F3-5574A1543DBF} PAGE   21

    1026                    .dwattr $C$DW$T$72, DW_AT_type(*$C$DW$T$11)
    1027                    .dwattr $C$DW$T$72, DW_AT_language(DW_LANG_C)
    1028                    .dwattr $C$DW$T$72, DW_AT_decl_file("C:/ti/ccs1200/ccs/tools/compiler/ti-cgt-msp430_21.6.0.LTS
    1029                    .dwattr $C$DW$T$72, DW_AT_decl_line(0x4d)
    1030                    .dwattr $C$DW$T$72, DW_AT_decl_column(0x19)
    1031            
    1032            $C$DW$T$12      .dwtag  DW_TAG_base_type
    1033                    .dwattr $C$DW$T$12, DW_AT_encoding(DW_ATE_signed)
    1034                    .dwattr $C$DW$T$12, DW_AT_name("long")
    1035                    .dwattr $C$DW$T$12, DW_AT_byte_size(0x04)
    1036            
    1037            $C$DW$T$73      .dwtag  DW_TAG_typedef
    1038                    .dwattr $C$DW$T$73, DW_AT_name("__int32_t")
    1039                    .dwattr $C$DW$T$73, DW_AT_type(*$C$DW$T$12)
    1040                    .dwattr $C$DW$T$73, DW_AT_language(DW_LANG_C)
    1041                    .dwattr $C$DW$T$73, DW_AT_decl_file("C:/ti/ccs1200/ccs/tools/compiler/ti-cgt-msp430_21.6.0.LTS
    1042                    .dwattr $C$DW$T$73, DW_AT_decl_line(0x3a)
    1043                    .dwattr $C$DW$T$73, DW_AT_decl_column(0x10)
    1044            
    1045            $C$DW$T$74      .dwtag  DW_TAG_typedef
    1046                    .dwattr $C$DW$T$74, DW_AT_name("__blksize_t")
    1047                    .dwattr $C$DW$T$74, DW_AT_type(*$C$DW$T$73)
    1048                    .dwattr $C$DW$T$74, DW_AT_language(DW_LANG_C)
    1049                    .dwattr $C$DW$T$74, DW_AT_decl_file("C:/ti/ccs1200/ccs/tools/compiler/ti-cgt-msp430_21.6.0.LTS
    1050                    .dwattr $C$DW$T$74, DW_AT_decl_line(0x2f)
    1051                    .dwattr $C$DW$T$74, DW_AT_decl_column(0x13)
    1052            
    1053            $C$DW$T$75      .dwtag  DW_TAG_typedef
    1054                    .dwattr $C$DW$T$75, DW_AT_name("__clockid_t")
    1055                    .dwattr $C$DW$T$75, DW_AT_type(*$C$DW$T$73)
    1056                    .dwattr $C$DW$T$75, DW_AT_language(DW_LANG_C)
    1057                    .dwattr $C$DW$T$75, DW_AT_decl_file("C:/ti/ccs1200/ccs/tools/compiler/ti-cgt-msp430_21.6.0.LTS
    1058                    .dwattr $C$DW$T$75, DW_AT_decl_line(0x31)
    1059                    .dwattr $C$DW$T$75, DW_AT_decl_column(0x13)
    1060            
    1061            $C$DW$T$76      .dwtag  DW_TAG_typedef
    1062                    .dwattr $C$DW$T$76, DW_AT_name("__critical_t")
    1063                    .dwattr $C$DW$T$76, DW_AT_type(*$C$DW$T$73)
    1064                    .dwattr $C$DW$T$76, DW_AT_language(DW_LANG_C)
    1065                    .dwattr $C$DW$T$76, DW_AT_decl_file("C:/ti/ccs1200/ccs/tools/compiler/ti-cgt-msp430_21.6.0.LTS
    1066                    .dwattr $C$DW$T$76, DW_AT_decl_line(0x4b)
    1067                    .dwattr $C$DW$T$76, DW_AT_decl_column(0x13)
    1068            
    1069            $C$DW$T$77      .dwtag  DW_TAG_typedef
    1070                    .dwattr $C$DW$T$77, DW_AT_name("__int_fast32_t")
    1071                    .dwattr $C$DW$T$77, DW_AT_type(*$C$DW$T$73)
    1072                    .dwattr $C$DW$T$77, DW_AT_language(DW_LANG_C)
    1073                    .dwattr $C$DW$T$77, DW_AT_decl_file("C:/ti/ccs1200/ccs/tools/compiler/ti-cgt-msp430_21.6.0.LTS
    1074                    .dwattr $C$DW$T$77, DW_AT_decl_line(0x58)
    1075                    .dwattr $C$DW$T$77, DW_AT_decl_column(0x13)
    1076            
    1077            $C$DW$T$78      .dwtag  DW_TAG_typedef
    1078                    .dwattr $C$DW$T$78, DW_AT_name("__int_least32_t")
    1079                    .dwattr $C$DW$T$78, DW_AT_type(*$C$DW$T$73)
    1080                    .dwattr $C$DW$T$78, DW_AT_language(DW_LANG_C)
MSP430 Assembler PC v21.6.0 Sat Apr  8 12:40:34 2023

Copyright (c) 2003-2018 Texas Instruments Incorporated
C:\Users\chand\AppData\Local\Temp\{04461AB9-8EB7-4402-A1F3-5574A1543DBF} PAGE   22

    1081                    .dwattr $C$DW$T$78, DW_AT_decl_file("C:/ti/ccs1200/ccs/tools/compiler/ti-cgt-msp430_21.6.0.LTS
    1082                    .dwattr $C$DW$T$78, DW_AT_decl_line(0x5c)
    1083                    .dwattr $C$DW$T$78, DW_AT_decl_column(0x13)
    1084            
    1085            $C$DW$T$79      .dwtag  DW_TAG_typedef
    1086                    .dwattr $C$DW$T$79, DW_AT_name("__intfptr_t")
    1087                    .dwattr $C$DW$T$79, DW_AT_type(*$C$DW$T$73)
    1088                    .dwattr $C$DW$T$79, DW_AT_language(DW_LANG_C)
    1089                    .dwattr $C$DW$T$79, DW_AT_decl_file("C:/ti/ccs1200/ccs/tools/compiler/ti-cgt-msp430_21.6.0.LTS
    1090                    .dwattr $C$DW$T$79, DW_AT_decl_line(0x4e)
    1091                    .dwattr $C$DW$T$79, DW_AT_decl_column(0x13)
    1092            
    1093            $C$DW$T$80      .dwtag  DW_TAG_typedef
    1094                    .dwattr $C$DW$T$80, DW_AT_name("__lwpid_t")
    1095                    .dwattr $C$DW$T$80, DW_AT_type(*$C$DW$T$73)
    1096                    .dwattr $C$DW$T$80, DW_AT_language(DW_LANG_C)
    1097                    .dwattr $C$DW$T$80, DW_AT_decl_file("C:/ti/ccs1200/ccs/tools/compiler/ti-cgt-msp430_21.6.0.LTS
    1098                    .dwattr $C$DW$T$80, DW_AT_decl_line(0x39)
    1099                    .dwattr $C$DW$T$80, DW_AT_decl_column(0x13)
    1100            
    1101            $C$DW$T$81      .dwtag  DW_TAG_typedef
    1102                    .dwattr $C$DW$T$81, DW_AT_name("__pid_t")
    1103                    .dwattr $C$DW$T$81, DW_AT_type(*$C$DW$T$73)
    1104                    .dwattr $C$DW$T$81, DW_AT_language(DW_LANG_C)
    1105                    .dwattr $C$DW$T$81, DW_AT_decl_file("C:/ti/ccs1200/ccs/tools/compiler/ti-cgt-msp430_21.6.0.LTS
    1106                    .dwattr $C$DW$T$81, DW_AT_decl_line(0x40)
    1107                    .dwattr $C$DW$T$81, DW_AT_decl_column(0x13)
    1108            
    1109            $C$DW$T$82      .dwtag  DW_TAG_typedef
    1110                    .dwattr $C$DW$T$82, DW_AT_name("__segsz_t")
    1111                    .dwattr $C$DW$T$82, DW_AT_type(*$C$DW$T$73)
    1112                    .dwattr $C$DW$T$82, DW_AT_language(DW_LANG_C)
    1113                    .dwattr $C$DW$T$82, DW_AT_decl_file("C:/ti/ccs1200/ccs/tools/compiler/ti-cgt-msp430_21.6.0.LTS
    1114                    .dwattr $C$DW$T$82, DW_AT_decl_line(0x60)
    1115                    .dwattr $C$DW$T$82, DW_AT_decl_column(0x13)
    1116            
    1117            $C$DW$T$83      .dwtag  DW_TAG_typedef
    1118                    .dwattr $C$DW$T$83, DW_AT_name("__ssize_t")
    1119                    .dwattr $C$DW$T$83, DW_AT_type(*$C$DW$T$73)
    1120                    .dwattr $C$DW$T$83, DW_AT_language(DW_LANG_C)
    1121                    .dwattr $C$DW$T$83, DW_AT_decl_file("C:/ti/ccs1200/ccs/tools/compiler/ti-cgt-msp430_21.6.0.LTS
    1122                    .dwattr $C$DW$T$83, DW_AT_decl_line(0x62)
    1123                    .dwattr $C$DW$T$83, DW_AT_decl_column(0x13)
    1124            
    1125            $C$DW$T$84      .dwtag  DW_TAG_typedef
    1126                    .dwattr $C$DW$T$84, DW_AT_name("__key_t")
    1127                    .dwattr $C$DW$T$84, DW_AT_type(*$C$DW$T$12)
    1128                    .dwattr $C$DW$T$84, DW_AT_language(DW_LANG_C)
    1129                    .dwattr $C$DW$T$84, DW_AT_decl_file("C:/ti/ccs1200/ccs/tools/compiler/ti-cgt-msp430_21.6.0.LTS
    1130                    .dwattr $C$DW$T$84, DW_AT_decl_line(0x38)
    1131                    .dwattr $C$DW$T$84, DW_AT_decl_column(0x0f)
    1132            
    1133            $C$DW$T$85      .dwtag  DW_TAG_typedef
    1134                    .dwattr $C$DW$T$85, DW_AT_name("__suseconds_t")
    1135                    .dwattr $C$DW$T$85, DW_AT_type(*$C$DW$T$12)
MSP430 Assembler PC v21.6.0 Sat Apr  8 12:40:34 2023

Copyright (c) 2003-2018 Texas Instruments Incorporated
C:\Users\chand\AppData\Local\Temp\{04461AB9-8EB7-4402-A1F3-5574A1543DBF} PAGE   23

    1136                    .dwattr $C$DW$T$85, DW_AT_language(DW_LANG_C)
    1137                    .dwattr $C$DW$T$85, DW_AT_decl_file("C:/ti/ccs1200/ccs/tools/compiler/ti-cgt-msp430_21.6.0.LTS
    1138                    .dwattr $C$DW$T$85, DW_AT_decl_line(0x4a)
    1139                    .dwattr $C$DW$T$85, DW_AT_decl_column(0x0f)
    1140            
    1141            $C$DW$T$86      .dwtag  DW_TAG_typedef
    1142                    .dwattr $C$DW$T$86, DW_AT_name("_off_t")
    1143                    .dwattr $C$DW$T$86, DW_AT_type(*$C$DW$T$12)
    1144                    .dwattr $C$DW$T$86, DW_AT_language(DW_LANG_C)
    1145                    .dwattr $C$DW$T$86, DW_AT_decl_file("C:/ti/ccs1200/ccs/tools/compiler/ti-cgt-msp430_21.6.0.LTS
    1146                    .dwattr $C$DW$T$86, DW_AT_decl_line(0x8d)
    1147                    .dwattr $C$DW$T$86, DW_AT_decl_column(0x12)
    1148            
    1149            $C$DW$T$87      .dwtag  DW_TAG_typedef
    1150                    .dwattr $C$DW$T$87, DW_AT_name("__off_t")
    1151                    .dwattr $C$DW$T$87, DW_AT_type(*$C$DW$T$86)
    1152                    .dwattr $C$DW$T$87, DW_AT_language(DW_LANG_C)
    1153                    .dwattr $C$DW$T$87, DW_AT_decl_file("C:/ti/ccs1200/ccs/tools/compiler/ti-cgt-msp430_21.6.0.LTS
    1154                    .dwattr $C$DW$T$87, DW_AT_decl_line(0x3e)
    1155                    .dwattr $C$DW$T$87, DW_AT_decl_column(0x18)
    1156            
    1157            $C$DW$T$88      .dwtag  DW_TAG_typedef
    1158                    .dwattr $C$DW$T$88, DW_AT_name("fpos_t")
    1159                    .dwattr $C$DW$T$88, DW_AT_type(*$C$DW$T$12)
    1160                    .dwattr $C$DW$T$88, DW_AT_language(DW_LANG_C)
    1161                    .dwattr $C$DW$T$88, DW_AT_decl_file("C:/ti/ccs1200/ccs/tools/compiler/ti-cgt-msp430_21.6.0.LTS
    1162                    .dwattr $C$DW$T$88, DW_AT_decl_line(0x6b)
    1163                    .dwattr $C$DW$T$88, DW_AT_decl_column(0x0e)
    1164            
    1165            $C$DW$T$89      .dwtag  DW_TAG_typedef
    1166                    .dwattr $C$DW$T$89, DW_AT_name("off_t")
    1167                    .dwattr $C$DW$T$89, DW_AT_type(*$C$DW$T$12)
    1168                    .dwattr $C$DW$T$89, DW_AT_language(DW_LANG_C)
    1169                    .dwattr $C$DW$T$89, DW_AT_decl_file("C:/ti/ccs1200/ccs/tools/compiler/ti-cgt-msp430_21.6.0.LTS
    1170                    .dwattr $C$DW$T$89, DW_AT_decl_line(0x74)
    1171                    .dwattr $C$DW$T$89, DW_AT_decl_column(0x0e)
    1172            
    1173            $C$DW$T$13      .dwtag  DW_TAG_base_type
    1174                    .dwattr $C$DW$T$13, DW_AT_encoding(DW_ATE_unsigned)
    1175                    .dwattr $C$DW$T$13, DW_AT_name("unsigned long")
    1176                    .dwattr $C$DW$T$13, DW_AT_byte_size(0x04)
    1177            
    1178            $C$DW$T$90      .dwtag  DW_TAG_typedef
    1179                    .dwattr $C$DW$T$90, DW_AT_name("__uint32_t")
    1180                    .dwattr $C$DW$T$90, DW_AT_type(*$C$DW$T$13)
    1181                    .dwattr $C$DW$T$90, DW_AT_language(DW_LANG_C)
    1182                    .dwattr $C$DW$T$90, DW_AT_decl_file("C:/ti/ccs1200/ccs/tools/compiler/ti-cgt-msp430_21.6.0.LTS
    1183                    .dwattr $C$DW$T$90, DW_AT_decl_line(0x3b)
    1184                    .dwattr $C$DW$T$90, DW_AT_decl_column(0x18)
    1185            
    1186            $C$DW$T$91      .dwtag  DW_TAG_typedef
    1187                    .dwattr $C$DW$T$91, DW_AT_name("__clock_t")
    1188                    .dwattr $C$DW$T$91, DW_AT_type(*$C$DW$T$90)
    1189                    .dwattr $C$DW$T$91, DW_AT_language(DW_LANG_C)
    1190                    .dwattr $C$DW$T$91, DW_AT_decl_file("C:/ti/ccs1200/ccs/tools/compiler/ti-cgt-msp430_21.6.0.LTS
MSP430 Assembler PC v21.6.0 Sat Apr  8 12:40:34 2023

Copyright (c) 2003-2018 Texas Instruments Incorporated
C:\Users\chand\AppData\Local\Temp\{04461AB9-8EB7-4402-A1F3-5574A1543DBF} PAGE   24

    1191                    .dwattr $C$DW$T$91, DW_AT_decl_line(0x4a)
    1192                    .dwattr $C$DW$T$91, DW_AT_decl_column(0x14)
    1193            
    1194            $C$DW$T$92      .dwtag  DW_TAG_typedef
    1195                    .dwattr $C$DW$T$92, DW_AT_name("__fflags_t")
    1196                    .dwattr $C$DW$T$92, DW_AT_type(*$C$DW$T$90)
    1197                    .dwattr $C$DW$T$92, DW_AT_language(DW_LANG_C)
    1198                    .dwattr $C$DW$T$92, DW_AT_decl_file("C:/ti/ccs1200/ccs/tools/compiler/ti-cgt-msp430_21.6.0.LTS
    1199                    .dwattr $C$DW$T$92, DW_AT_decl_line(0x32)
    1200                    .dwattr $C$DW$T$92, DW_AT_decl_column(0x14)
    1201            
    1202            $C$DW$T$93      .dwtag  DW_TAG_typedef
    1203                    .dwattr $C$DW$T$93, DW_AT_name("__fixpt_t")
    1204                    .dwattr $C$DW$T$93, DW_AT_type(*$C$DW$T$90)
    1205                    .dwattr $C$DW$T$93, DW_AT_language(DW_LANG_C)
    1206                    .dwattr $C$DW$T$93, DW_AT_decl_file("C:/ti/ccs1200/ccs/tools/compiler/ti-cgt-msp430_21.6.0.LTS
    1207                    .dwattr $C$DW$T$93, DW_AT_decl_line(0x81)
    1208                    .dwattr $C$DW$T$93, DW_AT_decl_column(0x14)
    1209            
    1210            $C$DW$T$94      .dwtag  DW_TAG_typedef
    1211                    .dwattr $C$DW$T$94, DW_AT_name("__gid_t")
    1212                    .dwattr $C$DW$T$94, DW_AT_type(*$C$DW$T$90)
    1213                    .dwattr $C$DW$T$94, DW_AT_language(DW_LANG_C)
    1214                    .dwattr $C$DW$T$94, DW_AT_decl_file("C:/ti/ccs1200/ccs/tools/compiler/ti-cgt-msp430_21.6.0.LTS
    1215                    .dwattr $C$DW$T$94, DW_AT_decl_line(0x35)
    1216                    .dwattr $C$DW$T$94, DW_AT_decl_column(0x14)
    1217            
    1218            $C$DW$T$95      .dwtag  DW_TAG_typedef
    1219                    .dwattr $C$DW$T$95, DW_AT_name("__socklen_t")
    1220                    .dwattr $C$DW$T$95, DW_AT_type(*$C$DW$T$90)
    1221                    .dwattr $C$DW$T$95, DW_AT_language(DW_LANG_C)
    1222                    .dwattr $C$DW$T$95, DW_AT_decl_file("C:/ti/ccs1200/ccs/tools/compiler/ti-cgt-msp430_21.6.0.LTS
    1223                    .dwattr $C$DW$T$95, DW_AT_decl_line(0x49)
    1224                    .dwattr $C$DW$T$95, DW_AT_decl_column(0x14)
    1225            
    1226            $C$DW$T$96      .dwtag  DW_TAG_typedef
    1227                    .dwattr $C$DW$T$96, DW_AT_name("__time_t")
    1228                    .dwattr $C$DW$T$96, DW_AT_type(*$C$DW$T$90)
    1229                    .dwattr $C$DW$T$96, DW_AT_language(DW_LANG_C)
    1230                    .dwattr $C$DW$T$96, DW_AT_decl_file("C:/ti/ccs1200/ccs/tools/compiler/ti-cgt-msp430_21.6.0.LTS
    1231                    .dwattr $C$DW$T$96, DW_AT_decl_line(0x66)
    1232                    .dwattr $C$DW$T$96, DW_AT_decl_column(0x19)
    1233            
    1234            $C$DW$T$97      .dwtag  DW_TAG_typedef
    1235                    .dwattr $C$DW$T$97, DW_AT_name("__uid_t")
    1236                    .dwattr $C$DW$T$97, DW_AT_type(*$C$DW$T$90)
    1237                    .dwattr $C$DW$T$97, DW_AT_language(DW_LANG_C)
    1238                    .dwattr $C$DW$T$97, DW_AT_decl_file("C:/ti/ccs1200/ccs/tools/compiler/ti-cgt-msp430_21.6.0.LTS
    1239                    .dwattr $C$DW$T$97, DW_AT_decl_line(0x4d)
    1240                    .dwattr $C$DW$T$97, DW_AT_decl_column(0x14)
    1241            
    1242            $C$DW$T$98      .dwtag  DW_TAG_typedef
    1243                    .dwattr $C$DW$T$98, DW_AT_name("__uint_fast32_t")
    1244                    .dwattr $C$DW$T$98, DW_AT_type(*$C$DW$T$90)
    1245                    .dwattr $C$DW$T$98, DW_AT_language(DW_LANG_C)
MSP430 Assembler PC v21.6.0 Sat Apr  8 12:40:34 2023

Copyright (c) 2003-2018 Texas Instruments Incorporated
C:\Users\chand\AppData\Local\Temp\{04461AB9-8EB7-4402-A1F3-5574A1543DBF} PAGE   25

    1246                    .dwattr $C$DW$T$98, DW_AT_decl_file("C:/ti/ccs1200/ccs/tools/compiler/ti-cgt-msp430_21.6.0.LTS
    1247                    .dwattr $C$DW$T$98, DW_AT_decl_line(0x72)
    1248                    .dwattr $C$DW$T$98, DW_AT_decl_column(0x14)
    1249            
    1250            $C$DW$T$99      .dwtag  DW_TAG_typedef
    1251                    .dwattr $C$DW$T$99, DW_AT_name("__uint_least32_t")
    1252                    .dwattr $C$DW$T$99, DW_AT_type(*$C$DW$T$90)
    1253                    .dwattr $C$DW$T$99, DW_AT_language(DW_LANG_C)
    1254                    .dwattr $C$DW$T$99, DW_AT_decl_file("C:/ti/ccs1200/ccs/tools/compiler/ti-cgt-msp430_21.6.0.LTS
    1255                    .dwattr $C$DW$T$99, DW_AT_decl_line(0x76)
    1256                    .dwattr $C$DW$T$99, DW_AT_decl_column(0x14)
    1257            
    1258            $C$DW$T$100     .dwtag  DW_TAG_typedef
    1259                    .dwattr $C$DW$T$100, DW_AT_name("__char32_t")
    1260                    .dwattr $C$DW$T$100, DW_AT_type(*$C$DW$T$99)
    1261                    .dwattr $C$DW$T$100, DW_AT_language(DW_LANG_C)
    1262                    .dwattr $C$DW$T$100, DW_AT_decl_file("C:/ti/ccs1200/ccs/tools/compiler/ti-cgt-msp430_21.6.0.LT
    1263                    .dwattr $C$DW$T$100, DW_AT_decl_line(0x72)
    1264                    .dwattr $C$DW$T$100, DW_AT_decl_column(0x1a)
    1265            
    1266            $C$DW$T$101     .dwtag  DW_TAG_typedef
    1267                    .dwattr $C$DW$T$101, DW_AT_name("__uintfptr_t")
    1268                    .dwattr $C$DW$T$101, DW_AT_type(*$C$DW$T$90)
    1269                    .dwattr $C$DW$T$101, DW_AT_language(DW_LANG_C)
    1270                    .dwattr $C$DW$T$101, DW_AT_decl_file("C:/ti/ccs1200/ccs/tools/compiler/ti-cgt-msp430_21.6.0.LT
    1271                    .dwattr $C$DW$T$101, DW_AT_decl_line(0x68)
    1272                    .dwattr $C$DW$T$101, DW_AT_decl_column(0x14)
    1273            
    1274            $C$DW$T$102     .dwtag  DW_TAG_typedef
    1275                    .dwattr $C$DW$T$102, DW_AT_name("__vm_offset_t")
    1276                    .dwattr $C$DW$T$102, DW_AT_type(*$C$DW$T$90)
    1277                    .dwattr $C$DW$T$102, DW_AT_language(DW_LANG_C)
    1278                    .dwattr $C$DW$T$102, DW_AT_decl_file("C:/ti/ccs1200/ccs/tools/compiler/ti-cgt-msp430_21.6.0.LT
    1279                    .dwattr $C$DW$T$102, DW_AT_decl_line(0x79)
    1280                    .dwattr $C$DW$T$102, DW_AT_decl_column(0x14)
    1281            
    1282            $C$DW$T$103     .dwtag  DW_TAG_typedef
    1283                    .dwattr $C$DW$T$103, DW_AT_name("__vm_paddr_t")
    1284                    .dwattr $C$DW$T$103, DW_AT_type(*$C$DW$T$90)
    1285                    .dwattr $C$DW$T$103, DW_AT_language(DW_LANG_C)
    1286                    .dwattr $C$DW$T$103, DW_AT_decl_file("C:/ti/ccs1200/ccs/tools/compiler/ti-cgt-msp430_21.6.0.LT
    1287                    .dwattr $C$DW$T$103, DW_AT_decl_line(0x7a)
    1288                    .dwattr $C$DW$T$103, DW_AT_decl_column(0x14)
    1289            
    1290            $C$DW$T$104     .dwtag  DW_TAG_typedef
    1291                    .dwattr $C$DW$T$104, DW_AT_name("__vm_size_t")
    1292                    .dwattr $C$DW$T$104, DW_AT_type(*$C$DW$T$90)
    1293                    .dwattr $C$DW$T$104, DW_AT_language(DW_LANG_C)
    1294                    .dwattr $C$DW$T$104, DW_AT_decl_file("C:/ti/ccs1200/ccs/tools/compiler/ti-cgt-msp430_21.6.0.LT
    1295                    .dwattr $C$DW$T$104, DW_AT_decl_line(0x7b)
    1296                    .dwattr $C$DW$T$104, DW_AT_decl_column(0x14)
    1297            
    1298            $C$DW$T$14      .dwtag  DW_TAG_base_type
    1299                    .dwattr $C$DW$T$14, DW_AT_encoding(DW_ATE_signed)
    1300                    .dwattr $C$DW$T$14, DW_AT_name("long long")
MSP430 Assembler PC v21.6.0 Sat Apr  8 12:40:34 2023

Copyright (c) 2003-2018 Texas Instruments Incorporated
C:\Users\chand\AppData\Local\Temp\{04461AB9-8EB7-4402-A1F3-5574A1543DBF} PAGE   26

    1301                    .dwattr $C$DW$T$14, DW_AT_byte_size(0x08)
    1302            
    1303            $C$DW$T$105     .dwtag  DW_TAG_typedef
    1304                    .dwattr $C$DW$T$105, DW_AT_name("__int64_t")
    1305                    .dwattr $C$DW$T$105, DW_AT_type(*$C$DW$T$14)
    1306                    .dwattr $C$DW$T$105, DW_AT_language(DW_LANG_C)
    1307                    .dwattr $C$DW$T$105, DW_AT_decl_file("C:/ti/ccs1200/ccs/tools/compiler/ti-cgt-msp430_21.6.0.LT
    1308                    .dwattr $C$DW$T$105, DW_AT_decl_line(0x40)
    1309                    .dwattr $C$DW$T$105, DW_AT_decl_column(0x14)
    1310            
    1311            $C$DW$T$106     .dwtag  DW_TAG_typedef
    1312                    .dwattr $C$DW$T$106, DW_AT_name("__blkcnt_t")
    1313                    .dwattr $C$DW$T$106, DW_AT_type(*$C$DW$T$105)
    1314                    .dwattr $C$DW$T$106, DW_AT_language(DW_LANG_C)
    1315                    .dwattr $C$DW$T$106, DW_AT_decl_file("C:/ti/ccs1200/ccs/tools/compiler/ti-cgt-msp430_21.6.0.LT
    1316                    .dwattr $C$DW$T$106, DW_AT_decl_line(0x30)
    1317                    .dwattr $C$DW$T$106, DW_AT_decl_column(0x13)
    1318            
    1319            $C$DW$T$107     .dwtag  DW_TAG_typedef
    1320                    .dwattr $C$DW$T$107, DW_AT_name("__id_t")
    1321                    .dwattr $C$DW$T$107, DW_AT_type(*$C$DW$T$105)
    1322                    .dwattr $C$DW$T$107, DW_AT_language(DW_LANG_C)
    1323                    .dwattr $C$DW$T$107, DW_AT_decl_file("C:/ti/ccs1200/ccs/tools/compiler/ti-cgt-msp430_21.6.0.LT
    1324                    .dwattr $C$DW$T$107, DW_AT_decl_line(0x36)
    1325                    .dwattr $C$DW$T$107, DW_AT_decl_column(0x13)
    1326            
    1327            $C$DW$T$108     .dwtag  DW_TAG_typedef
    1328                    .dwattr $C$DW$T$108, DW_AT_name("__int_fast64_t")
    1329                    .dwattr $C$DW$T$108, DW_AT_type(*$C$DW$T$105)
    1330                    .dwattr $C$DW$T$108, DW_AT_language(DW_LANG_C)
    1331                    .dwattr $C$DW$T$108, DW_AT_decl_file("C:/ti/ccs1200/ccs/tools/compiler/ti-cgt-msp430_21.6.0.LT
    1332                    .dwattr $C$DW$T$108, DW_AT_decl_line(0x59)
    1333                    .dwattr $C$DW$T$108, DW_AT_decl_column(0x13)
    1334            
    1335            $C$DW$T$109     .dwtag  DW_TAG_typedef
    1336                    .dwattr $C$DW$T$109, DW_AT_name("__int_least64_t")
    1337                    .dwattr $C$DW$T$109, DW_AT_type(*$C$DW$T$105)
    1338                    .dwattr $C$DW$T$109, DW_AT_language(DW_LANG_C)
    1339                    .dwattr $C$DW$T$109, DW_AT_decl_file("C:/ti/ccs1200/ccs/tools/compiler/ti-cgt-msp430_21.6.0.LT
    1340                    .dwattr $C$DW$T$109, DW_AT_decl_line(0x5d)
    1341                    .dwattr $C$DW$T$109, DW_AT_decl_column(0x13)
    1342            
    1343            $C$DW$T$110     .dwtag  DW_TAG_typedef
    1344                    .dwattr $C$DW$T$110, DW_AT_name("__intmax_t")
    1345                    .dwattr $C$DW$T$110, DW_AT_type(*$C$DW$T$105)
    1346                    .dwattr $C$DW$T$110, DW_AT_language(DW_LANG_C)
    1347                    .dwattr $C$DW$T$110, DW_AT_decl_file("C:/ti/ccs1200/ccs/tools/compiler/ti-cgt-msp430_21.6.0.LT
    1348                    .dwattr $C$DW$T$110, DW_AT_decl_line(0x4f)
    1349                    .dwattr $C$DW$T$110, DW_AT_decl_column(0x13)
    1350            
    1351            $C$DW$T$111     .dwtag  DW_TAG_typedef
    1352                    .dwattr $C$DW$T$111, DW_AT_name("__off64_t")
    1353                    .dwattr $C$DW$T$111, DW_AT_type(*$C$DW$T$105)
    1354                    .dwattr $C$DW$T$111, DW_AT_language(DW_LANG_C)
    1355                    .dwattr $C$DW$T$111, DW_AT_decl_file("C:/ti/ccs1200/ccs/tools/compiler/ti-cgt-msp430_21.6.0.LT
MSP430 Assembler PC v21.6.0 Sat Apr  8 12:40:34 2023

Copyright (c) 2003-2018 Texas Instruments Incorporated
C:\Users\chand\AppData\Local\Temp\{04461AB9-8EB7-4402-A1F3-5574A1543DBF} PAGE   27

    1356                    .dwattr $C$DW$T$111, DW_AT_decl_line(0x3f)
    1357                    .dwattr $C$DW$T$111, DW_AT_decl_column(0x13)
    1358            
    1359            $C$DW$T$112     .dwtag  DW_TAG_typedef
    1360                    .dwattr $C$DW$T$112, DW_AT_name("__rlim_t")
    1361                    .dwattr $C$DW$T$112, DW_AT_type(*$C$DW$T$105)
    1362                    .dwattr $C$DW$T$112, DW_AT_language(DW_LANG_C)
    1363                    .dwattr $C$DW$T$112, DW_AT_decl_file("C:/ti/ccs1200/ccs/tools/compiler/ti-cgt-msp430_21.6.0.LT
    1364                    .dwattr $C$DW$T$112, DW_AT_decl_line(0x41)
    1365                    .dwattr $C$DW$T$112, DW_AT_decl_column(0x13)
    1366            
    1367            $C$DW$T$15      .dwtag  DW_TAG_base_type
    1368                    .dwattr $C$DW$T$15, DW_AT_encoding(DW_ATE_unsigned)
    1369                    .dwattr $C$DW$T$15, DW_AT_name("unsigned long long")
    1370                    .dwattr $C$DW$T$15, DW_AT_byte_size(0x08)
    1371            
    1372            $C$DW$T$113     .dwtag  DW_TAG_typedef
    1373                    .dwattr $C$DW$T$113, DW_AT_name("__uint64_t")
    1374                    .dwattr $C$DW$T$113, DW_AT_type(*$C$DW$T$15)
    1375                    .dwattr $C$DW$T$113, DW_AT_language(DW_LANG_C)
    1376                    .dwattr $C$DW$T$113, DW_AT_decl_file("C:/ti/ccs1200/ccs/tools/compiler/ti-cgt-msp430_21.6.0.LT
    1377                    .dwattr $C$DW$T$113, DW_AT_decl_line(0x45)
    1378                    .dwattr $C$DW$T$113, DW_AT_decl_column(0x1c)
    1379            
    1380            $C$DW$T$114     .dwtag  DW_TAG_typedef
    1381                    .dwattr $C$DW$T$114, DW_AT_name("__dev_t")
    1382                    .dwattr $C$DW$T$114, DW_AT_type(*$C$DW$T$113)
    1383                    .dwattr $C$DW$T$114, DW_AT_language(DW_LANG_C)
    1384                    .dwattr $C$DW$T$114, DW_AT_decl_file("C:/ti/ccs1200/ccs/tools/compiler/ti-cgt-msp430_21.6.0.LT
    1385                    .dwattr $C$DW$T$114, DW_AT_decl_line(0x7f)
    1386                    .dwattr $C$DW$T$114, DW_AT_decl_column(0x14)
    1387            
    1388            $C$DW$T$115     .dwtag  DW_TAG_typedef
    1389                    .dwattr $C$DW$T$115, DW_AT_name("__fsblkcnt_t")
    1390                    .dwattr $C$DW$T$115, DW_AT_type(*$C$DW$T$113)
    1391                    .dwattr $C$DW$T$115, DW_AT_language(DW_LANG_C)
    1392                    .dwattr $C$DW$T$115, DW_AT_decl_file("C:/ti/ccs1200/ccs/tools/compiler/ti-cgt-msp430_21.6.0.LT
    1393                    .dwattr $C$DW$T$115, DW_AT_decl_line(0x33)
    1394                    .dwattr $C$DW$T$115, DW_AT_decl_column(0x14)
    1395            
    1396            $C$DW$T$116     .dwtag  DW_TAG_typedef
    1397                    .dwattr $C$DW$T$116, DW_AT_name("__fsfilcnt_t")
    1398                    .dwattr $C$DW$T$116, DW_AT_type(*$C$DW$T$113)
    1399                    .dwattr $C$DW$T$116, DW_AT_language(DW_LANG_C)
    1400                    .dwattr $C$DW$T$116, DW_AT_decl_file("C:/ti/ccs1200/ccs/tools/compiler/ti-cgt-msp430_21.6.0.LT
    1401                    .dwattr $C$DW$T$116, DW_AT_decl_line(0x34)
    1402                    .dwattr $C$DW$T$116, DW_AT_decl_column(0x14)
    1403            
    1404            $C$DW$T$117     .dwtag  DW_TAG_typedef
    1405                    .dwattr $C$DW$T$117, DW_AT_name("__ino_t")
    1406                    .dwattr $C$DW$T$117, DW_AT_type(*$C$DW$T$113)
    1407                    .dwattr $C$DW$T$117, DW_AT_language(DW_LANG_C)
    1408                    .dwattr $C$DW$T$117, DW_AT_decl_file("C:/ti/ccs1200/ccs/tools/compiler/ti-cgt-msp430_21.6.0.LT
    1409                    .dwattr $C$DW$T$117, DW_AT_decl_line(0x37)
    1410                    .dwattr $C$DW$T$117, DW_AT_decl_column(0x14)
MSP430 Assembler PC v21.6.0 Sat Apr  8 12:40:34 2023

Copyright (c) 2003-2018 Texas Instruments Incorporated
C:\Users\chand\AppData\Local\Temp\{04461AB9-8EB7-4402-A1F3-5574A1543DBF} PAGE   28

    1411            
    1412            $C$DW$T$118     .dwtag  DW_TAG_typedef
    1413                    .dwattr $C$DW$T$118, DW_AT_name("__nlink_t")
    1414                    .dwattr $C$DW$T$118, DW_AT_type(*$C$DW$T$113)
    1415                    .dwattr $C$DW$T$118, DW_AT_language(DW_LANG_C)
    1416                    .dwattr $C$DW$T$118, DW_AT_decl_file("C:/ti/ccs1200/ccs/tools/compiler/ti-cgt-msp430_21.6.0.LT
    1417                    .dwattr $C$DW$T$118, DW_AT_decl_line(0x3d)
    1418                    .dwattr $C$DW$T$118, DW_AT_decl_column(0x14)
    1419            
    1420            $C$DW$T$119     .dwtag  DW_TAG_typedef
    1421                    .dwattr $C$DW$T$119, DW_AT_name("__uint_fast64_t")
    1422                    .dwattr $C$DW$T$119, DW_AT_type(*$C$DW$T$113)
    1423                    .dwattr $C$DW$T$119, DW_AT_language(DW_LANG_C)
    1424                    .dwattr $C$DW$T$119, DW_AT_decl_file("C:/ti/ccs1200/ccs/tools/compiler/ti-cgt-msp430_21.6.0.LT
    1425                    .dwattr $C$DW$T$119, DW_AT_decl_line(0x73)
    1426                    .dwattr $C$DW$T$119, DW_AT_decl_column(0x14)
    1427            
    1428            $C$DW$T$120     .dwtag  DW_TAG_typedef
    1429                    .dwattr $C$DW$T$120, DW_AT_name("__uint_least64_t")
    1430                    .dwattr $C$DW$T$120, DW_AT_type(*$C$DW$T$113)
    1431                    .dwattr $C$DW$T$120, DW_AT_language(DW_LANG_C)
    1432                    .dwattr $C$DW$T$120, DW_AT_decl_file("C:/ti/ccs1200/ccs/tools/compiler/ti-cgt-msp430_21.6.0.LT
    1433                    .dwattr $C$DW$T$120, DW_AT_decl_line(0x77)
    1434                    .dwattr $C$DW$T$120, DW_AT_decl_column(0x14)
    1435            
    1436            $C$DW$T$121     .dwtag  DW_TAG_typedef
    1437                    .dwattr $C$DW$T$121, DW_AT_name("__uintmax_t")
    1438                    .dwattr $C$DW$T$121, DW_AT_type(*$C$DW$T$113)
    1439                    .dwattr $C$DW$T$121, DW_AT_language(DW_LANG_C)
    1440                    .dwattr $C$DW$T$121, DW_AT_decl_file("C:/ti/ccs1200/ccs/tools/compiler/ti-cgt-msp430_21.6.0.LT
    1441                    .dwattr $C$DW$T$121, DW_AT_decl_line(0x69)
    1442                    .dwattr $C$DW$T$121, DW_AT_decl_column(0x14)
    1443            
    1444            $C$DW$T$122     .dwtag  DW_TAG_typedef
    1445                    .dwattr $C$DW$T$122, DW_AT_name("__rman_res_t")
    1446                    .dwattr $C$DW$T$122, DW_AT_type(*$C$DW$T$121)
    1447                    .dwattr $C$DW$T$122, DW_AT_language(DW_LANG_C)
    1448                    .dwattr $C$DW$T$122, DW_AT_decl_file("C:/ti/ccs1200/ccs/tools/compiler/ti-cgt-msp430_21.6.0.LT
    1449                    .dwattr $C$DW$T$122, DW_AT_decl_line(0x9a)
    1450                    .dwattr $C$DW$T$122, DW_AT_decl_column(0x19)
    1451            
    1452            $C$DW$T$16      .dwtag  DW_TAG_base_type
    1453                    .dwattr $C$DW$T$16, DW_AT_encoding(DW_ATE_float)
    1454                    .dwattr $C$DW$T$16, DW_AT_name("float")
    1455                    .dwattr $C$DW$T$16, DW_AT_byte_size(0x04)
    1456            
    1457            $C$DW$T$123     .dwtag  DW_TAG_typedef
    1458                    .dwattr $C$DW$T$123, DW_AT_name("__float_t")
    1459                    .dwattr $C$DW$T$123, DW_AT_type(*$C$DW$T$16)
    1460                    .dwattr $C$DW$T$123, DW_AT_language(DW_LANG_C)
    1461                    .dwattr $C$DW$T$123, DW_AT_decl_file("C:/ti/ccs1200/ccs/tools/compiler/ti-cgt-msp430_21.6.0.LT
    1462                    .dwattr $C$DW$T$123, DW_AT_decl_line(0x4d)
    1463                    .dwattr $C$DW$T$123, DW_AT_decl_column(0x10)
    1464            
    1465            $C$DW$T$17      .dwtag  DW_TAG_base_type
MSP430 Assembler PC v21.6.0 Sat Apr  8 12:40:34 2023

Copyright (c) 2003-2018 Texas Instruments Incorporated
C:\Users\chand\AppData\Local\Temp\{04461AB9-8EB7-4402-A1F3-5574A1543DBF} PAGE   29

    1466                    .dwattr $C$DW$T$17, DW_AT_encoding(DW_ATE_float)
    1467                    .dwattr $C$DW$T$17, DW_AT_name("double")
    1468                    .dwattr $C$DW$T$17, DW_AT_byte_size(0x08)
    1469            
    1470            $C$DW$T$124     .dwtag  DW_TAG_typedef
    1471                    .dwattr $C$DW$T$124, DW_AT_name("__double_t")
    1472                    .dwattr $C$DW$T$124, DW_AT_type(*$C$DW$T$17)
    1473                    .dwattr $C$DW$T$124, DW_AT_language(DW_LANG_C)
    1474                    .dwattr $C$DW$T$124, DW_AT_decl_file("C:/ti/ccs1200/ccs/tools/compiler/ti-cgt-msp430_21.6.0.LT
    1475                    .dwattr $C$DW$T$124, DW_AT_decl_line(0x4c)
    1476                    .dwattr $C$DW$T$124, DW_AT_decl_column(0x11)
    1477            
    1478            $C$DW$T$18      .dwtag  DW_TAG_base_type
    1479                    .dwattr $C$DW$T$18, DW_AT_encoding(DW_ATE_float)
    1480                    .dwattr $C$DW$T$18, DW_AT_name("long double")
    1481                    .dwattr $C$DW$T$18, DW_AT_byte_size(0x08)
    1482            
    1483            $C$DW$T$39      .dwtag  DW_TAG_const_type
    1484                    .dwattr $C$DW$T$39, DW_AT_type(*$C$DW$T$6)
    1485            
    1486            $C$DW$T$40      .dwtag  DW_TAG_pointer_type
    1487                    .dwattr $C$DW$T$40, DW_AT_type(*$C$DW$T$39)
    1488                    .dwattr $C$DW$T$40, DW_AT_address_class(0x10)
    1489            
    1490            $C$DW$T$41      .dwtag  DW_TAG_restrict_type
    1491                    .dwattr $C$DW$T$41, DW_AT_type(*$C$DW$T$40)
    1492            
    1493            
    1494            $C$DW$T$125     .dwtag  DW_TAG_array_type
    1495                    .dwattr $C$DW$T$125, DW_AT_type(*$C$DW$T$39)
    1496                    .dwattr $C$DW$T$125, DW_AT_language(DW_LANG_C)
    1497                    .dwattr $C$DW$T$125, DW_AT_byte_size(0x64)
    1498            $C$DW$28        .dwtag  DW_TAG_subrange_type
    1499                    .dwattr $C$DW$28, DW_AT_upper_bound(0x63)
    1500            
    1501                    .dwendtag $C$DW$T$125
    1502            
    1503            
    1504            $C$DW$T$126     .dwtag  DW_TAG_array_type
    1505                    .dwattr $C$DW$T$126, DW_AT_type(*$C$DW$T$6)
    1506                    .dwattr $C$DW$T$126, DW_AT_language(DW_LANG_C)
    1507                    .dwattr $C$DW$T$126, DW_AT_byte_size(0x01)
    1508            $C$DW$29        .dwtag  DW_TAG_subrange_type
    1509                    .dwattr $C$DW$29, DW_AT_upper_bound(0x00)
    1510            
    1511                    .dwendtag $C$DW$T$126
    1512            
    1513            $C$DW$T$127     .dwtag  DW_TAG_pointer_type
    1514                    .dwattr $C$DW$T$127, DW_AT_type(*$C$DW$T$6)
    1515                    .dwattr $C$DW$T$127, DW_AT_address_class(0x10)
    1516            
    1517            $C$DW$T$128     .dwtag  DW_TAG_typedef
    1518                    .dwattr $C$DW$T$128, DW_AT_name("__va_list")
    1519                    .dwattr $C$DW$T$128, DW_AT_type(*$C$DW$T$127)
    1520                    .dwattr $C$DW$T$128, DW_AT_language(DW_LANG_C)
MSP430 Assembler PC v21.6.0 Sat Apr  8 12:40:34 2023

Copyright (c) 2003-2018 Texas Instruments Incorporated
C:\Users\chand\AppData\Local\Temp\{04461AB9-8EB7-4402-A1F3-5574A1543DBF} PAGE   30

    1521                    .dwattr $C$DW$T$128, DW_AT_decl_file("C:/ti/ccs1200/ccs/tools/compiler/ti-cgt-msp430_21.6.0.LT
    1522                    .dwattr $C$DW$T$128, DW_AT_decl_line(0x92)
    1523                    .dwattr $C$DW$T$128, DW_AT_decl_column(0x0f)
    1524            
    1525            $C$DW$T$129     .dwtag  DW_TAG_typedef
    1526                    .dwattr $C$DW$T$129, DW_AT_name("va_list")
    1527                    .dwattr $C$DW$T$129, DW_AT_type(*$C$DW$T$128)
    1528                    .dwattr $C$DW$T$129, DW_AT_language(DW_LANG_C)
    1529                    .dwattr $C$DW$T$129, DW_AT_decl_file("C:/ti/ccs1200/ccs/tools/compiler/ti-cgt-msp430_21.6.0.LT
    1530                    .dwattr $C$DW$T$129, DW_AT_decl_line(0x33)
    1531                    .dwattr $C$DW$T$129, DW_AT_decl_column(0x13)
    1532            
    1533            
    1534            $C$DW$T$19      .dwtag  DW_TAG_structure_type
    1535                    .dwattr $C$DW$T$19, DW_AT_name("__mq")
    1536                    .dwattr $C$DW$T$19, DW_AT_declaration
    1537                    .dwattr $C$DW$T$19, DW_AT_decl_file("C:/ti/ccs1200/ccs/tools/compiler/ti-cgt-msp430_21.6.0.LTS
    1538                    .dwattr $C$DW$T$19, DW_AT_decl_line(0x4c)
    1539                    .dwattr $C$DW$T$19, DW_AT_decl_column(0x10)
    1540                    .dwendtag $C$DW$T$19
    1541            
    1542            $C$DW$T$130     .dwtag  DW_TAG_pointer_type
    1543                    .dwattr $C$DW$T$130, DW_AT_type(*$C$DW$T$19)
    1544                    .dwattr $C$DW$T$130, DW_AT_address_class(0x10)
    1545            
    1546            $C$DW$T$131     .dwtag  DW_TAG_typedef
    1547                    .dwattr $C$DW$T$131, DW_AT_name("__mqd_t")
    1548                    .dwattr $C$DW$T$131, DW_AT_type(*$C$DW$T$130)
    1549                    .dwattr $C$DW$T$131, DW_AT_language(DW_LANG_C)
    1550                    .dwattr $C$DW$T$131, DW_AT_decl_file("C:/ti/ccs1200/ccs/tools/compiler/ti-cgt-msp430_21.6.0.LT
    1551                    .dwattr $C$DW$T$131, DW_AT_decl_line(0x4c)
    1552                    .dwattr $C$DW$T$131, DW_AT_decl_column(0x16)
    1553            
    1554            
    1555            $C$DW$T$23      .dwtag  DW_TAG_structure_type
    1556                    .dwattr $C$DW$T$23, DW_AT_name("__sFILE")
    1557                    .dwattr $C$DW$T$23, DW_AT_byte_size(0x0c)
    1558            $C$DW$30        .dwtag  DW_TAG_member
    1559                    .dwattr $C$DW$30, DW_AT_type(*$C$DW$T$10)
    1560                    .dwattr $C$DW$30, DW_AT_name("fd")
    1561                    .dwattr $C$DW$30, DW_AT_TI_symbol_name("fd")
    1562                    .dwattr $C$DW$30, DW_AT_data_member_location[DW_OP_plus_uconst 0x0]
    1563                    .dwattr $C$DW$30, DW_AT_accessibility(DW_ACCESS_public)
    1564                    .dwattr $C$DW$30, DW_AT_decl_file("C:/ti/ccs1200/ccs/tools/compiler/ti-cgt-msp430_21.6.0.LTS/i
    1565                    .dwattr $C$DW$30, DW_AT_decl_line(0x52)
    1566                    .dwattr $C$DW$30, DW_AT_decl_column(0x0b)
    1567            
    1568            $C$DW$31        .dwtag  DW_TAG_member
    1569                    .dwattr $C$DW$31, DW_AT_type(*$C$DW$T$22)
    1570                    .dwattr $C$DW$31, DW_AT_name("buf")
    1571                    .dwattr $C$DW$31, DW_AT_TI_symbol_name("buf")
    1572                    .dwattr $C$DW$31, DW_AT_data_member_location[DW_OP_plus_uconst 0x2]
    1573                    .dwattr $C$DW$31, DW_AT_accessibility(DW_ACCESS_public)
    1574                    .dwattr $C$DW$31, DW_AT_decl_file("C:/ti/ccs1200/ccs/tools/compiler/ti-cgt-msp430_21.6.0.LTS/i
    1575                    .dwattr $C$DW$31, DW_AT_decl_line(0x53)
MSP430 Assembler PC v21.6.0 Sat Apr  8 12:40:34 2023

Copyright (c) 2003-2018 Texas Instruments Incorporated
C:\Users\chand\AppData\Local\Temp\{04461AB9-8EB7-4402-A1F3-5574A1543DBF} PAGE   31

    1576                    .dwattr $C$DW$31, DW_AT_decl_column(0x16)
    1577            
    1578            $C$DW$32        .dwtag  DW_TAG_member
    1579                    .dwattr $C$DW$32, DW_AT_type(*$C$DW$T$22)
    1580                    .dwattr $C$DW$32, DW_AT_name("pos")
    1581                    .dwattr $C$DW$32, DW_AT_TI_symbol_name("pos")
    1582                    .dwattr $C$DW$32, DW_AT_data_member_location[DW_OP_plus_uconst 0x4]
    1583                    .dwattr $C$DW$32, DW_AT_accessibility(DW_ACCESS_public)
    1584                    .dwattr $C$DW$32, DW_AT_decl_file("C:/ti/ccs1200/ccs/tools/compiler/ti-cgt-msp430_21.6.0.LTS/i
    1585                    .dwattr $C$DW$32, DW_AT_decl_line(0x54)
    1586                    .dwattr $C$DW$32, DW_AT_decl_column(0x16)
    1587            
    1588            $C$DW$33        .dwtag  DW_TAG_member
    1589                    .dwattr $C$DW$33, DW_AT_type(*$C$DW$T$22)
    1590                    .dwattr $C$DW$33, DW_AT_name("bufend")
    1591                    .dwattr $C$DW$33, DW_AT_TI_symbol_name("bufend")
    1592                    .dwattr $C$DW$33, DW_AT_data_member_location[DW_OP_plus_uconst 0x6]
    1593                    .dwattr $C$DW$33, DW_AT_accessibility(DW_ACCESS_public)
    1594                    .dwattr $C$DW$33, DW_AT_decl_file("C:/ti/ccs1200/ccs/tools/compiler/ti-cgt-msp430_21.6.0.LTS/i
    1595                    .dwattr $C$DW$33, DW_AT_decl_line(0x55)
    1596                    .dwattr $C$DW$33, DW_AT_decl_column(0x16)
    1597            
    1598            $C$DW$34        .dwtag  DW_TAG_member
    1599                    .dwattr $C$DW$34, DW_AT_type(*$C$DW$T$22)
    1600                    .dwattr $C$DW$34, DW_AT_name("buff_stop")
    1601                    .dwattr $C$DW$34, DW_AT_TI_symbol_name("buff_stop")
    1602                    .dwattr $C$DW$34, DW_AT_data_member_location[DW_OP_plus_uconst 0x8]
    1603                    .dwattr $C$DW$34, DW_AT_accessibility(DW_ACCESS_public)
    1604                    .dwattr $C$DW$34, DW_AT_decl_file("C:/ti/ccs1200/ccs/tools/compiler/ti-cgt-msp430_21.6.0.LTS/i
    1605                    .dwattr $C$DW$34, DW_AT_decl_line(0x56)
    1606                    .dwattr $C$DW$34, DW_AT_decl_column(0x16)
    1607            
    1608            $C$DW$35        .dwtag  DW_TAG_member
    1609                    .dwattr $C$DW$35, DW_AT_type(*$C$DW$T$11)
    1610                    .dwattr $C$DW$35, DW_AT_name("flags")
    1611                    .dwattr $C$DW$35, DW_AT_TI_symbol_name("flags")
    1612                    .dwattr $C$DW$35, DW_AT_data_member_location[DW_OP_plus_uconst 0xa]
    1613                    .dwattr $C$DW$35, DW_AT_accessibility(DW_ACCESS_public)
    1614                    .dwattr $C$DW$35, DW_AT_decl_file("C:/ti/ccs1200/ccs/tools/compiler/ti-cgt-msp430_21.6.0.LTS/i
    1615                    .dwattr $C$DW$35, DW_AT_decl_line(0x57)
    1616                    .dwattr $C$DW$35, DW_AT_decl_column(0x16)
    1617            
    1618                    .dwattr $C$DW$T$23, DW_AT_decl_file("C:/ti/ccs1200/ccs/tools/compiler/ti-cgt-msp430_21.6.0.LTS
    1619                    .dwattr $C$DW$T$23, DW_AT_decl_line(0x51)
    1620                    .dwattr $C$DW$T$23, DW_AT_decl_column(0x08)
    1621                    .dwendtag $C$DW$T$23
    1622            
    1623            $C$DW$T$132     .dwtag  DW_TAG_typedef
    1624                    .dwattr $C$DW$T$132, DW_AT_name("FILE")
    1625                    .dwattr $C$DW$T$132, DW_AT_type(*$C$DW$T$23)
    1626                    .dwattr $C$DW$T$132, DW_AT_language(DW_LANG_C)
    1627                    .dwattr $C$DW$T$132, DW_AT_decl_file("C:/ti/ccs1200/ccs/tools/compiler/ti-cgt-msp430_21.6.0.LT
    1628                    .dwattr $C$DW$T$132, DW_AT_decl_line(0x5c)
    1629                    .dwattr $C$DW$T$132, DW_AT_decl_column(0x18)
    1630            
MSP430 Assembler PC v21.6.0 Sat Apr  8 12:40:34 2023

Copyright (c) 2003-2018 Texas Instruments Incorporated
C:\Users\chand\AppData\Local\Temp\{04461AB9-8EB7-4402-A1F3-5574A1543DBF} PAGE   32

    1631            
    1632            $C$DW$T$20      .dwtag  DW_TAG_structure_type
    1633                    .dwattr $C$DW$T$20, DW_AT_name("__timer")
    1634                    .dwattr $C$DW$T$20, DW_AT_declaration
    1635                    .dwattr $C$DW$T$20, DW_AT_decl_file("C:/ti/ccs1200/ccs/tools/compiler/ti-cgt-msp430_21.6.0.LTS
    1636                    .dwattr $C$DW$T$20, DW_AT_decl_line(0x4b)
    1637                    .dwattr $C$DW$T$20, DW_AT_decl_column(0x10)
    1638                    .dwendtag $C$DW$T$20
    1639            
    1640            $C$DW$T$133     .dwtag  DW_TAG_pointer_type
    1641                    .dwattr $C$DW$T$133, DW_AT_type(*$C$DW$T$20)
    1642                    .dwattr $C$DW$T$133, DW_AT_address_class(0x10)
    1643            
    1644            $C$DW$T$134     .dwtag  DW_TAG_typedef
    1645                    .dwattr $C$DW$T$134, DW_AT_name("__timer_t")
    1646                    .dwattr $C$DW$T$134, DW_AT_type(*$C$DW$T$133)
    1647                    .dwattr $C$DW$T$134, DW_AT_language(DW_LANG_C)
    1648                    .dwattr $C$DW$T$134, DW_AT_decl_file("C:/ti/ccs1200/ccs/tools/compiler/ti-cgt-msp430_21.6.0.LT
    1649                    .dwattr $C$DW$T$134, DW_AT_decl_line(0x4b)
    1650                    .dwattr $C$DW$T$134, DW_AT_decl_column(0x19)
    1651            
    1652                    .dwattr $C$DW$CU, DW_AT_language(DW_LANG_C)
    1653            
    1654            ;***************************************************************
    1655            ;* DWARF CIE ENTRIES                                           *
    1656            ;***************************************************************
    1657            
    1658            $C$DW$CIE       .dwcie 16
    1659                    .dwcfi  cfa_register, 1
    1660                    .dwcfi  cfa_offset, 0
    1661                    .dwcfi  same_value, 0
    1662                    .dwcfi  same_value, 1
    1663                    .dwcfi  same_value, 3
    1664                    .dwcfi  same_value, 4
    1665                    .dwcfi  same_value, 5
    1666                    .dwcfi  same_value, 6
    1667                    .dwcfi  same_value, 7
    1668                    .dwcfi  same_value, 8
    1669                    .dwcfi  same_value, 9
    1670                    .dwcfi  same_value, 10
    1671                    .dwendentry
    1672            
    1673            ;***************************************************************
    1674            ;* DWARF REGISTER MAP                                          *
    1675            ;***************************************************************
    1676            
    1677            $C$DW$36        .dwtag  DW_TAG_TI_assign_register
    1678                    .dwattr $C$DW$36, DW_AT_name("PC")
    1679                    .dwattr $C$DW$36, DW_AT_location[DW_OP_reg0]
    1680            
    1681            $C$DW$37        .dwtag  DW_TAG_TI_assign_register
    1682                    .dwattr $C$DW$37, DW_AT_name("SP")
    1683                    .dwattr $C$DW$37, DW_AT_location[DW_OP_reg1]
    1684            
    1685            $C$DW$38        .dwtag  DW_TAG_TI_assign_register
MSP430 Assembler PC v21.6.0 Sat Apr  8 12:40:34 2023

Copyright (c) 2003-2018 Texas Instruments Incorporated
C:\Users\chand\AppData\Local\Temp\{04461AB9-8EB7-4402-A1F3-5574A1543DBF} PAGE   33

    1686                    .dwattr $C$DW$38, DW_AT_name("SR")
    1687                    .dwattr $C$DW$38, DW_AT_location[DW_OP_reg2]
    1688            
    1689            $C$DW$39        .dwtag  DW_TAG_TI_assign_register
    1690                    .dwattr $C$DW$39, DW_AT_name("CG")
    1691                    .dwattr $C$DW$39, DW_AT_location[DW_OP_reg3]
    1692            
    1693            $C$DW$40        .dwtag  DW_TAG_TI_assign_register
    1694                    .dwattr $C$DW$40, DW_AT_name("r4")
    1695                    .dwattr $C$DW$40, DW_AT_location[DW_OP_reg4]
    1696            
    1697            $C$DW$41        .dwtag  DW_TAG_TI_assign_register
    1698                    .dwattr $C$DW$41, DW_AT_name("r5")
    1699                    .dwattr $C$DW$41, DW_AT_location[DW_OP_reg5]
    1700            
    1701            $C$DW$42        .dwtag  DW_TAG_TI_assign_register
    1702                    .dwattr $C$DW$42, DW_AT_name("r6")
    1703                    .dwattr $C$DW$42, DW_AT_location[DW_OP_reg6]
    1704            
    1705            $C$DW$43        .dwtag  DW_TAG_TI_assign_register
    1706                    .dwattr $C$DW$43, DW_AT_name("r7")
    1707                    .dwattr $C$DW$43, DW_AT_location[DW_OP_reg7]
    1708            
    1709            $C$DW$44        .dwtag  DW_TAG_TI_assign_register
    1710                    .dwattr $C$DW$44, DW_AT_name("r8")
    1711                    .dwattr $C$DW$44, DW_AT_location[DW_OP_reg8]
    1712            
    1713            $C$DW$45        .dwtag  DW_TAG_TI_assign_register
    1714                    .dwattr $C$DW$45, DW_AT_name("r9")
    1715                    .dwattr $C$DW$45, DW_AT_location[DW_OP_reg9]
    1716            
    1717            $C$DW$46        .dwtag  DW_TAG_TI_assign_register
    1718                    .dwattr $C$DW$46, DW_AT_name("r10")
    1719                    .dwattr $C$DW$46, DW_AT_location[DW_OP_reg10]
    1720            
    1721            $C$DW$47        .dwtag  DW_TAG_TI_assign_register
    1722                    .dwattr $C$DW$47, DW_AT_name("r11")
    1723                    .dwattr $C$DW$47, DW_AT_location[DW_OP_reg11]
    1724            
    1725            $C$DW$48        .dwtag  DW_TAG_TI_assign_register
    1726                    .dwattr $C$DW$48, DW_AT_name("r12")
    1727                    .dwattr $C$DW$48, DW_AT_location[DW_OP_reg12]
    1728            
    1729            $C$DW$49        .dwtag  DW_TAG_TI_assign_register
    1730                    .dwattr $C$DW$49, DW_AT_name("r13")
    1731                    .dwattr $C$DW$49, DW_AT_location[DW_OP_reg13]
    1732            
    1733            $C$DW$50        .dwtag  DW_TAG_TI_assign_register
    1734                    .dwattr $C$DW$50, DW_AT_name("r14")
    1735                    .dwattr $C$DW$50, DW_AT_location[DW_OP_reg14]
    1736            
    1737            $C$DW$51        .dwtag  DW_TAG_TI_assign_register
    1738                    .dwattr $C$DW$51, DW_AT_name("r15")
    1739                    .dwattr $C$DW$51, DW_AT_location[DW_OP_reg15]
    1740            
MSP430 Assembler PC v21.6.0 Sat Apr  8 12:40:34 2023

Copyright (c) 2003-2018 Texas Instruments Incorporated
C:\Users\chand\AppData\Local\Temp\{04461AB9-8EB7-4402-A1F3-5574A1543DBF} PAGE   34

    1741            $C$DW$52        .dwtag  DW_TAG_TI_assign_register
    1742                    .dwattr $C$DW$52, DW_AT_name("CIE_RETA")
    1743                    .dwattr $C$DW$52, DW_AT_location[DW_OP_reg16]
    1744            
    1745                    .dwendtag $C$DW$CU
    1746            

No Assembly Errors, No Assembly Warnings
